	.text
	.file	"memcpy.c"
	.file	1 "/root" "uPIMulator_frontend/sdk/stdlib/stdint.h"
	.section	.text.__memcpy_wram_4align,"ax",@progbits
	.globl	__memcpy_wram_4align            // -- Begin function __memcpy_wram_4align
	.type	__memcpy_wram_4align,@function
__memcpy_wram_4align:                   // @__memcpy_wram_4align
.Lfunc_begin0:
	.file	2 "/root" "uPIMulator_frontend/sdk/stdlib/memcpy.c"
	.loc	2 13 0                          // uPIMulator_frontend/sdk/stdlib/memcpy.c:13:0
	.cfi_sections .debug_frame
	.cfi_startproc
// %bb.0:
	//DEBUG_VALUE: __memcpy_wram_4align:dest <- $r0
	//DEBUG_VALUE: __memcpy_wram_4align:dest <- $r0
	//DEBUG_VALUE: __memcpy_wram_4align:src <- $r1
	//DEBUG_VALUE: __memcpy_wram_4align:src <- $r1
	//DEBUG_VALUE: __memcpy_wram_4align:len <- $r2
	//DEBUG_VALUE: __memcpy_wram_4align:len <- $r2
	.cfi_def_cfa_offset 0
	//DEBUG_VALUE: __memcpy_wram_4align:dw <- $r0
	//DEBUG_VALUE: __memcpy_wram_4align:dw <- $r0
	//DEBUG_VALUE: __memcpy_wram_4align:sw <- $r1
	//DEBUG_VALUE: __memcpy_wram_4align:sw <- $r1
	//DEBUG_VALUE: i <- 0
	.loc	2 17 35 prologue_end            // uPIMulator_frontend/sdk/stdlib/memcpy.c:17:35
	lsr r2, r2, 2, z, .LBB0_3
.Ltmp0:
// %bb.1:
	//DEBUG_VALUE: __memcpy_wram_4align:sw <- $r1
	//DEBUG_VALUE: __memcpy_wram_4align:src <- $r1
	//DEBUG_VALUE: __memcpy_wram_4align:dw <- $r0
	//DEBUG_VALUE: __memcpy_wram_4align:dest <- $r0
	//DEBUG_VALUE: i <- 0
	.loc	2 0 35 is_stmt 0                // uPIMulator_frontend/sdk/stdlib/memcpy.c:0:35
	move r3, r0
.Ltmp1:
.LBB0_2:                                // =>This Inner Loop Header: Depth=1
	//DEBUG_VALUE: __memcpy_wram_4align:dw <- $r0
	//DEBUG_VALUE: __memcpy_wram_4align:dest <- $r0
	//DEBUG_VALUE: i <- undef
	.loc	2 18 17 is_stmt 1               // uPIMulator_frontend/sdk/stdlib/memcpy.c:18:17
	lw r4, r1, 0
	.loc	2 18 15 is_stmt 0               // uPIMulator_frontend/sdk/stdlib/memcpy.c:18:15
	sw r3, 0, r4
.Ltmp2:
	//DEBUG_VALUE: i <- [DW_OP_plus_uconst 1, DW_OP_stack_value] undef
	.loc	2 17 28 is_stmt 1               // uPIMulator_frontend/sdk/stdlib/memcpy.c:17:28
	add r3, r3, 4
	add r1, r1, 4
	add r2, r2, -1, nz, .LBB0_2
.Ltmp3:
.LBB0_3:
	//DEBUG_VALUE: __memcpy_wram_4align:dw <- $r0
	//DEBUG_VALUE: __memcpy_wram_4align:dest <- $r0
	.loc	2 20 5                          // uPIMulator_frontend/sdk/stdlib/memcpy.c:20:5
	jump r23
.Ltmp4:
.Lfunc_end0:
	.size	__memcpy_wram_4align, .Lfunc_end0-__memcpy_wram_4align
	.cfi_endproc
	.section	.stack_sizes,"o",@progbits,.text.__memcpy_wram_4align
	.long	.Lfunc_begin0
	.byte	0
	.section	.text.__memcpy_wram_4align,"ax",@progbits
                                        // -- End function
	.section	.text.memcpy,"ax",@progbits
	.globl	memcpy                          // -- Begin function memcpy
	.type	memcpy,@function
memcpy:                                 // @memcpy
.Lfunc_begin1:
	.loc	2 25 0                          // uPIMulator_frontend/sdk/stdlib/memcpy.c:25:0
	.cfi_startproc
// %bb.0:
	//DEBUG_VALUE: memcpy:dest <- $r0
	//DEBUG_VALUE: memcpy:dest <- $r0
	//DEBUG_VALUE: memcpy:src <- $r1
	//DEBUG_VALUE: memcpy:src <- $r1
	//DEBUG_VALUE: memcpy:len <- $r2
	//DEBUG_VALUE: memcpy:len <- $r2
	.cfi_def_cfa_offset 0
	//DEBUG_VALUE: memcpy:d <- $r0
	//DEBUG_VALUE: memcpy:d <- $r0
	//DEBUG_VALUE: memcpy:s <- $r1
	//DEBUG_VALUE: memcpy:s <- $r1
	.loc	2 31 43 prologue_end            // uPIMulator_frontend/sdk/stdlib/memcpy.c:31:43
	add r2, r0, r2
.Ltmp5:
	//DEBUG_VALUE: memcpy:body <- undef
	//DEBUG_VALUE: memcpy:tail <- $r2
	.loc	2 35 31                         // uPIMulator_frontend/sdk/stdlib/memcpy.c:35:31
	xor r3, r1, r0
.Ltmp6:
	.loc	2 35 9 is_stmt 0                // uPIMulator_frontend/sdk/stdlib/memcpy.c:35:9
	add r4, r0, 3
	and r5, r4, -4
.Ltmp7:
	.loc	2 35 31                         // uPIMulator_frontend/sdk/stdlib/memcpy.c:35:31
	and r4, r3, 3
.Ltmp8:
	.loc	2 35 9                          // uPIMulator_frontend/sdk/stdlib/memcpy.c:35:9
	move r3, r2
	jgtu r5, r2, .LBB1_2
.Ltmp9:
// %bb.1:
	//DEBUG_VALUE: memcpy:tail <- $r2
	//DEBUG_VALUE: memcpy:s <- $r1
	//DEBUG_VALUE: memcpy:src <- $r1
	//DEBUG_VALUE: memcpy:d <- $r0
	//DEBUG_VALUE: memcpy:dest <- $r0
	move r3, r5
.Ltmp10:
.LBB1_2:
	//DEBUG_VALUE: memcpy:tail <- $r2
	//DEBUG_VALUE: memcpy:s <- $r1
	//DEBUG_VALUE: memcpy:src <- $r1
	//DEBUG_VALUE: memcpy:d <- $r0
	//DEBUG_VALUE: memcpy:dest <- $r0
	//DEBUG_VALUE: memcpy:body <- undef
	jeq r4, 0, .LBB1_4
.Ltmp11:
// %bb.3:
	//DEBUG_VALUE: memcpy:tail <- $r2
	//DEBUG_VALUE: memcpy:s <- $r1
	//DEBUG_VALUE: memcpy:src <- $r1
	//DEBUG_VALUE: memcpy:d <- $r0
	//DEBUG_VALUE: memcpy:dest <- $r0
	move r3, r2
.Ltmp12:
.LBB1_4:
	//DEBUG_VALUE: memcpy:tail <- $r2
	//DEBUG_VALUE: memcpy:s <- $r1
	//DEBUG_VALUE: memcpy:src <- $r1
	//DEBUG_VALUE: memcpy:d <- $r0
	//DEBUG_VALUE: memcpy:dest <- $r0
	.loc	2 0 9                           // uPIMulator_frontend/sdk/stdlib/memcpy.c:0:9
	and r6, r2, -4
.Ltmp13:
	//DEBUG_VALUE: memcpy:head <- $r3
	//DEBUG_VALUE: memcpy:body <- $r6
	//DEBUG_VALUE: i <- 0
	//DEBUG_VALUE: memcpy:head_len <- $r5
	.loc	2 49 30 is_stmt 1               // uPIMulator_frontend/sdk/stdlib/memcpy.c:49:30
	sub r5, r3, r0, z, .LBB1_7
.Ltmp14:
// %bb.5:
	//DEBUG_VALUE: memcpy:body <- $r6
	//DEBUG_VALUE: memcpy:head <- $r3
	//DEBUG_VALUE: memcpy:tail <- $r2
	//DEBUG_VALUE: memcpy:s <- $r1
	//DEBUG_VALUE: memcpy:src <- $r1
	//DEBUG_VALUE: memcpy:d <- $r0
	//DEBUG_VALUE: memcpy:dest <- $r0
	//DEBUG_VALUE: i <- 0
	.loc	2 0 30 is_stmt 0                // uPIMulator_frontend/sdk/stdlib/memcpy.c:0:30
	move r4, r1
	move r7, r0
	move r8, r5
.Ltmp15:
.LBB1_6:                                // =>This Inner Loop Header: Depth=1
	//DEBUG_VALUE: memcpy:body <- $r6
	//DEBUG_VALUE: memcpy:head <- $r3
	//DEBUG_VALUE: memcpy:tail <- $r2
	//DEBUG_VALUE: memcpy:s <- $r1
	//DEBUG_VALUE: memcpy:src <- $r1
	//DEBUG_VALUE: memcpy:d <- $r0
	//DEBUG_VALUE: memcpy:dest <- $r0
	//DEBUG_VALUE: i <- undef
	.loc	2 52 20 is_stmt 1               // uPIMulator_frontend/sdk/stdlib/memcpy.c:52:20
	lbs r9, r4, 0
	.loc	2 52 18 is_stmt 0               // uPIMulator_frontend/sdk/stdlib/memcpy.c:52:18
	sb r7, 0, r9
.Ltmp16:
	//DEBUG_VALUE: i <- [DW_OP_plus_uconst 1, DW_OP_stack_value] undef
	.loc	2 51 32 is_stmt 1               // uPIMulator_frontend/sdk/stdlib/memcpy.c:51:32
	add r7, r7, 1
	add r4, r4, 1
	add r8, r8, -1, nz, .LBB1_6
.Ltmp17:
.LBB1_7:
	//DEBUG_VALUE: memcpy:body <- $r6
	//DEBUG_VALUE: memcpy:head <- $r3
	//DEBUG_VALUE: memcpy:tail <- $r2
	//DEBUG_VALUE: memcpy:s <- $r1
	//DEBUG_VALUE: memcpy:src <- $r1
	//DEBUG_VALUE: memcpy:d <- $r0
	//DEBUG_VALUE: memcpy:dest <- $r0
	//DEBUG_VALUE: memcpy:dw <- $r3
	//DEBUG_VALUE: memcpy:sw <- undef
	.loc	2 0 32 is_stmt 0                // uPIMulator_frontend/sdk/stdlib/memcpy.c:0:32
	move r4, 0
	.loc	2 59 25 is_stmt 1               // uPIMulator_frontend/sdk/stdlib/memcpy.c:59:25
	jltu r6, r3, .LBB1_9
.Ltmp18:
// %bb.8:
	//DEBUG_VALUE: memcpy:body <- $r6
	//DEBUG_VALUE: memcpy:dw <- $r3
	//DEBUG_VALUE: memcpy:head <- $r3
	//DEBUG_VALUE: memcpy:tail <- $r2
	//DEBUG_VALUE: memcpy:s <- $r1
	//DEBUG_VALUE: memcpy:src <- $r1
	//DEBUG_VALUE: memcpy:d <- $r0
	//DEBUG_VALUE: memcpy:dest <- $r0
	.loc	2 0 25 is_stmt 0                // uPIMulator_frontend/sdk/stdlib/memcpy.c:0:25
	sub r4, r6, r3
	asr r4, r4, 2
.Ltmp19:
.LBB1_9:
	//DEBUG_VALUE: memcpy:body <- $r6
	//DEBUG_VALUE: memcpy:dw <- $r3
	//DEBUG_VALUE: memcpy:head <- $r3
	//DEBUG_VALUE: memcpy:tail <- $r2
	//DEBUG_VALUE: memcpy:s <- $r1
	//DEBUG_VALUE: memcpy:src <- $r1
	//DEBUG_VALUE: memcpy:d <- $r0
	//DEBUG_VALUE: memcpy:dest <- $r0
	add r1, r1, r5
.Ltmp20:
	//DEBUG_VALUE: memcpy:body_len <- $r4
	//DEBUG_VALUE: memcpy:sw <- $r1
	and r5, r4, 1073741823
	//DEBUG_VALUE: __memcpy_wram_4align:dw <- $r3
	//DEBUG_VALUE: i <- 0
	//DEBUG_VALUE: __memcpy_wram_4align:sw <- $r1
	//DEBUG_VALUE: __memcpy_wram_4align:len <- [DW_OP_constu 2, DW_OP_shl, DW_OP_stack_value] $r4
	//DEBUG_VALUE: __memcpy_wram_4align:src <- $r1
	//DEBUG_VALUE: __memcpy_wram_4align:dest <- $r3
	.loc	2 60 9 is_stmt 1                // uPIMulator_frontend/sdk/stdlib/memcpy.c:60:9
	jeq r5, 0, .LBB1_12
.Ltmp21:
// %bb.10:
	//DEBUG_VALUE: memcpy:body <- $r6
	//DEBUG_VALUE: __memcpy_wram_4align:len <- [DW_OP_constu 2, DW_OP_shl, DW_OP_stack_value] $r4
	//DEBUG_VALUE: memcpy:body_len <- $r4
	//DEBUG_VALUE: __memcpy_wram_4align:dest <- $r3
	//DEBUG_VALUE: __memcpy_wram_4align:dw <- $r3
	//DEBUG_VALUE: memcpy:dw <- $r3
	//DEBUG_VALUE: memcpy:head <- $r3
	//DEBUG_VALUE: memcpy:tail <- $r2
	//DEBUG_VALUE: __memcpy_wram_4align:src <- $r1
	//DEBUG_VALUE: __memcpy_wram_4align:sw <- $r1
	//DEBUG_VALUE: memcpy:sw <- $r1
	//DEBUG_VALUE: memcpy:d <- $r0
	//DEBUG_VALUE: memcpy:dest <- $r0
	//DEBUG_VALUE: i <- 0
	.loc	2 0 9 is_stmt 0                 // uPIMulator_frontend/sdk/stdlib/memcpy.c:0:9
	move r6, r1
.Ltmp22:
	move r7, r3
.Ltmp23:
.LBB1_11:                               // =>This Inner Loop Header: Depth=1
	//DEBUG_VALUE: __memcpy_wram_4align:len <- [DW_OP_constu 2, DW_OP_shl, DW_OP_stack_value] $r4
	//DEBUG_VALUE: memcpy:body_len <- $r4
	//DEBUG_VALUE: __memcpy_wram_4align:dest <- $r3
	//DEBUG_VALUE: __memcpy_wram_4align:dw <- $r3
	//DEBUG_VALUE: memcpy:dw <- $r3
	//DEBUG_VALUE: memcpy:head <- $r3
	//DEBUG_VALUE: memcpy:tail <- $r2
	//DEBUG_VALUE: __memcpy_wram_4align:src <- $r1
	//DEBUG_VALUE: __memcpy_wram_4align:sw <- $r1
	//DEBUG_VALUE: memcpy:sw <- $r1
	//DEBUG_VALUE: memcpy:d <- $r0
	//DEBUG_VALUE: memcpy:dest <- $r0
	//DEBUG_VALUE: i <- undef
	.loc	2 18 17 is_stmt 1               // uPIMulator_frontend/sdk/stdlib/memcpy.c:18:17
	lw r8, r6, 0
	.loc	2 18 15 is_stmt 0               // uPIMulator_frontend/sdk/stdlib/memcpy.c:18:15
	sw r7, 0, r8
.Ltmp24:
	//DEBUG_VALUE: i <- [DW_OP_plus_uconst 1, DW_OP_stack_value] undef
	.loc	2 17 28 is_stmt 1               // uPIMulator_frontend/sdk/stdlib/memcpy.c:17:28
	add r7, r7, 4
	add r6, r6, 4
	add r5, r5, -1, nz, .LBB1_11
.Ltmp25:
.LBB1_12:
	//DEBUG_VALUE: memcpy:body_len <- $r4
	//DEBUG_VALUE: memcpy:dw <- $r3
	//DEBUG_VALUE: memcpy:head <- $r3
	//DEBUG_VALUE: memcpy:tail <- $r2
	//DEBUG_VALUE: memcpy:sw <- $r1
	//DEBUG_VALUE: memcpy:d <- $r0
	//DEBUG_VALUE: memcpy:dest <- $r0
	.loc	2 65 24                         // uPIMulator_frontend/sdk/stdlib/memcpy.c:65:24
	lsl_add r3, r3, r4, 2
.Ltmp26:
	//DEBUG_VALUE: memcpy:s <- undef
	//DEBUG_VALUE: memcpy:d <- $r3
	//DEBUG_VALUE: i <- 0
	//DEBUG_VALUE: memcpy:tail_len <- $r2
	.loc	2 67 30                         // uPIMulator_frontend/sdk/stdlib/memcpy.c:67:30
	sub r2, r2, r3, z, .LBB1_15
.Ltmp27:
// %bb.13:
	//DEBUG_VALUE: memcpy:body_len <- $r4
	//DEBUG_VALUE: memcpy:d <- $r3
	//DEBUG_VALUE: memcpy:sw <- $r1
	//DEBUG_VALUE: memcpy:dest <- $r0
	//DEBUG_VALUE: i <- 0
	.loc	2 0 30 is_stmt 0                // uPIMulator_frontend/sdk/stdlib/memcpy.c:0:30
	lsl_add r1, r1, r4, 2
.Ltmp28:
	//DEBUG_VALUE: memcpy:s <- $r1
	move r4, 0
.Ltmp29:
.LBB1_14:                               // =>This Inner Loop Header: Depth=1
	//DEBUG_VALUE: memcpy:d <- $r3
	//DEBUG_VALUE: memcpy:s <- $r1
	//DEBUG_VALUE: memcpy:dest <- $r0
	//DEBUG_VALUE: i <- $r4
	.loc	2 70 20 is_stmt 1               // uPIMulator_frontend/sdk/stdlib/memcpy.c:70:20
	add r5, r1, r4
	lbs r5, r5, 0
	.loc	2 70 18 is_stmt 0               // uPIMulator_frontend/sdk/stdlib/memcpy.c:70:18
	add r6, r3, r4
	.loc	2 69 44 is_stmt 1               // uPIMulator_frontend/sdk/stdlib/memcpy.c:69:44
	add r4, r4, 1
.Ltmp30:
	//DEBUG_VALUE: i <- $r4
	.loc	2 70 18                         // uPIMulator_frontend/sdk/stdlib/memcpy.c:70:18
	sb r6, 0, r5
.Ltmp31:
	.loc	2 69 9                          // uPIMulator_frontend/sdk/stdlib/memcpy.c:69:9
	jltu r4, r2, .LBB1_14
.Ltmp32:
.LBB1_15:
	//DEBUG_VALUE: memcpy:d <- $r3
	//DEBUG_VALUE: memcpy:dest <- $r0
	.loc	2 73 5                          // uPIMulator_frontend/sdk/stdlib/memcpy.c:73:5
	jump r23
.Ltmp33:
.Lfunc_end1:
	.size	memcpy, .Lfunc_end1-memcpy
	.cfi_endproc
	.file	3 "/root" "uPIMulator_frontend/sdk/stdlib/stddef.h"
	.section	.stack_sizes,"o",@progbits,.text.memcpy
	.long	.Lfunc_begin1
	.byte	0
	.section	.text.memcpy,"ax",@progbits
                                        // -- End function
	.section	.text.__memcpy_mw,"ax",@progbits
	.globl	__memcpy_mw                     // -- Begin function __memcpy_mw
	.type	__memcpy_mw,@function
__memcpy_mw:                            // @__memcpy_mw
.Lfunc_begin2:
	.loc	2 78 0                          // uPIMulator_frontend/sdk/stdlib/memcpy.c:78:0
	.cfi_startproc
// %bb.0:
	//DEBUG_VALUE: __memcpy_mw:dest <- $r0
	//DEBUG_VALUE: __memcpy_mw:src <- $r1
	//DEBUG_VALUE: __memcpy_mw:len <- $r2
	.cfi_def_cfa_offset -48
	.cfi_offset 23, -8
	.cfi_offset 22, -4
	sd r22, 40, d22
	add r22, r22, 48
	.cfi_offset 15, -24
	.cfi_offset 14, -20
	sd r22, -24, d14
	.cfi_offset 17, -32
	.cfi_offset 16, -28
	sd r22, -32, d16
	.cfi_offset 19, -40
	.cfi_offset 18, -36
	sd r22, -40, d18
	.cfi_offset 21, -48
	.cfi_offset 20, -44
	sd r22, -48, d20
	move r15, r2
	move r16, r1
	move r14, r0
.Ltmp34:
	//DEBUG_VALUE: __memcpy_mw:destCache <- undef
	//DEBUG_VALUE: __memcpy_mw:len <- $r15
	//DEBUG_VALUE: __memcpy_mw:src <- $r16
	//DEBUG_VALUE: __memcpy_mw:dest <- $r14
	.loc	2 82 40 prologue_end            // uPIMulator_frontend/sdk/stdlib/memcpy.c:82:40
	and r18, r16, 7
.Ltmp35:
	//DEBUG_VALUE: __memcpy_mw:srcOff <- $r18
	//DEBUG_VALUE: __memcpy_mw:idx <- 0
	//DEBUG_VALUE: __memcpy_mw:remaining <- undef
	//DEBUG_VALUE: __memcpy_mw:destOff <- $r19
	.loc	2 83 42                         // uPIMulator_frontend/sdk/stdlib/memcpy.c:83:42
	and r19, r14, 7, z, .LBB2_1
.Ltmp36:
// %bb.2:
	//DEBUG_VALUE: __memcpy_mw:srcOff <- $r18
	//DEBUG_VALUE: __memcpy_mw:src <- $r16
	//DEBUG_VALUE: __memcpy_mw:len <- $r15
	//DEBUG_VALUE: __memcpy_mw:dest <- $r14
	//DEBUG_VALUE: __memcpy_mw:idx <- 0
	.loc	2 89 23                         // uPIMulator_frontend/sdk/stdlib/memcpy.c:89:23
	sub r0, 8, r19
	move r17, r15
	jgtu r0, r15, .LBB2_4
.Ltmp37:
// %bb.3:
	//DEBUG_VALUE: __memcpy_mw:srcOff <- $r18
	//DEBUG_VALUE: __memcpy_mw:src <- $r16
	//DEBUG_VALUE: __memcpy_mw:len <- $r15
	//DEBUG_VALUE: __memcpy_mw:dest <- $r14
	//DEBUG_VALUE: __memcpy_mw:idx <- 0
	move r17, r0
.Ltmp38:
.LBB2_4:
	//DEBUG_VALUE: __memcpy_mw:srcOff <- $r18
	//DEBUG_VALUE: __memcpy_mw:src <- $r16
	//DEBUG_VALUE: __memcpy_mw:len <- $r15
	//DEBUG_VALUE: __memcpy_mw:dest <- $r14
	//DEBUG_VALUE: __memcpy_mw:idx <- 0
	//DEBUG_VALUE: part <- $r17
	.loc	2 0 23 is_stmt 0                // uPIMulator_frontend/sdk/stdlib/memcpy.c:0:23
	add r20, r22, -16
.Ltmp39:
	//DEBUG_VALUE: mram_read:nb_of_bytes <- 8
	//DEBUG_VALUE: mram_read:from <- $r14
	.file	4 "/root" "uPIMulator_frontend/sdk/syslib/mram.h"
	.loc	4 35 24 is_stmt 1               // uPIMulator_frontend/sdk/syslib/mram.h:35:24
	ldma r20, r14, 0
.Ltmp40:
	.loc	2 91 26                         // uPIMulator_frontend/sdk/stdlib/memcpy.c:91:26
	or r0, r20, r19
	.loc	2 91 9 is_stmt 0                // uPIMulator_frontend/sdk/stdlib/memcpy.c:91:9
	move r1, r16
	move r2, r17
	call r23, memcpy
.Ltmp41:
	//DEBUG_VALUE: mram_write:nb_of_bytes <- 8
	//DEBUG_VALUE: mram_write:to <- $r14
	.loc	4 53 24 is_stmt 1               // uPIMulator_frontend/sdk/syslib/mram.h:53:24
	sdma r20, r14, 0
.Ltmp42:
	.loc	2 93 19                         // uPIMulator_frontend/sdk/stdlib/memcpy.c:93:19
	sub r15, r15, r17
.Ltmp43:
	//DEBUG_VALUE: mram_write:from <- [DW_OP_constu 16, DW_OP_minus, DW_OP_stack_value] $r22
	//DEBUG_VALUE: mram_read:to <- [DW_OP_constu 16, DW_OP_minus, DW_OP_stack_value] $r22
	//DEBUG_VALUE: __memcpy_mw:idx <- $r17
	//DEBUG_VALUE: __memcpy_mw:remaining <- $r15
	//DEBUG_VALUE: __memcpy_mw:remaining <- $r15
	//DEBUG_VALUE: __memcpy_mw:idx <- $r17
	.loc	2 97 9                          // uPIMulator_frontend/sdk/stdlib/memcpy.c:97:9
	jneq r18, r19, .LBB2_6
.Ltmp44:
.LBB2_8:
	//DEBUG_VALUE: __memcpy_mw:srcOff <- $r18
	//DEBUG_VALUE: __memcpy_mw:idx <- $r17
	//DEBUG_VALUE: __memcpy_mw:src <- $r16
	//DEBUG_VALUE: __memcpy_mw:remaining <- $r15
	//DEBUG_VALUE: __memcpy_mw:dest <- $r14
	.loc	2 98 9                          // uPIMulator_frontend/sdk/stdlib/memcpy.c:98:9
	jltu r15, 8, .LBB2_10
.Ltmp45:
.LBB2_9:                                // =>This Inner Loop Header: Depth=1
	//DEBUG_VALUE: __memcpy_mw:srcOff <- $r18
	//DEBUG_VALUE: __memcpy_mw:idx <- $r17
	//DEBUG_VALUE: __memcpy_mw:src <- $r16
	//DEBUG_VALUE: __memcpy_mw:remaining <- $r15
	//DEBUG_VALUE: __memcpy_mw:dest <- $r14
	//DEBUG_VALUE: __memcpy_mw:remaining <- $r15
	//DEBUG_VALUE: __memcpy_mw:idx <- $r17
	.loc	2 99 40                         // uPIMulator_frontend/sdk/stdlib/memcpy.c:99:40
	add r0, r16, r17
.Ltmp46:
	//DEBUG_VALUE: mram_write:nb_of_bytes <- 8
	//DEBUG_VALUE: mram_write:to <- undef
	//DEBUG_VALUE: mram_write:from <- undef
	.loc	4 53 24                         // uPIMulator_frontend/sdk/syslib/mram.h:53:24
	add r1, r14, r17
	sdma r0, r1, 0
.Ltmp47:
	.loc	2 101 17                        // uPIMulator_frontend/sdk/stdlib/memcpy.c:101:17
	add r17, r17, 8
.Ltmp48:
	//DEBUG_VALUE: __memcpy_mw:idx <- $r17
	.loc	2 100 23                        // uPIMulator_frontend/sdk/stdlib/memcpy.c:100:23
	add r15, r15, -8
.Ltmp49:
	//DEBUG_VALUE: __memcpy_mw:remaining <- $r15
	.loc	2 98 9                          // uPIMulator_frontend/sdk/stdlib/memcpy.c:98:9
	jgtu r15, 7, .LBB2_9
	jump .LBB2_10
.Ltmp50:
.LBB2_1:
	//DEBUG_VALUE: __memcpy_mw:srcOff <- $r18
	//DEBUG_VALUE: __memcpy_mw:src <- $r16
	//DEBUG_VALUE: __memcpy_mw:len <- $r15
	//DEBUG_VALUE: __memcpy_mw:dest <- $r14
	//DEBUG_VALUE: __memcpy_mw:idx <- 0
	.loc	2 0 9 is_stmt 0                 // uPIMulator_frontend/sdk/stdlib/memcpy.c:0:9
	move r17, 0
.Ltmp51:
	//DEBUG_VALUE: __memcpy_mw:remaining <- $r15
	//DEBUG_VALUE: __memcpy_mw:idx <- $r17
	.loc	2 97 9 is_stmt 1                // uPIMulator_frontend/sdk/stdlib/memcpy.c:97:9
	jeq r18, r19, .LBB2_8
.Ltmp52:
.LBB2_6:
	//DEBUG_VALUE: __memcpy_mw:srcOff <- $r18
	//DEBUG_VALUE: __memcpy_mw:idx <- $r17
	//DEBUG_VALUE: __memcpy_mw:src <- $r16
	//DEBUG_VALUE: __memcpy_mw:remaining <- $r15
	//DEBUG_VALUE: __memcpy_mw:dest <- $r14
	.loc	2 104 9                         // uPIMulator_frontend/sdk/stdlib/memcpy.c:104:9
	jltu r15, 8, .LBB2_10
.Ltmp53:
.LBB2_7:                                // =>This Inner Loop Header: Depth=1
	//DEBUG_VALUE: __memcpy_mw:srcOff <- $r18
	//DEBUG_VALUE: __memcpy_mw:idx <- $r17
	//DEBUG_VALUE: __memcpy_mw:src <- $r16
	//DEBUG_VALUE: __memcpy_mw:remaining <- $r15
	//DEBUG_VALUE: __memcpy_mw:dest <- $r14
	//DEBUG_VALUE: __memcpy_mw:remaining <- $r15
	//DEBUG_VALUE: __memcpy_mw:idx <- $r17
	.loc	2 105 13                        // uPIMulator_frontend/sdk/stdlib/memcpy.c:105:13
	add r2, r16, r17
	lbu.u d0, r2, 1
	lbu.u d4, r2, 0
	lslx r3, r1, 8
	lsl_add r6, r3, r0, 8
	lbu.u d8, r2, 3
	lsl r7, r1, 8
	or r1, r7, r5
	or r0, r6, r4
	lbu.u d4, r2, 2
	lslx r3, r9, 8
	lsl_add r6, r3, r8, 8
	lsl r7, r9, 8
	or r5, r7, r5
	or r4, r6, r4
	lslx r3, r5, 16
	lbu.u d6, r2, 5
	lsl_add r8, r3, r4, 16
	lsl r9, r5, 16
	lbu.u d4, r2, 4
	lslx r3, r7, 8
	lsl_add r10, r3, r6, 8
	lbu.u d12, r2, 7
	lsl r11, r7, 8
	or r5, r11, r5
	or r4, r10, r4
	lbu.u d2, r2, 6
	lslx r6, r13, 8
	lsl_add r6, r6, r12, 8
	lsl r7, r13, 8
	or r3, r7, r3
	or r2, r6, r2
	lslx r6, r3, 16
	lsl_add r6, r6, r2, 16
	lsl r7, r3, 16
	or r3, r7, r5
	or r2, r6, r4
	move r5, 0
	or r1, r9, r1
	or r0, r8, r0
	move r4, r3
	or r1, r5, r1
	or r0, r4, r0
	sd r22, -16, d0
.Ltmp54:
	//DEBUG_VALUE: mram_write:nb_of_bytes <- 8
	//DEBUG_VALUE: mram_write:to <- undef
	.loc	4 53 24                         // uPIMulator_frontend/sdk/syslib/mram.h:53:24
	add r0, r14, r17
	add r1, r22, -16
	sdma r1, r0, 0
.Ltmp55:
	.loc	2 108 17                        // uPIMulator_frontend/sdk/stdlib/memcpy.c:108:17
	add r17, r17, 8
.Ltmp56:
	//DEBUG_VALUE: mram_write:from <- [DW_OP_constu 16, DW_OP_minus, DW_OP_stack_value] $r22
	//DEBUG_VALUE: __memcpy_mw:idx <- $r17
	.loc	2 107 23                        // uPIMulator_frontend/sdk/stdlib/memcpy.c:107:23
	add r15, r15, -8
.Ltmp57:
	//DEBUG_VALUE: __memcpy_mw:remaining <- $r15
	.loc	2 0 23 is_stmt 0                // uPIMulator_frontend/sdk/stdlib/memcpy.c:0:23
	jgtu r15, 7, .LBB2_7
.Ltmp58:
.LBB2_10:
	//DEBUG_VALUE: __memcpy_mw:srcOff <- $r18
	//DEBUG_VALUE: __memcpy_mw:idx <- $r17
	//DEBUG_VALUE: __memcpy_mw:src <- $r16
	//DEBUG_VALUE: __memcpy_mw:remaining <- $r15
	//DEBUG_VALUE: __memcpy_mw:dest <- $r14
	//DEBUG_VALUE: __memcpy_mw:remaining <- $r15
	//DEBUG_VALUE: __memcpy_mw:idx <- $r17
	.loc	2 112 9 is_stmt 1               // uPIMulator_frontend/sdk/stdlib/memcpy.c:112:9
	jeq r15, 0, .LBB2_12
.Ltmp59:
// %bb.11:
	//DEBUG_VALUE: __memcpy_mw:srcOff <- $r18
	//DEBUG_VALUE: __memcpy_mw:idx <- $r17
	//DEBUG_VALUE: __memcpy_mw:src <- $r16
	//DEBUG_VALUE: __memcpy_mw:remaining <- $r15
	//DEBUG_VALUE: __memcpy_mw:dest <- $r14
	.loc	2 113 24                        // uPIMulator_frontend/sdk/stdlib/memcpy.c:113:24
	add r19, r14, r17
	add r18, r22, -16
.Ltmp60:
	//DEBUG_VALUE: mram_read:nb_of_bytes <- 8
	//DEBUG_VALUE: mram_read:from <- $r19
	.loc	4 35 24                         // uPIMulator_frontend/sdk/syslib/mram.h:35:24
	ldma r18, r19, 0
.Ltmp61:
	.loc	2 114 31                        // uPIMulator_frontend/sdk/stdlib/memcpy.c:114:31
	add r1, r16, r17
	.loc	2 114 9 is_stmt 0               // uPIMulator_frontend/sdk/stdlib/memcpy.c:114:9
	move r0, r18
	move r2, r15
	call r23, memcpy
.Ltmp62:
	//DEBUG_VALUE: mram_write:nb_of_bytes <- 8
	//DEBUG_VALUE: mram_write:to <- $r19
	.loc	4 53 24 is_stmt 1               // uPIMulator_frontend/sdk/syslib/mram.h:53:24
	sdma r18, r19, 0
.Ltmp63:
	//DEBUG_VALUE: mram_write:from <- [DW_OP_constu 16, DW_OP_minus, DW_OP_stack_value] $r22
	//DEBUG_VALUE: mram_read:to <- [DW_OP_constu 16, DW_OP_minus, DW_OP_stack_value] $r22
.LBB2_12:
	//DEBUG_VALUE: __memcpy_mw:idx <- $r17
	//DEBUG_VALUE: __memcpy_mw:src <- $r16
	//DEBUG_VALUE: __memcpy_mw:remaining <- $r15
	//DEBUG_VALUE: __memcpy_mw:dest <- $r14
	.loc	2 118 5                         // uPIMulator_frontend/sdk/stdlib/memcpy.c:118:5
	move r0, r14
	ld d20, r22, -48
	ld d18, r22, -40
	ld d16, r22, -32
.Ltmp64:
	ld d14, r22, -24
.Ltmp65:
	ld d22, r22, -8
	jump r23
.Ltmp66:
.Lfunc_end2:
	.size	__memcpy_mw, .Lfunc_end2-__memcpy_mw
	.cfi_endproc
	.section	.stack_sizes,"o",@progbits,.text.__memcpy_mw
	.long	.Lfunc_begin2
	.byte	48
	.section	.text.__memcpy_mw,"ax",@progbits
                                        // -- End function
	.section	.text.__memcpy_wm,"ax",@progbits
	.globl	__memcpy_wm                     // -- Begin function __memcpy_wm
	.type	__memcpy_wm,@function
__memcpy_wm:                            // @__memcpy_wm
.Lfunc_begin3:
	.loc	2 123 0                         // uPIMulator_frontend/sdk/stdlib/memcpy.c:123:0
	.cfi_startproc
// %bb.0:
	//DEBUG_VALUE: __memcpy_wm:dest <- $r0
	//DEBUG_VALUE: __memcpy_wm:src <- $r1
	//DEBUG_VALUE: __memcpy_wm:len <- $r2
	.cfi_def_cfa_offset -40
	.cfi_offset 23, -8
	.cfi_offset 22, -4
	sd r22, 32, d22
	add r22, r22, 40
	.cfi_offset 15, -24
	.cfi_offset 14, -20
	sd r22, -24, d14
	.cfi_offset 17, -32
	.cfi_offset 16, -28
	sd r22, -32, d16
	.cfi_offset 19, -40
	.cfi_offset 18, -36
	sd r22, -40, d18
	move r17, r2
	move r15, r1
	move r14, r0
.Ltmp67:
	//DEBUG_VALUE: __memcpy_wm:srcCache <- undef
	//DEBUG_VALUE: __memcpy_wm:len <- $r17
	//DEBUG_VALUE: __memcpy_wm:src <- $r15
	//DEBUG_VALUE: __memcpy_wm:dest <- $r14
	.loc	2 127 40 prologue_end           // uPIMulator_frontend/sdk/stdlib/memcpy.c:127:40
	and r18, r15, 7
.Ltmp68:
	//DEBUG_VALUE: __memcpy_wm:srcOff <- $r18
	.loc	2 132 19                        // uPIMulator_frontend/sdk/stdlib/memcpy.c:132:19
	sub r0, 8, r18
	.loc	2 128 42                        // uPIMulator_frontend/sdk/stdlib/memcpy.c:128:42
	and r19, r14, 7
.Ltmp69:
	//DEBUG_VALUE: __memcpy_wm:idx <- 0
	//DEBUG_VALUE: __memcpy_wm:remaining <- $r17
	//DEBUG_VALUE: __memcpy_wm:destOff <- $r19
	.loc	2 132 19                        // uPIMulator_frontend/sdk/stdlib/memcpy.c:132:19
	move r16, r17
	jgtu r0, r17, .LBB3_2
.Ltmp70:
// %bb.1:
	//DEBUG_VALUE: __memcpy_wm:destOff <- $r19
	//DEBUG_VALUE: __memcpy_wm:srcOff <- $r18
	//DEBUG_VALUE: __memcpy_wm:remaining <- $r17
	//DEBUG_VALUE: __memcpy_wm:len <- $r17
	//DEBUG_VALUE: __memcpy_wm:src <- $r15
	//DEBUG_VALUE: __memcpy_wm:dest <- $r14
	//DEBUG_VALUE: __memcpy_wm:idx <- 0
	move r16, r0
.Ltmp71:
.LBB3_2:
	//DEBUG_VALUE: __memcpy_wm:destOff <- $r19
	//DEBUG_VALUE: __memcpy_wm:srcOff <- $r18
	//DEBUG_VALUE: __memcpy_wm:remaining <- $r17
	//DEBUG_VALUE: __memcpy_wm:len <- $r17
	//DEBUG_VALUE: __memcpy_wm:src <- $r15
	//DEBUG_VALUE: __memcpy_wm:dest <- $r14
	//DEBUG_VALUE: __memcpy_wm:idx <- 0
	//DEBUG_VALUE: __memcpy_wm:part <- $r16
	.loc	2 0 19 is_stmt 0                // uPIMulator_frontend/sdk/stdlib/memcpy.c:0:19
	add r0, r22, -16
.Ltmp72:
	//DEBUG_VALUE: mram_read:nb_of_bytes <- 8
	//DEBUG_VALUE: mram_read:from <- $r15
	.loc	4 35 24 is_stmt 1               // uPIMulator_frontend/sdk/syslib/mram.h:35:24
	ldma r0, r15, 0
.Ltmp73:
	.loc	2 135 27                        // uPIMulator_frontend/sdk/stdlib/memcpy.c:135:27
	or r1, r0, r18
	.loc	2 135 5 is_stmt 0               // uPIMulator_frontend/sdk/stdlib/memcpy.c:135:5
	move r0, r14
	move r2, r16
	call r23, memcpy
.Ltmp74:
	.loc	2 136 15 is_stmt 1              // uPIMulator_frontend/sdk/stdlib/memcpy.c:136:15
	sub r2, r17, r16
	//DEBUG_VALUE: mram_read:to <- [DW_OP_constu 16, DW_OP_minus, DW_OP_stack_value] $r22
.Ltmp75:
	//DEBUG_VALUE: __memcpy_wm:idx <- $r16
	//DEBUG_VALUE: __memcpy_wm:remaining <- $r2
	.loc	2 139 9                         // uPIMulator_frontend/sdk/stdlib/memcpy.c:139:9
	jneq r18, r19, .LBB3_3
.Ltmp76:
// %bb.5:
	//DEBUG_VALUE: __memcpy_wm:destOff <- $r19
	//DEBUG_VALUE: __memcpy_wm:srcOff <- $r18
	//DEBUG_VALUE: __memcpy_wm:len <- $r17
	//DEBUG_VALUE: __memcpy_wm:idx <- $r16
	//DEBUG_VALUE: __memcpy_wm:part <- $r16
	//DEBUG_VALUE: __memcpy_wm:src <- $r15
	//DEBUG_VALUE: __memcpy_wm:dest <- $r14
	//DEBUG_VALUE: __memcpy_wm:remaining <- $r2
	.loc	2 140 9                         // uPIMulator_frontend/sdk/stdlib/memcpy.c:140:9
	jltu r2, 8, .LBB3_7
.Ltmp77:
.LBB3_6:                                // =>This Inner Loop Header: Depth=1
	//DEBUG_VALUE: __memcpy_wm:destOff <- $r19
	//DEBUG_VALUE: __memcpy_wm:srcOff <- $r18
	//DEBUG_VALUE: __memcpy_wm:len <- $r17
	//DEBUG_VALUE: __memcpy_wm:idx <- $r16
	//DEBUG_VALUE: __memcpy_wm:src <- $r15
	//DEBUG_VALUE: __memcpy_wm:dest <- $r14
	//DEBUG_VALUE: __memcpy_wm:remaining <- $r2
	//DEBUG_VALUE: __memcpy_wm:remaining <- $r2
	//DEBUG_VALUE: __memcpy_wm:idx <- $r16
	.loc	2 141 39                        // uPIMulator_frontend/sdk/stdlib/memcpy.c:141:39
	add r0, r15, r16
.Ltmp78:
	//DEBUG_VALUE: mram_read:nb_of_bytes <- 8
	//DEBUG_VALUE: mram_read:to <- undef
	//DEBUG_VALUE: mram_read:from <- undef
	.loc	4 35 24                         // uPIMulator_frontend/sdk/syslib/mram.h:35:24
	add r1, r14, r16
	ldma r1, r0, 0
.Ltmp79:
	.loc	2 143 17                        // uPIMulator_frontend/sdk/stdlib/memcpy.c:143:17
	add r16, r16, 8
.Ltmp80:
	//DEBUG_VALUE: __memcpy_wm:idx <- $r16
	.loc	2 142 23                        // uPIMulator_frontend/sdk/stdlib/memcpy.c:142:23
	add r2, r2, -8
.Ltmp81:
	//DEBUG_VALUE: __memcpy_wm:remaining <- $r2
	.loc	2 140 9                         // uPIMulator_frontend/sdk/stdlib/memcpy.c:140:9
	jgtu r2, 7, .LBB3_6
	jump .LBB3_7
.Ltmp82:
.LBB3_3:
	//DEBUG_VALUE: __memcpy_wm:destOff <- $r19
	//DEBUG_VALUE: __memcpy_wm:srcOff <- $r18
	//DEBUG_VALUE: __memcpy_wm:len <- $r17
	//DEBUG_VALUE: __memcpy_wm:idx <- $r16
	//DEBUG_VALUE: __memcpy_wm:part <- $r16
	//DEBUG_VALUE: __memcpy_wm:src <- $r15
	//DEBUG_VALUE: __memcpy_wm:dest <- $r14
	//DEBUG_VALUE: __memcpy_wm:remaining <- $r2
	.loc	2 146 9                         // uPIMulator_frontend/sdk/stdlib/memcpy.c:146:9
	jltu r2, 8, .LBB3_7
.Ltmp83:
.LBB3_4:                                // =>This Inner Loop Header: Depth=1
	//DEBUG_VALUE: __memcpy_wm:destOff <- $r19
	//DEBUG_VALUE: __memcpy_wm:srcOff <- $r18
	//DEBUG_VALUE: __memcpy_wm:len <- $r17
	//DEBUG_VALUE: __memcpy_wm:idx <- $r16
	//DEBUG_VALUE: __memcpy_wm:src <- $r15
	//DEBUG_VALUE: __memcpy_wm:dest <- $r14
	//DEBUG_VALUE: __memcpy_wm:remaining <- $r2
	//DEBUG_VALUE: __memcpy_wm:remaining <- $r2
	//DEBUG_VALUE: __memcpy_wm:idx <- $r16
	//DEBUG_VALUE: mram_read:from <- undef
	//DEBUG_VALUE: mram_read:nb_of_bytes <- 8
	.loc	4 35 24                         // uPIMulator_frontend/sdk/syslib/mram.h:35:24
	add r0, r15, r16
	add r1, r22, -16
	ldma r1, r0, 0
.Ltmp84:
	.loc	2 148 13                        // uPIMulator_frontend/sdk/stdlib/memcpy.c:148:13
	ld d0, r22, -16
	add r3, r14, r16
	sb r3, 4, r0
	sb r3, 0, r1
	lsr.u d4, r0, 24
	sb r3, 7, r5
	lsr.u d4, r0, 16
	sb r3, 6, r5
	lsr.u d4, r0, 8
	sb r3, 5, r5
	lsr r4, r1, 24
	sb r3, 3, r4
	lsr r4, r1, 16
	sb r3, 2, r4
	lsr r0, r1, 8
	sb r3, 1, r0
	.loc	2 150 17                        // uPIMulator_frontend/sdk/stdlib/memcpy.c:150:17
	add r16, r16, 8
.Ltmp85:
	//DEBUG_VALUE: mram_read:to <- [DW_OP_constu 16, DW_OP_minus, DW_OP_stack_value] $r22
	//DEBUG_VALUE: __memcpy_wm:idx <- $r16
	.loc	2 149 23                        // uPIMulator_frontend/sdk/stdlib/memcpy.c:149:23
	add r2, r2, -8
.Ltmp86:
	//DEBUG_VALUE: __memcpy_wm:remaining <- $r2
	.loc	2 0 23 is_stmt 0                // uPIMulator_frontend/sdk/stdlib/memcpy.c:0:23
	jgtu r2, 7, .LBB3_4
.Ltmp87:
.LBB3_7:
	//DEBUG_VALUE: __memcpy_wm:destOff <- $r19
	//DEBUG_VALUE: __memcpy_wm:srcOff <- $r18
	//DEBUG_VALUE: __memcpy_wm:len <- $r17
	//DEBUG_VALUE: __memcpy_wm:idx <- $r16
	//DEBUG_VALUE: __memcpy_wm:src <- $r15
	//DEBUG_VALUE: __memcpy_wm:dest <- $r14
	//DEBUG_VALUE: __memcpy_wm:remaining <- $r2
	//DEBUG_VALUE: __memcpy_wm:remaining <- $r2
	//DEBUG_VALUE: __memcpy_wm:idx <- $r16
	.loc	2 154 9 is_stmt 1               // uPIMulator_frontend/sdk/stdlib/memcpy.c:154:9
	jeq r2, 0, .LBB3_9
.Ltmp88:
// %bb.8:
	//DEBUG_VALUE: __memcpy_wm:destOff <- $r19
	//DEBUG_VALUE: __memcpy_wm:srcOff <- $r18
	//DEBUG_VALUE: __memcpy_wm:len <- $r17
	//DEBUG_VALUE: __memcpy_wm:idx <- $r16
	//DEBUG_VALUE: __memcpy_wm:src <- $r15
	//DEBUG_VALUE: __memcpy_wm:dest <- $r14
	//DEBUG_VALUE: __memcpy_wm:remaining <- $r2
	.loc	2 155 23                        // uPIMulator_frontend/sdk/stdlib/memcpy.c:155:23
	add r0, r15, r16
	add r1, r22, -16
.Ltmp89:
	//DEBUG_VALUE: mram_read:nb_of_bytes <- 8
	//DEBUG_VALUE: mram_read:from <- $r0
	.loc	4 35 24                         // uPIMulator_frontend/sdk/syslib/mram.h:35:24
	ldma r1, r0, 0
.Ltmp90:
	.loc	2 156 21                        // uPIMulator_frontend/sdk/stdlib/memcpy.c:156:21
	add r0, r14, r16
.Ltmp91:
	.loc	2 156 9 is_stmt 0               // uPIMulator_frontend/sdk/stdlib/memcpy.c:156:9
	call r23, memcpy
.Ltmp92:
	//DEBUG_VALUE: mram_read:to <- [DW_OP_constu 16, DW_OP_minus, DW_OP_stack_value] $r22
.LBB3_9:
	//DEBUG_VALUE: __memcpy_wm:destOff <- $r19
	//DEBUG_VALUE: __memcpy_wm:srcOff <- $r18
	//DEBUG_VALUE: __memcpy_wm:len <- $r17
	//DEBUG_VALUE: __memcpy_wm:idx <- $r16
	//DEBUG_VALUE: __memcpy_wm:src <- $r15
	//DEBUG_VALUE: __memcpy_wm:dest <- $r14
	//DEBUG_VALUE: __memcpy_wm:remaining <- $r2
	.loc	2 159 5 is_stmt 1               // uPIMulator_frontend/sdk/stdlib/memcpy.c:159:5
	move r0, r14
	ld d18, r22, -40
.Ltmp93:
	ld d16, r22, -32
.Ltmp94:
	ld d14, r22, -24
.Ltmp95:
	ld d22, r22, -8
	jump r23
.Ltmp96:
.Lfunc_end3:
	.size	__memcpy_wm, .Lfunc_end3-__memcpy_wm
	.cfi_endproc
	.section	.stack_sizes,"o",@progbits,.text.__memcpy_wm
	.long	.Lfunc_begin3
	.byte	40
	.section	.text.__memcpy_wm,"ax",@progbits
                                        // -- End function
	.section	.text.__memcpy_mm,"ax",@progbits
	.globl	__memcpy_mm                     // -- Begin function __memcpy_mm
	.type	__memcpy_mm,@function
__memcpy_mm:                            // @__memcpy_mm
.Lfunc_begin4:
	.loc	2 164 0                         // uPIMulator_frontend/sdk/stdlib/memcpy.c:164:0
	.cfi_startproc
// %bb.0:
	//DEBUG_VALUE: __memcpy_mm:dest <- $r0
	//DEBUG_VALUE: __memcpy_mm:src <- $r1
	//DEBUG_VALUE: __memcpy_mm:len <- $r2
	.cfi_def_cfa_offset -72
	.cfi_offset 23, -8
	.cfi_offset 22, -4
	sd r22, 64, d22
	add r22, r22, 72
	.cfi_offset 15, -48
	.cfi_offset 14, -44
	sd r22, -48, d14
	.cfi_offset 17, -56
	.cfi_offset 16, -52
	sd r22, -56, d16
	.cfi_offset 19, -64
	.cfi_offset 18, -60
	sd r22, -64, d18
	.cfi_offset 21, -72
	.cfi_offset 20, -68
	sd r22, -72, d20
	move r21, r1
	move r20, r0
.Ltmp97:
	//DEBUG_VALUE: __memcpy_mm:destCache <- undef
	//DEBUG_VALUE: __memcpy_mm:srcCache <- undef
	//DEBUG_VALUE: __memcpy_mm:src <- $r21
	//DEBUG_VALUE: __memcpy_mm:dest <- $r20
	.loc	2 170 40 prologue_end           // uPIMulator_frontend/sdk/stdlib/memcpy.c:170:40
	and r3, r21, 7
.Ltmp98:
	//DEBUG_VALUE: __memcpy_mm:srcOff <- $r3
	.loc	2 171 42                        // uPIMulator_frontend/sdk/stdlib/memcpy.c:171:42
	and r14, r20, 7
.Ltmp99:
	//DEBUG_VALUE: __memcpy_mm:remaining <- undef
	//DEBUG_VALUE: __memcpy_mm:destOff <- [DW_OP_constu 7, DW_OP_and, DW_OP_stack_value] $r20
	.loc	2 0 42 is_stmt 0                // uPIMulator_frontend/sdk/stdlib/memcpy.c:0:42
	move r15, r2
.Ltmp100:
	//DEBUG_VALUE: __memcpy_mm:len <- $r15
	.loc	2 174 9 is_stmt 1               // uPIMulator_frontend/sdk/stdlib/memcpy.c:174:9
	jneq r3, r14, .LBB4_10
.Ltmp101:
// %bb.1:
	//DEBUG_VALUE: __memcpy_mm:src <- $r21
	//DEBUG_VALUE: __memcpy_mm:destOff <- [DW_OP_constu 7, DW_OP_and, DW_OP_stack_value] $r20
	//DEBUG_VALUE: __memcpy_mm:dest <- $r20
	//DEBUG_VALUE: __memcpy_mm:len <- $r15
	//DEBUG_VALUE: __memcpy_mm:srcOff <- $r3
	//DEBUG_VALUE: idx <- 0
	.loc	2 177 13                        // uPIMulator_frontend/sdk/stdlib/memcpy.c:177:13
	jeq r3, 0, .LBB4_2
.Ltmp102:
// %bb.3:
	//DEBUG_VALUE: __memcpy_mm:src <- $r21
	//DEBUG_VALUE: __memcpy_mm:destOff <- [DW_OP_constu 7, DW_OP_and, DW_OP_stack_value] $r20
	//DEBUG_VALUE: __memcpy_mm:dest <- $r20
	//DEBUG_VALUE: __memcpy_mm:len <- $r15
	//DEBUG_VALUE: __memcpy_mm:srcOff <- $r3
	//DEBUG_VALUE: idx <- 0
	.loc	2 178 27                        // uPIMulator_frontend/sdk/stdlib/memcpy.c:178:27
	sub r0, 8, r3
	move r18, r15
	jgtu r0, r15, .LBB4_5
.Ltmp103:
// %bb.4:
	//DEBUG_VALUE: __memcpy_mm:src <- $r21
	//DEBUG_VALUE: __memcpy_mm:destOff <- [DW_OP_constu 7, DW_OP_and, DW_OP_stack_value] $r20
	//DEBUG_VALUE: __memcpy_mm:dest <- $r20
	//DEBUG_VALUE: __memcpy_mm:len <- $r15
	//DEBUG_VALUE: __memcpy_mm:srcOff <- $r3
	//DEBUG_VALUE: idx <- 0
	move r18, r0
.Ltmp104:
.LBB4_5:
	//DEBUG_VALUE: __memcpy_mm:src <- $r21
	//DEBUG_VALUE: __memcpy_mm:destOff <- [DW_OP_constu 7, DW_OP_and, DW_OP_stack_value] $r20
	//DEBUG_VALUE: __memcpy_mm:dest <- $r20
	//DEBUG_VALUE: __memcpy_mm:len <- $r15
	//DEBUG_VALUE: __memcpy_mm:srcOff <- $r3
	//DEBUG_VALUE: idx <- 0
	//DEBUG_VALUE: part <- $r18
	.loc	2 0 27 is_stmt 0                // uPIMulator_frontend/sdk/stdlib/memcpy.c:0:27
	add r14, r22, -32
.Ltmp105:
	//DEBUG_VALUE: mram_read:nb_of_bytes <- 8
	//DEBUG_VALUE: mram_read:from <- $r20
	.loc	4 35 24 is_stmt 1               // uPIMulator_frontend/sdk/syslib/mram.h:35:24
	ldma r14, r20, 0
	add r1, r22, -40
.Ltmp106:
	//DEBUG_VALUE: mram_read:nb_of_bytes <- 8
	//DEBUG_VALUE: mram_read:to <- [DW_OP_constu 32, DW_OP_minus, DW_OP_stack_value] $r22
	//DEBUG_VALUE: mram_read:from <- $r21
	.loc	4 35 24 is_stmt 0               // uPIMulator_frontend/sdk/syslib/mram.h:35:24
	ldma r1, r21, 0
.Ltmp107:
	.loc	2 181 30 is_stmt 1              // uPIMulator_frontend/sdk/stdlib/memcpy.c:181:30
	or r0, r14, r3
	.loc	2 181 50 is_stmt 0              // uPIMulator_frontend/sdk/stdlib/memcpy.c:181:50
	or r1, r1, r3
	.loc	2 181 13                        // uPIMulator_frontend/sdk/stdlib/memcpy.c:181:13
	move r2, r18
	call r23, memcpy
.Ltmp108:
	//DEBUG_VALUE: mram_write:nb_of_bytes <- 8
	//DEBUG_VALUE: mram_write:to <- $r20
	.loc	4 53 24 is_stmt 1               // uPIMulator_frontend/sdk/syslib/mram.h:53:24
	sdma r14, r20, 0
.Ltmp109:
	.loc	2 183 23                        // uPIMulator_frontend/sdk/stdlib/memcpy.c:183:23
	sub r15, r15, r18
.Ltmp110:
	//DEBUG_VALUE: mram_read:to <- [DW_OP_constu 40, DW_OP_minus, DW_OP_stack_value] $r22
	//DEBUG_VALUE: mram_write:from <- [DW_OP_constu 32, DW_OP_minus, DW_OP_stack_value] $r22
	//DEBUG_VALUE: idx <- $r18
	//DEBUG_VALUE: __memcpy_mm:remaining <- $r15
	//DEBUG_VALUE: __memcpy_mm:remaining <- $r15
	//DEBUG_VALUE: idx <- $r18
	.loc	2 187 9                         // uPIMulator_frontend/sdk/stdlib/memcpy.c:187:9
	jltu r15, 8, .LBB4_8
.Ltmp111:
.LBB4_7:                                // =>This Inner Loop Header: Depth=1
	//DEBUG_VALUE: __memcpy_mm:src <- $r21
	//DEBUG_VALUE: __memcpy_mm:destOff <- [DW_OP_constu 7, DW_OP_and, DW_OP_stack_value] $r20
	//DEBUG_VALUE: __memcpy_mm:dest <- $r20
	//DEBUG_VALUE: idx <- $r18
	//DEBUG_VALUE: __memcpy_mm:remaining <- $r15
	//DEBUG_VALUE: __memcpy_mm:srcOff <- $r3
	//DEBUG_VALUE: __memcpy_mm:remaining <- $r15
	//DEBUG_VALUE: idx <- $r18
	//DEBUG_VALUE: mram_read:from <- undef
	//DEBUG_VALUE: mram_read:nb_of_bytes <- 8
	.loc	4 35 24                         // uPIMulator_frontend/sdk/syslib/mram.h:35:24
	add r0, r21, r18
	add r1, r22, -40
	ldma r1, r0, 0
.Ltmp112:
	//DEBUG_VALUE: mram_write:nb_of_bytes <- 8
	//DEBUG_VALUE: mram_write:to <- undef
	.loc	4 53 24                         // uPIMulator_frontend/sdk/syslib/mram.h:53:24
	add r0, r20, r18
	sdma r1, r0, 0
.Ltmp113:
	.loc	2 191 17                        // uPIMulator_frontend/sdk/stdlib/memcpy.c:191:17
	add r18, r18, 8
.Ltmp114:
	//DEBUG_VALUE: mram_write:from <- [DW_OP_constu 40, DW_OP_minus, DW_OP_stack_value] $r22
	//DEBUG_VALUE: mram_read:to <- [DW_OP_constu 40, DW_OP_minus, DW_OP_stack_value] $r22
	//DEBUG_VALUE: idx <- $r18
	.loc	2 190 23                        // uPIMulator_frontend/sdk/stdlib/memcpy.c:190:23
	add r15, r15, -8
.Ltmp115:
	//DEBUG_VALUE: __memcpy_mm:remaining <- $r15
	.loc	2 187 9                         // uPIMulator_frontend/sdk/stdlib/memcpy.c:187:9
	jgtu r15, 7, .LBB4_7
.Ltmp116:
.LBB4_8:
	//DEBUG_VALUE: __memcpy_mm:src <- $r21
	//DEBUG_VALUE: __memcpy_mm:destOff <- [DW_OP_constu 7, DW_OP_and, DW_OP_stack_value] $r20
	//DEBUG_VALUE: __memcpy_mm:dest <- $r20
	//DEBUG_VALUE: idx <- $r18
	//DEBUG_VALUE: __memcpy_mm:remaining <- $r15
	//DEBUG_VALUE: __memcpy_mm:srcOff <- $r3
	.loc	2 194 13                        // uPIMulator_frontend/sdk/stdlib/memcpy.c:194:13
	jeq r15, 0, .LBB4_28
.Ltmp117:
// %bb.9:
	//DEBUG_VALUE: __memcpy_mm:src <- $r21
	//DEBUG_VALUE: __memcpy_mm:destOff <- [DW_OP_constu 7, DW_OP_and, DW_OP_stack_value] $r20
	//DEBUG_VALUE: __memcpy_mm:dest <- $r20
	//DEBUG_VALUE: idx <- $r18
	//DEBUG_VALUE: __memcpy_mm:remaining <- $r15
	//DEBUG_VALUE: __memcpy_mm:srcOff <- $r3
	.loc	2 195 28                        // uPIMulator_frontend/sdk/stdlib/memcpy.c:195:28
	add r14, r20, r18
	add r17, r22, -32
.Ltmp118:
	//DEBUG_VALUE: mram_read:nb_of_bytes <- 8
	//DEBUG_VALUE: mram_read:from <- $r14
	.loc	4 35 24                         // uPIMulator_frontend/sdk/syslib/mram.h:35:24
	ldma r17, r14, 0
.Ltmp119:
	.loc	2 196 27                        // uPIMulator_frontend/sdk/stdlib/memcpy.c:196:27
	add r0, r21, r18
	add r1, r22, -40
.Ltmp120:
	//DEBUG_VALUE: mram_read:nb_of_bytes <- 8
	//DEBUG_VALUE: mram_read:to <- [DW_OP_constu 32, DW_OP_minus, DW_OP_stack_value] $r22
	//DEBUG_VALUE: mram_read:from <- $r0
	.loc	4 35 24                         // uPIMulator_frontend/sdk/syslib/mram.h:35:24
	ldma r1, r0, 0
.Ltmp121:
	.loc	2 197 13                        // uPIMulator_frontend/sdk/stdlib/memcpy.c:197:13
	move r0, r17
.Ltmp122:
	move r2, r15
	call r23, memcpy
.Ltmp123:
	//DEBUG_VALUE: mram_write:nb_of_bytes <- 8
	//DEBUG_VALUE: mram_write:to <- $r14
	.loc	4 53 24                         // uPIMulator_frontend/sdk/syslib/mram.h:53:24
	sdma r17, r14, 0
	//DEBUG_VALUE: mram_read:to <- [DW_OP_constu 40, DW_OP_minus, DW_OP_stack_value] $r22
.Ltmp124:
	//DEBUG_VALUE: mram_write:from <- [DW_OP_constu 32, DW_OP_minus, DW_OP_stack_value] $r22
	.loc	4 0 24 is_stmt 0                // uPIMulator_frontend/sdk/syslib/mram.h:0:24
	jump .LBB4_28
.Ltmp125:
.LBB4_10:
	//DEBUG_VALUE: __memcpy_mm:src <- $r21
	//DEBUG_VALUE: __memcpy_mm:destOff <- [DW_OP_constu 7, DW_OP_and, DW_OP_stack_value] $r20
	//DEBUG_VALUE: __memcpy_mm:dest <- $r20
	//DEBUG_VALUE: __memcpy_mm:len <- $r15
	//DEBUG_VALUE: __memcpy_mm:srcOff <- $r3
	//DEBUG_VALUE: srcIdx <- 0
	//DEBUG_VALUE: destIdx <- 0
	.loc	2 203 26 is_stmt 1              // uPIMulator_frontend/sdk/stdlib/memcpy.c:203:26
	move r0, r14
	jgtu r3, r14, .LBB4_12
.Ltmp126:
// %bb.11:
	//DEBUG_VALUE: __memcpy_mm:src <- $r21
	//DEBUG_VALUE: __memcpy_mm:destOff <- [DW_OP_constu 7, DW_OP_and, DW_OP_stack_value] $r20
	//DEBUG_VALUE: __memcpy_mm:dest <- $r20
	//DEBUG_VALUE: __memcpy_mm:len <- $r15
	//DEBUG_VALUE: __memcpy_mm:srcOff <- $r3
	//DEBUG_VALUE: destIdx <- 0
	//DEBUG_VALUE: srcIdx <- 0
	move r0, r3
.Ltmp127:
.LBB4_12:
	//DEBUG_VALUE: __memcpy_mm:src <- $r21
	//DEBUG_VALUE: __memcpy_mm:destOff <- [DW_OP_constu 7, DW_OP_and, DW_OP_stack_value] $r20
	//DEBUG_VALUE: __memcpy_mm:dest <- $r20
	//DEBUG_VALUE: __memcpy_mm:len <- $r15
	//DEBUG_VALUE: __memcpy_mm:srcOff <- $r3
	//DEBUG_VALUE: destIdx <- 0
	//DEBUG_VALUE: srcIdx <- 0
	sub r0, 8, r0
.Ltmp128:
	//DEBUG_VALUE: initLen <- undef
	.loc	2 205 13                        // uPIMulator_frontend/sdk/stdlib/memcpy.c:205:13
	jgeu r0, r15, .LBB4_13
.Ltmp129:
// %bb.14:
	//DEBUG_VALUE: __memcpy_mm:src <- $r21
	//DEBUG_VALUE: __memcpy_mm:destOff <- [DW_OP_constu 7, DW_OP_and, DW_OP_stack_value] $r20
	//DEBUG_VALUE: __memcpy_mm:dest <- $r20
	//DEBUG_VALUE: __memcpy_mm:len <- $r15
	//DEBUG_VALUE: __memcpy_mm:srcOff <- $r3
	//DEBUG_VALUE: destIdx <- 0
	//DEBUG_VALUE: srcIdx <- 0
	.loc	2 0 13 is_stmt 0                // uPIMulator_frontend/sdk/stdlib/memcpy.c:0:13
	add r0, r22, -40
.Ltmp130:
	//DEBUG_VALUE: mram_read:nb_of_bytes <- 8
	//DEBUG_VALUE: mram_read:from <- $r21
	.loc	4 35 24 is_stmt 1               // uPIMulator_frontend/sdk/syslib/mram.h:35:24
	ldma r0, r21, 0
.Ltmp131:
	//DEBUG_VALUE: mram_read:to <- [DW_OP_constu 40, DW_OP_minus, DW_OP_stack_value] $r22
	//DEBUG_VALUE: srcIdx <- 8
	.loc	2 216 13                        // uPIMulator_frontend/sdk/stdlib/memcpy.c:216:13
	jeq r14, 0, .LBB4_15
.Ltmp132:
// %bb.16:
	//DEBUG_VALUE: __memcpy_mm:src <- $r21
	//DEBUG_VALUE: __memcpy_mm:destOff <- [DW_OP_constu 7, DW_OP_and, DW_OP_stack_value] $r20
	//DEBUG_VALUE: __memcpy_mm:dest <- $r20
	//DEBUG_VALUE: __memcpy_mm:len <- $r15
	//DEBUG_VALUE: __memcpy_mm:srcOff <- $r3
	//DEBUG_VALUE: srcIdx <- 8
	//DEBUG_VALUE: destIdx <- 0
	.loc	2 217 40                        // uPIMulator_frontend/sdk/stdlib/memcpy.c:217:40
	add r0, r14, 7
	move r1, -1
.Ltmp133:
	//DEBUG_VALUE: mram_read:nb_of_bytes <- $r0
	//DEBUG_VALUE: mram_read:from <- $r20
	.loc	4 35 24                         // uPIMulator_frontend/sdk/syslib/mram.h:35:24
	lsr_add r1, r1, r0, 3
	add r0, r22, -32
.Ltmp134:
	lsl_add r1, r0, r1, 24
	ldma r1, r20, 0
.Ltmp135:
	//DEBUG_VALUE: mram_read:to <- [DW_OP_constu 32, DW_OP_minus, DW_OP_stack_value] $r22
	.loc	2 219 17                        // uPIMulator_frontend/sdk/stdlib/memcpy.c:219:17
	jgeu r3, r14, .LBB4_18
.Ltmp136:
// %bb.17:
	//DEBUG_VALUE: __memcpy_mm:src <- $r21
	//DEBUG_VALUE: __memcpy_mm:destOff <- [DW_OP_constu 7, DW_OP_and, DW_OP_stack_value] $r20
	//DEBUG_VALUE: __memcpy_mm:dest <- $r20
	//DEBUG_VALUE: __memcpy_mm:len <- $r15
	//DEBUG_VALUE: __memcpy_mm:srcOff <- $r3
	//DEBUG_VALUE: srcIdx <- 8
	//DEBUG_VALUE: destIdx <- 0
	.loc	2 220 47                        // uPIMulator_frontend/sdk/stdlib/memcpy.c:220:47
	sub r17, 8, r14
.Ltmp137:
	//DEBUG_VALUE: part <- $r17
	.loc	2 221 34                        // uPIMulator_frontend/sdk/stdlib/memcpy.c:221:34
	or r0, r0, r14
	add r1, r22, -40
	.loc	2 221 54 is_stmt 0              // uPIMulator_frontend/sdk/stdlib/memcpy.c:221:54
	or r1, r1, r3
	.loc	2 221 17                        // uPIMulator_frontend/sdk/stdlib/memcpy.c:221:17
	move r2, r17
	move r14, r3
	call r23, memcpy
.Ltmp138:
	.loc	2 0 17                          // uPIMulator_frontend/sdk/stdlib/memcpy.c:0:17
	move r3, r14
.Ltmp139:
	.loc	2 223 24 is_stmt 1              // uPIMulator_frontend/sdk/stdlib/memcpy.c:223:24
	add r3, r3, r17
.Ltmp140:
	//DEBUG_VALUE: __memcpy_mm:srcOff <- $r3
	.loc	2 0 24 is_stmt 0                // uPIMulator_frontend/sdk/stdlib/memcpy.c:0:24
	move r14, 8, true, .LBB4_19
.Ltmp141:
.LBB4_13:
	//DEBUG_VALUE: __memcpy_mm:src <- $r21
	//DEBUG_VALUE: __memcpy_mm:destOff <- [DW_OP_constu 7, DW_OP_and, DW_OP_stack_value] $r20
	//DEBUG_VALUE: __memcpy_mm:dest <- $r20
	//DEBUG_VALUE: __memcpy_mm:len <- $r15
	//DEBUG_VALUE: __memcpy_mm:srcOff <- $r3
	//DEBUG_VALUE: destIdx <- 0
	//DEBUG_VALUE: srcIdx <- 0
	add r16, r22, -32
.Ltmp142:
	//DEBUG_VALUE: mram_read:nb_of_bytes <- 8
	//DEBUG_VALUE: mram_read:from <- $r20
	.loc	4 35 24 is_stmt 1               // uPIMulator_frontend/sdk/syslib/mram.h:35:24
	ldma r16, r20, 0
	add r1, r22, -40
.Ltmp143:
	//DEBUG_VALUE: mram_read:nb_of_bytes <- 8
	//DEBUG_VALUE: mram_read:to <- [DW_OP_constu 32, DW_OP_minus, DW_OP_stack_value] $r22
	//DEBUG_VALUE: mram_read:from <- $r21
	.loc	4 35 24 is_stmt 0               // uPIMulator_frontend/sdk/syslib/mram.h:35:24
	ldma r1, r21, 0
.Ltmp144:
	.loc	2 208 30 is_stmt 1              // uPIMulator_frontend/sdk/stdlib/memcpy.c:208:30
	or r0, r16, r14
	.loc	2 208 50 is_stmt 0              // uPIMulator_frontend/sdk/stdlib/memcpy.c:208:50
	or r1, r1, r3
	.loc	2 208 13                        // uPIMulator_frontend/sdk/stdlib/memcpy.c:208:13
	move r2, r15
	call r23, memcpy
.Ltmp145:
	//DEBUG_VALUE: mram_write:nb_of_bytes <- 8
	//DEBUG_VALUE: mram_write:to <- $r20
	.loc	4 53 24 is_stmt 1               // uPIMulator_frontend/sdk/syslib/mram.h:53:24
	sdma r16, r20, 0
	//DEBUG_VALUE: mram_read:to <- [DW_OP_constu 40, DW_OP_minus, DW_OP_stack_value] $r22
.Ltmp146:
	//DEBUG_VALUE: mram_write:from <- [DW_OP_constu 32, DW_OP_minus, DW_OP_stack_value] $r22
	.loc	4 0 24 is_stmt 0                // uPIMulator_frontend/sdk/syslib/mram.h:0:24
	jump .LBB4_28
.Ltmp147:
.LBB4_2:
	//DEBUG_VALUE: __memcpy_mm:src <- $r21
	//DEBUG_VALUE: __memcpy_mm:destOff <- [DW_OP_constu 7, DW_OP_and, DW_OP_stack_value] $r20
	//DEBUG_VALUE: __memcpy_mm:dest <- $r20
	//DEBUG_VALUE: __memcpy_mm:len <- $r15
	//DEBUG_VALUE: __memcpy_mm:srcOff <- $r3
	//DEBUG_VALUE: idx <- 0
	move r18, 0
.Ltmp148:
	//DEBUG_VALUE: __memcpy_mm:remaining <- $r15
	//DEBUG_VALUE: idx <- $r18
	.loc	2 187 9 is_stmt 1               // uPIMulator_frontend/sdk/stdlib/memcpy.c:187:9
	jgeu r15, 8, .LBB4_7
	jump .LBB4_8
.Ltmp149:
.LBB4_15:
	//DEBUG_VALUE: __memcpy_mm:src <- $r21
	//DEBUG_VALUE: __memcpy_mm:destOff <- [DW_OP_constu 7, DW_OP_and, DW_OP_stack_value] $r20
	//DEBUG_VALUE: __memcpy_mm:dest <- $r20
	//DEBUG_VALUE: __memcpy_mm:len <- $r15
	//DEBUG_VALUE: __memcpy_mm:srcOff <- $r3
	//DEBUG_VALUE: srcIdx <- 8
	//DEBUG_VALUE: destIdx <- 0
	.loc	2 0 9 is_stmt 0                 // uPIMulator_frontend/sdk/stdlib/memcpy.c:0:9
	move r14, 8
	move r16, 0
	//DEBUG_VALUE: __memcpy_mm:srcOff <- $r3
.Ltmp150:
	//DEBUG_VALUE: __memcpy_mm:remaining <- $r15
	//DEBUG_VALUE: srcIdx <- $r14
	//DEBUG_VALUE: destIdx <- $r16
	sw r22, -24, r20
	sw r22, -20, r21
	.loc	2 241 9 is_stmt 1               // uPIMulator_frontend/sdk/stdlib/memcpy.c:241:9
	jgeu r15, 8, .LBB4_22
.Ltmp151:
.LBB4_21:
	//DEBUG_VALUE: __memcpy_mm:src <- $r21
	//DEBUG_VALUE: __memcpy_mm:destOff <- [DW_OP_constu 7, DW_OP_and, DW_OP_stack_value] $r20
	//DEBUG_VALUE: __memcpy_mm:dest <- $r20
	//DEBUG_VALUE: destIdx <- $r16
	//DEBUG_VALUE: __memcpy_mm:remaining <- $r15
	//DEBUG_VALUE: srcIdx <- $r14
	//DEBUG_VALUE: __memcpy_mm:srcOff <- $r3
	.loc	2 0 9 is_stmt 0                 // uPIMulator_frontend/sdk/stdlib/memcpy.c:0:9
	move r20, r3, true, .LBB4_24
.Ltmp152:
.LBB4_18:
	//DEBUG_VALUE: __memcpy_mm:src <- $r21
	//DEBUG_VALUE: __memcpy_mm:destOff <- [DW_OP_constu 7, DW_OP_and, DW_OP_stack_value] $r20
	//DEBUG_VALUE: __memcpy_mm:dest <- $r20
	//DEBUG_VALUE: __memcpy_mm:len <- $r15
	//DEBUG_VALUE: __memcpy_mm:srcOff <- $r3
	//DEBUG_VALUE: srcIdx <- 8
	//DEBUG_VALUE: destIdx <- 0
	.loc	2 225 47 is_stmt 1              // uPIMulator_frontend/sdk/stdlib/memcpy.c:225:47
	sub r17, 8, r3
.Ltmp153:
	//DEBUG_VALUE: part <- $r17
	.loc	2 226 34                        // uPIMulator_frontend/sdk/stdlib/memcpy.c:226:34
	or r18, r0, r14
	add r19, r22, -40
	.loc	2 226 54 is_stmt 0              // uPIMulator_frontend/sdk/stdlib/memcpy.c:226:54
	or r1, r19, r3
	.loc	2 226 17                        // uPIMulator_frontend/sdk/stdlib/memcpy.c:226:17
	move r0, r18
	move r2, r17
	move r16, r3
	call r23, memcpy
.Ltmp154:
	.loc	2 227 31 is_stmt 1              // uPIMulator_frontend/sdk/stdlib/memcpy.c:227:31
	add r0, r21, 8
.Ltmp155:
	//DEBUG_VALUE: mram_read:nb_of_bytes <- 8
	//DEBUG_VALUE: mram_read:from <- $r0
	.loc	4 35 24                         // uPIMulator_frontend/sdk/syslib/mram.h:35:24
	ldma r19, r0, 0
.Ltmp156:
	//DEBUG_VALUE: srcIdx <- 16
	.loc	2 230 39                        // uPIMulator_frontend/sdk/stdlib/memcpy.c:230:39
	sub r16, r16, r14
.Ltmp157:
	//DEBUG_VALUE: part2 <- $r16
	.loc	2 231 44                        // uPIMulator_frontend/sdk/stdlib/memcpy.c:231:44
	add r0, r18, r17
.Ltmp158:
	.loc	2 231 17 is_stmt 0              // uPIMulator_frontend/sdk/stdlib/memcpy.c:231:17
	move r1, r19
	move r2, r16
	call r23, memcpy
.Ltmp159:
	.loc	2 0 17                          // uPIMulator_frontend/sdk/stdlib/memcpy.c:0:17
	move r3, r16
.Ltmp160:
	//DEBUG_VALUE: part2 <- $r3
	move r14, 16
.Ltmp161:
	//DEBUG_VALUE: mram_read:to <- [DW_OP_constu 40, DW_OP_minus, DW_OP_stack_value] $r22
	//DEBUG_VALUE: __memcpy_mm:srcOff <- $r3
.LBB4_19:
	//DEBUG_VALUE: __memcpy_mm:src <- $r21
	//DEBUG_VALUE: __memcpy_mm:destOff <- [DW_OP_constu 7, DW_OP_and, DW_OP_stack_value] $r20
	//DEBUG_VALUE: __memcpy_mm:dest <- $r20
	//DEBUG_VALUE: __memcpy_mm:len <- $r15
	//DEBUG_VALUE: __memcpy_mm:srcOff <- $r3
	//DEBUG_VALUE: destIdx <- 0
	//DEBUG_VALUE: __memcpy_mm:srcOff <- $r3
	//DEBUG_VALUE: srcIdx <- $r14
	add r0, r22, -32
.Ltmp162:
	//DEBUG_VALUE: mram_write:nb_of_bytes <- 8
	//DEBUG_VALUE: mram_write:to <- $r20
	.loc	4 53 24 is_stmt 1               // uPIMulator_frontend/sdk/syslib/mram.h:53:24
	sdma r0, r20, 0
.Ltmp163:
	//DEBUG_VALUE: destIdx <- 8
	.loc	2 238 42                        // uPIMulator_frontend/sdk/stdlib/memcpy.c:238:42
	or r0, r20, -8
	.loc	2 238 23 is_stmt 0              // uPIMulator_frontend/sdk/stdlib/memcpy.c:238:23
	add r15, r0, r15
.Ltmp164:
	//DEBUG_VALUE: __memcpy_mm:remaining <- $r15
	.loc	2 0 23                          // uPIMulator_frontend/sdk/stdlib/memcpy.c:0:23
	move r16, 8
.Ltmp165:
	//DEBUG_VALUE: mram_write:from <- [DW_OP_constu 32, DW_OP_minus, DW_OP_stack_value] $r22
	//DEBUG_VALUE: __memcpy_mm:srcOff <- $r3
	//DEBUG_VALUE: __memcpy_mm:remaining <- $r15
	//DEBUG_VALUE: srcIdx <- $r14
	//DEBUG_VALUE: destIdx <- $r16
	sw r22, -24, r20
	sw r22, -20, r21
	.loc	2 241 9 is_stmt 1               // uPIMulator_frontend/sdk/stdlib/memcpy.c:241:9
	jltu r15, 8, .LBB4_21
.Ltmp166:
.LBB4_22:
	//DEBUG_VALUE: __memcpy_mm:src <- $r21
	//DEBUG_VALUE: __memcpy_mm:destOff <- [DW_OP_constu 7, DW_OP_and, DW_OP_stack_value] $r20
	//DEBUG_VALUE: __memcpy_mm:dest <- $r20
	//DEBUG_VALUE: destIdx <- $r16
	//DEBUG_VALUE: __memcpy_mm:remaining <- $r15
	//DEBUG_VALUE: srcIdx <- $r14
	//DEBUG_VALUE: __memcpy_mm:srcOff <- $r3
	.loc	2 0 9 is_stmt 0                 // uPIMulator_frontend/sdk/stdlib/memcpy.c:0:9
	sub r0, 8, r3
	add r19, r22, -40
	add r1, r19, r3
	sw r22, -16, r1
	add r21, r22, -32
.Ltmp167:
	move r18, r0
	add r17, r21, r0
	move r20, r3
.Ltmp168:
.LBB4_23:                               // =>This Inner Loop Header: Depth=1
	//DEBUG_VALUE: destIdx <- $r16
	//DEBUG_VALUE: __memcpy_mm:remaining <- $r15
	//DEBUG_VALUE: srcIdx <- $r14
	//DEBUG_VALUE: __memcpy_mm:srcOff <- $r3
	//DEBUG_VALUE: __memcpy_mm:remaining <- $r15
	//DEBUG_VALUE: srcIdx <- $r14
	//DEBUG_VALUE: destIdx <- $r16
	//DEBUG_VALUE: part <- $r18
	.loc	2 243 13 is_stmt 1              // uPIMulator_frontend/sdk/stdlib/memcpy.c:243:13
	move r0, r21
	lw r1, r22, -16
	move r2, r18
	call r23, memcpy
.Ltmp169:
	//DEBUG_VALUE: mram_read:from <- undef
	.loc	4 35 24                         // uPIMulator_frontend/sdk/syslib/mram.h:35:24
	lw r0, r22, -20
.Ltmp170:
	//DEBUG_VALUE: mram_read:nb_of_bytes <- 8
	add r0, r0, r14
	ldma r19, r0, 0
.Ltmp171:
	.loc	2 245 20                        // uPIMulator_frontend/sdk/stdlib/memcpy.c:245:20
	add r14, r14, 8
.Ltmp172:
	//DEBUG_VALUE: part2 <- $r20
	//DEBUG_VALUE: srcIdx <- $r14
	.loc	2 248 13                        // uPIMulator_frontend/sdk/stdlib/memcpy.c:248:13
	move r0, r17
	move r1, r19
	move r2, r20
	call r23, memcpy
.Ltmp173:
	//DEBUG_VALUE: mram_write:to <- undef
	.loc	4 53 24                         // uPIMulator_frontend/sdk/syslib/mram.h:53:24
	lw r0, r22, -24
.Ltmp174:
	//DEBUG_VALUE: mram_write:nb_of_bytes <- 8
	add r0, r0, r16
	sdma r21, r0, 0
.Ltmp175:
	.loc	2 251 21                        // uPIMulator_frontend/sdk/stdlib/memcpy.c:251:21
	add r16, r16, 8
.Ltmp176:
	//DEBUG_VALUE: mram_write:from <- [DW_OP_constu 32, DW_OP_minus, DW_OP_stack_value] $r22
	//DEBUG_VALUE: mram_read:to <- [DW_OP_constu 40, DW_OP_minus, DW_OP_stack_value] $r22
	//DEBUG_VALUE: destIdx <- $r16
	.loc	2 250 23                        // uPIMulator_frontend/sdk/stdlib/memcpy.c:250:23
	add r15, r15, -8
.Ltmp177:
	//DEBUG_VALUE: __memcpy_mm:remaining <- $r15
	.loc	2 241 9                         // uPIMulator_frontend/sdk/stdlib/memcpy.c:241:9
	jgtu r15, 7, .LBB4_23
.Ltmp178:
.LBB4_24:
	//DEBUG_VALUE: destIdx <- $r16
	//DEBUG_VALUE: __memcpy_mm:remaining <- $r15
	//DEBUG_VALUE: srcIdx <- $r14
	//DEBUG_VALUE: __memcpy_mm:srcOff <- $r3
	.loc	2 0 9 is_stmt 0                 // uPIMulator_frontend/sdk/stdlib/memcpy.c:0:9
	move r0, r20
	lw r20, r22, -24
	lw r21, r22, -20
	.loc	2 254 13 is_stmt 1              // uPIMulator_frontend/sdk/stdlib/memcpy.c:254:13
	jeq r15, 0, .LBB4_28
.Ltmp179:
// %bb.25:
	//DEBUG_VALUE: destIdx <- $r16
	//DEBUG_VALUE: __memcpy_mm:remaining <- $r15
	//DEBUG_VALUE: srcIdx <- $r14
	//DEBUG_VALUE: __memcpy_mm:srcOff <- $r3
	.loc	2 255 28                        // uPIMulator_frontend/sdk/stdlib/memcpy.c:255:28
	add r16, r20, r16
.Ltmp180:
	.loc	2 0 28 is_stmt 0                // uPIMulator_frontend/sdk/stdlib/memcpy.c:0:28
	add r17, r22, -32
.Ltmp181:
	//DEBUG_VALUE: mram_read:nb_of_bytes <- 8
	//DEBUG_VALUE: mram_read:from <- $r16
	.loc	4 35 24 is_stmt 1               // uPIMulator_frontend/sdk/syslib/mram.h:35:24
	ldma r17, r16, 0
.Ltmp182:
	.loc	2 257 43                        // uPIMulator_frontend/sdk/stdlib/memcpy.c:257:43
	sub r19, 8, r0
.Ltmp183:
	//DEBUG_VALUE: part <- $r19
	.loc	2 0 43 is_stmt 0                // uPIMulator_frontend/sdk/stdlib/memcpy.c:0:43
	add r18, r22, -40
	.loc	2 258 40 is_stmt 1              // uPIMulator_frontend/sdk/stdlib/memcpy.c:258:40
	add r1, r18, r0
	.loc	2 258 13 is_stmt 0              // uPIMulator_frontend/sdk/stdlib/memcpy.c:258:13
	move r0, r17
	move r2, r19
	call r23, memcpy
.Ltmp184:
	//DEBUG_VALUE: mram_read:to <- [DW_OP_constu 32, DW_OP_minus, DW_OP_stack_value] $r22
	.loc	2 260 17 is_stmt 1              // uPIMulator_frontend/sdk/stdlib/memcpy.c:260:17
	jleu r15, r19, .LBB4_27
.Ltmp185:
// %bb.26:
	//DEBUG_VALUE: part <- $r19
	//DEBUG_VALUE: __memcpy_mm:remaining <- $r15
	//DEBUG_VALUE: srcIdx <- $r14
	//DEBUG_VALUE: __memcpy_mm:srcOff <- $r3
	.loc	2 261 42                        // uPIMulator_frontend/sdk/stdlib/memcpy.c:261:42
	sub r2, r15, r19
.Ltmp186:
	//DEBUG_VALUE: part2 <- $r2
	.loc	2 262 31                        // uPIMulator_frontend/sdk/stdlib/memcpy.c:262:31
	add r0, r21, r14
.Ltmp187:
	//DEBUG_VALUE: mram_read:nb_of_bytes <- 8
	//DEBUG_VALUE: mram_read:from <- $r0
	.loc	4 35 24                         // uPIMulator_frontend/sdk/syslib/mram.h:35:24
	ldma r18, r0, 0
.Ltmp188:
	.loc	2 263 34                        // uPIMulator_frontend/sdk/stdlib/memcpy.c:263:34
	add r0, r17, r19
.Ltmp189:
	.loc	2 263 17 is_stmt 0              // uPIMulator_frontend/sdk/stdlib/memcpy.c:263:17
	move r1, r18
	call r23, memcpy
.Ltmp190:
	//DEBUG_VALUE: mram_read:to <- [DW_OP_constu 40, DW_OP_minus, DW_OP_stack_value] $r22
.LBB4_27:
	//DEBUG_VALUE: part <- $r19
	//DEBUG_VALUE: __memcpy_mm:remaining <- $r15
	//DEBUG_VALUE: srcIdx <- $r14
	//DEBUG_VALUE: __memcpy_mm:srcOff <- $r3
	//DEBUG_VALUE: mram_write:to <- $r16
	//DEBUG_VALUE: mram_write:nb_of_bytes <- 8
	.loc	4 53 24 is_stmt 1               // uPIMulator_frontend/sdk/syslib/mram.h:53:24
	sdma r17, r16, 0
.Ltmp191:
	//DEBUG_VALUE: mram_write:from <- [DW_OP_constu 32, DW_OP_minus, DW_OP_stack_value] $r22
.LBB4_28:
	//DEBUG_VALUE: __memcpy_mm:srcOff <- $r3
	.loc	2 271 1                         // uPIMulator_frontend/sdk/stdlib/memcpy.c:271:1
	move r0, r20
	ld d20, r22, -72
	ld d18, r22, -64
	ld d16, r22, -56
	ld d14, r22, -48
	ld d22, r22, -8
	jump r23
.Ltmp192:
.Lfunc_end4:
	.size	__memcpy_mm, .Lfunc_end4-__memcpy_mm
	.cfi_endproc
	.section	.stack_sizes,"o",@progbits,.text.__memcpy_mm
	.long	.Lfunc_begin4
	.byte	72
	.section	.text.__memcpy_mm,"ax",@progbits
                                        // -- End function