	.text
	.file	"stdio.c"
	.file	1 "/root" "uPIMulator_frontend/sdk/stdlib/stdio.c"
	.file	2 "/root" "uPIMulator_frontend/sdk/stdlib/stdint.h"
	.section	.text.printf,"ax",@progbits
	.globl	printf                          // -- Begin function printf
	.type	printf,@function
printf:                                 // @printf
.Lfunc_begin0:
	.loc	1 102 0                         // uPIMulator_frontend/sdk/stdlib/stdio.c:102:0
	.cfi_sections .debug_frame
	.cfi_startproc
// %bb.0:
	//DEBUG_VALUE: printf:format <- $r0
	.cfi_def_cfa_offset -48
	.cfi_offset 23, -8
	.cfi_offset 22, -4
	sd r22, 40, d22
	add r22, r22, 48
	.cfi_offset 15, -32
	.cfi_offset 14, -28
	sd r22, -32, d14
	.cfi_offset 17, -40
	.cfi_offset 16, -36
	sd r22, -40, d16
	.cfi_offset 19, -48
	.cfi_offset 18, -44
	sd r22, -48, d18
	move r14, r0
.Ltmp0:
	//DEBUG_VALUE: printf:current_format_char_ptr <- undef
	//DEBUG_VALUE: printf:insert_string_arg_end_character <- 0
	//DEBUG_VALUE: printf:insert_string_arg <- 1
	//DEBUG_VALUE: printf:format <- $r14
	.loc	1 107 5 prologue_end            // uPIMulator_frontend/sdk/stdlib/stdio.c:107:5
	call r23, __open_print_sequence
.Ltmp1:
	//DEBUG_VALUE: printf:args <- [DW_OP_plus_uconst 24, DW_OP_deref] $r22
	.loc	1 110 5                         // uPIMulator_frontend/sdk/stdlib/stdio.c:110:5
	sub r0, r22, 56, false
	sw r22, -24, r0
	move r0, 1
	.loc	1 0 0 is_stmt 0                 // uPIMulator_frontend/sdk/stdlib/stdio.c:0:0
	move r15, r14, true, .LBB0_1
.Ltmp2:
.LBB0_19:                               //   in Loop: Header=BB0_1 Depth=1
	//DEBUG_VALUE: printf:args <- [DW_OP_plus_uconst 24, DW_OP_deref] $r22
	//DEBUG_VALUE: printf:current_format_char_ptr <- $r15
	//DEBUG_VALUE: printf:format <- $r14
	//DEBUG_VALUE: printf:insert_string_arg_end_character <- 0
	//DEBUG_VALUE: printf:insert_string_arg <- undef
	//DEBUG_VALUE: printf:current_format_char_ptr <- $r15
	.loc	1 112 46 is_stmt 1              // uPIMulator_frontend/sdk/stdlib/stdio.c:112:46
	add r15, r15, 1
.Ltmp3:
	//DEBUG_VALUE: printf:current_format_char_ptr <- $r15
	.loc	1 0 46 is_stmt 0                // uPIMulator_frontend/sdk/stdlib/stdio.c:0:46
	move r0, r16
.Ltmp4:
.LBB0_1:                                // =>This Loop Header: Depth=1
                                        //     Child Loop BB0_9 Depth 2
	//DEBUG_VALUE: printf:args <- [DW_OP_plus_uconst 24, DW_OP_deref] $r22
	//DEBUG_VALUE: printf:format <- $r14
	//DEBUG_VALUE: printf:insert_string_arg_end_character <- 0
	//DEBUG_VALUE: printf:insert_string_arg <- undef
	//DEBUG_VALUE: printf:current_format_char_ptr <- $r15
	.loc	1 112 12                        // uPIMulator_frontend/sdk/stdlib/stdio.c:112:12
	lbu r1, r15, 0
.Ltmp5:
	.loc	1 112 5                         // uPIMulator_frontend/sdk/stdlib/stdio.c:112:5
	jeq r1, 37, .LBB0_6
.Ltmp6:
// %bb.2:                               //   in Loop: Header=BB0_1 Depth=1
	//DEBUG_VALUE: printf:args <- [DW_OP_plus_uconst 24, DW_OP_deref] $r22
	//DEBUG_VALUE: printf:current_format_char_ptr <- $r15
	//DEBUG_VALUE: printf:format <- $r14
	//DEBUG_VALUE: printf:insert_string_arg_end_character <- 0
	.loc	1 0 5                           // uPIMulator_frontend/sdk/stdlib/stdio.c:0:5
	jneq r1, 0, .LBB0_3
	jump .LBB0_20
.Ltmp7:
.LBB0_6:                                //   in Loop: Header=BB0_1 Depth=1
	//DEBUG_VALUE: printf:args <- [DW_OP_plus_uconst 24, DW_OP_deref] $r22
	//DEBUG_VALUE: printf:current_format_char_ptr <- $r15
	//DEBUG_VALUE: printf:format <- $r14
	//DEBUG_VALUE: printf:insert_string_arg_end_character <- 0
	.loc	1 115 17 is_stmt 1              // uPIMulator_frontend/sdk/stdlib/stdio.c:115:17
	lbu r1, r15, 1
.Ltmp8:
	.loc	1 114 13                        // uPIMulator_frontend/sdk/stdlib/stdio.c:114:13
	add r15, r15, 1
.Ltmp9:
	//DEBUG_VALUE: printf:current_format_char_ptr <- $r15
	.loc	1 115 17                        // uPIMulator_frontend/sdk/stdlib/stdio.c:115:17
	jeq r1, 37, .LBB0_3
.Ltmp10:
// %bb.7:                               //   in Loop: Header=BB0_1 Depth=1
	//DEBUG_VALUE: printf:args <- [DW_OP_plus_uconst 24, DW_OP_deref] $r22
	//DEBUG_VALUE: printf:current_format_char_ptr <- $r15
	//DEBUG_VALUE: printf:format <- $r14
	//DEBUG_VALUE: printf:insert_string_arg_end_character <- 0
	jeq r1, 0, .LBB0_20
.Ltmp11:
// %bb.8:                               //   in Loop: Header=BB0_1 Depth=1
	//DEBUG_VALUE: printf:args <- [DW_OP_plus_uconst 24, DW_OP_deref] $r22
	//DEBUG_VALUE: printf:current_format_char_ptr <- $r15
	//DEBUG_VALUE: printf:format <- $r14
	//DEBUG_VALUE: printf:insert_string_arg_end_character <- 0
	.loc	1 0 17 is_stmt 0                // uPIMulator_frontend/sdk/stdlib/stdio.c:0:17
	move r0, 37
	.loc	1 120 13 is_stmt 1              // uPIMulator_frontend/sdk/stdlib/stdio.c:120:13
	call r23, __write_byte_and_flush_if_needed
.Ltmp12:
	.loc	1 0 13 is_stmt 0                // uPIMulator_frontend/sdk/stdlib/stdio.c:0:13
	jump .LBB0_9
.Ltmp13:
.LBB0_18:                               //   in Loop: Header=BB0_9 Depth=2
	//DEBUG_VALUE: printf:args <- [DW_OP_plus_uconst 24, DW_OP_deref] $r22
	//DEBUG_VALUE: printf:current_format_char_ptr <- $r15
	//DEBUG_VALUE: printf:format <- $r14
	//DEBUG_VALUE: printf:insert_string_arg_end_character <- 0
	.loc	1 136 17 is_stmt 1              // uPIMulator_frontend/sdk/stdlib/stdio.c:136:17
	call r23, __write_byte_and_flush_if_needed
.Ltmp14:
	.loc	1 138 23                        // uPIMulator_frontend/sdk/stdlib/stdio.c:138:23
	lbu r0, r15, 0
	.loc	1 138 56 is_stmt 0              // uPIMulator_frontend/sdk/stdlib/stdio.c:138:56
	and r0, r0, 223
	add r0, r0, -65
	and r0, r0, 255
	jltu r0, 26, .LBB0_19
.Ltmp15:
.LBB0_17:                               //   in Loop: Header=BB0_9 Depth=2
	//DEBUG_VALUE: printf:args <- [DW_OP_plus_uconst 24, DW_OP_deref] $r22
	//DEBUG_VALUE: printf:format <- $r14
	//DEBUG_VALUE: printf:insert_string_arg_end_character <- 0
	.loc	1 0 0                           // uPIMulator_frontend/sdk/stdlib/stdio.c:0:0
	add r15, r15, 1
.Ltmp16:
.LBB0_9:                                //   Parent Loop BB0_1 Depth=1
                                        // =>  This Inner Loop Header: Depth=2
	//DEBUG_VALUE: printf:args <- [DW_OP_plus_uconst 24, DW_OP_deref] $r22
	//DEBUG_VALUE: printf:format <- $r14
	//DEBUG_VALUE: printf:insert_string_arg_end_character <- 0
	//DEBUG_VALUE: printf:current_format_char_ptr <- $r15
	.loc	1 122 20 is_stmt 1              // uPIMulator_frontend/sdk/stdlib/stdio.c:122:20
	lbu r0, r15, 0
	move r16, 1
	.loc	1 122 13 is_stmt 0              // uPIMulator_frontend/sdk/stdlib/stdio.c:122:13
	jles r0, 107, .LBB0_10
.Ltmp17:
// %bb.14:                              //   in Loop: Header=BB0_9 Depth=2
	//DEBUG_VALUE: printf:args <- [DW_OP_plus_uconst 24, DW_OP_deref] $r22
	//DEBUG_VALUE: printf:current_format_char_ptr <- $r15
	//DEBUG_VALUE: printf:format <- $r14
	//DEBUG_VALUE: printf:insert_string_arg_end_character <- 0
	jeq r0, 122, .LBB0_17
.Ltmp18:
// %bb.15:                              //   in Loop: Header=BB0_9 Depth=2
	//DEBUG_VALUE: printf:args <- [DW_OP_plus_uconst 24, DW_OP_deref] $r22
	//DEBUG_VALUE: printf:current_format_char_ptr <- $r15
	//DEBUG_VALUE: printf:format <- $r14
	//DEBUG_VALUE: printf:insert_string_arg_end_character <- 0
	jneq r0, 108, .LBB0_18
.Ltmp19:
// %bb.16:                              //   in Loop: Header=BB0_9 Depth=2
	//DEBUG_VALUE: printf:args <- [DW_OP_plus_uconst 24, DW_OP_deref] $r22
	//DEBUG_VALUE: printf:current_format_char_ptr <- $r15
	//DEBUG_VALUE: printf:format <- $r14
	//DEBUG_VALUE: printf:insert_string_arg_end_character <- 0
	.loc	1 0 13                          // uPIMulator_frontend/sdk/stdlib/stdio.c:0:13
	move r0, 108
.Ltmp20:
	.loc	1 124 21 is_stmt 1              // uPIMulator_frontend/sdk/stdlib/stdio.c:124:21
	call r23, __write_byte_and_flush_if_needed
.Ltmp21:
	//DEBUG_VALUE: printf:current_format_char_ptr <- [DW_OP_plus_uconst 1, DW_OP_stack_value] $r15
	.loc	1 0 21 is_stmt 0                // uPIMulator_frontend/sdk/stdlib/stdio.c:0:21
	jump .LBB0_17
.Ltmp22:
.LBB0_10:                               //   in Loop: Header=BB0_9 Depth=2
	//DEBUG_VALUE: printf:args <- [DW_OP_plus_uconst 24, DW_OP_deref] $r22
	//DEBUG_VALUE: printf:current_format_char_ptr <- $r15
	//DEBUG_VALUE: printf:format <- $r14
	//DEBUG_VALUE: printf:insert_string_arg_end_character <- 0
	.loc	1 122 13 is_stmt 1              // uPIMulator_frontend/sdk/stdlib/stdio.c:122:13
	jeq r0, 76, .LBB0_17
.Ltmp23:
// %bb.11:                              //   in Loop: Header=BB0_9 Depth=2
	//DEBUG_VALUE: printf:args <- [DW_OP_plus_uconst 24, DW_OP_deref] $r22
	//DEBUG_VALUE: printf:current_format_char_ptr <- $r15
	//DEBUG_VALUE: printf:format <- $r14
	//DEBUG_VALUE: printf:insert_string_arg_end_character <- 0
	jeq r0, 0, .LBB0_19
.Ltmp24:
// %bb.12:                              //   in Loop: Header=BB0_9 Depth=2
	//DEBUG_VALUE: printf:args <- [DW_OP_plus_uconst 24, DW_OP_deref] $r22
	//DEBUG_VALUE: printf:current_format_char_ptr <- $r15
	//DEBUG_VALUE: printf:format <- $r14
	//DEBUG_VALUE: printf:insert_string_arg_end_character <- 0
	jneq r0, 105, .LBB0_18
.Ltmp25:
// %bb.13:                              //   in Loop: Header=BB0_1 Depth=1
	//DEBUG_VALUE: printf:args <- [DW_OP_plus_uconst 24, DW_OP_deref] $r22
	//DEBUG_VALUE: printf:current_format_char_ptr <- $r15
	//DEBUG_VALUE: printf:format <- $r14
	//DEBUG_VALUE: printf:insert_string_arg_end_character <- 0
	.loc	1 0 13 is_stmt 0                // uPIMulator_frontend/sdk/stdlib/stdio.c:0:13
	move r0, 100
	call r23, __write_byte_and_flush_if_needed
.Ltmp26:
	//DEBUG_VALUE: printf:insert_string_arg <- 0
	jump .LBB0_19
.Ltmp27:
.LBB0_3:                                //   in Loop: Header=BB0_1 Depth=1
	//DEBUG_VALUE: printf:args <- [DW_OP_plus_uconst 24, DW_OP_deref] $r22
	//DEBUG_VALUE: printf:current_format_char_ptr <- $r15
	//DEBUG_VALUE: printf:format <- $r14
	//DEBUG_VALUE: printf:insert_string_arg_end_character <- 0
	//DEBUG_VALUE: printf:current_format_char_ptr <- $r15
	//DEBUG_LABEL: standard_character_format_process
	move r16, 0
.Ltmp28:
	.loc	1 149 17 is_stmt 1              // uPIMulator_frontend/sdk/stdlib/stdio.c:149:17
	and r0, r0, 1, z, .LBB0_19
.Ltmp29:
// %bb.4:                               //   in Loop: Header=BB0_1 Depth=1
	//DEBUG_VALUE: printf:args <- [DW_OP_plus_uconst 24, DW_OP_deref] $r22
	//DEBUG_VALUE: printf:current_format_char_ptr <- $r15
	//DEBUG_VALUE: printf:format <- $r14
	//DEBUG_VALUE: printf:insert_string_arg_end_character <- 0
	.loc	1 0 17 is_stmt 0                // uPIMulator_frontend/sdk/stdlib/stdio.c:0:17
	move r0, 37
.Ltmp30:
	.loc	1 150 17 is_stmt 1              // uPIMulator_frontend/sdk/stdlib/stdio.c:150:17
	call r23, __write_byte_and_flush_if_needed
.Ltmp31:
	.loc	1 0 17 is_stmt 0                // uPIMulator_frontend/sdk/stdlib/stdio.c:0:17
	move r0, 115
.Ltmp32:
	call r23, __write_byte_and_flush_if_needed
.Ltmp33:
	//DEBUG_VALUE: printf:insert_string_arg <- 0
	jump .LBB0_19
.Ltmp34:
.LBB0_20:
	//DEBUG_VALUE: printf:args <- [DW_OP_plus_uconst 24, DW_OP_deref] $r22
	//DEBUG_VALUE: printf:current_format_char_ptr <- $r15
	//DEBUG_VALUE: printf:format <- $r14
	//DEBUG_VALUE: printf:insert_string_arg_end_character <- 0
	move r15, 0
.Ltmp35:
	.loc	1 157 5 is_stmt 1               // uPIMulator_frontend/sdk/stdlib/stdio.c:157:5
	move r0, r15
	call r23, __write_byte_and_flush_if_needed
.Ltmp36:
	.loc	1 0 5 is_stmt 0                 // uPIMulator_frontend/sdk/stdlib/stdio.c:0:5
	add r0, r22, -16
.Ltmp37:
	//DEBUG_VALUE: printf:current_format_char_ptr <- $r14
	.loc	1 160 5 is_stmt 1               // uPIMulator_frontend/sdk/stdlib/stdio.c:160:5
	or r16, r0, 1, true, .LBB0_21
.Ltmp38:
.LBB0_22:                               //   in Loop: Header=BB0_21 Depth=1
	//DEBUG_VALUE: printf:args <- [DW_OP_plus_uconst 24, DW_OP_deref] $r22
	//DEBUG_VALUE: printf:current_format_char_ptr <- $r14
	.loc	1 160 5 is_stmt 0               // uPIMulator_frontend/sdk/stdlib/stdio.c:160:5
	jeq r0, 0, .LBB0_52
.Ltmp39:
.LBB0_23:                               //   in Loop: Header=BB0_21 Depth=1
	//DEBUG_VALUE: printf:args <- [DW_OP_plus_uconst 24, DW_OP_deref] $r22
	//DEBUG_VALUE: printf:current_format_char_ptr <- $r14
	//DEBUG_VALUE: printf:current_format_char_ptr <- $r14
	//DEBUG_LABEL: standard_character_process
	.loc	1 243 13 is_stmt 1              // uPIMulator_frontend/sdk/stdlib/stdio.c:243:13
	call r23, __write_byte_and_flush_if_needed
.Ltmp40:
	.loc	1 0 13 is_stmt 0                // uPIMulator_frontend/sdk/stdlib/stdio.c:0:13
	move r15, 1
.Ltmp41:
	//DEBUG_VALUE: printf:insert_string_arg_end_character <- undef
	.loc	1 160 46 is_stmt 1              // uPIMulator_frontend/sdk/stdlib/stdio.c:160:46
	add r14, r14, 1
.Ltmp42:
	//DEBUG_VALUE: printf:current_format_char_ptr <- $r14
.LBB0_21:                               // =>This Loop Header: Depth=1
                                        //     Child Loop BB0_30 Depth 2
                                        //     Child Loop BB0_41 Depth 2
                                        //     Child Loop BB0_50 Depth 2
	//DEBUG_VALUE: printf:args <- [DW_OP_plus_uconst 24, DW_OP_deref] $r22
	//DEBUG_VALUE: printf:insert_string_arg_end_character <- undef
	//DEBUG_VALUE: printf:current_format_char_ptr <- $r14
	.loc	1 160 12 is_stmt 0              // uPIMulator_frontend/sdk/stdlib/stdio.c:160:12
	lbu r0, r14, 0
.Ltmp43:
	.loc	1 160 5                         // uPIMulator_frontend/sdk/stdlib/stdio.c:160:5
	jneq r0, 37, .LBB0_22
.Ltmp44:
// %bb.24:                              //   in Loop: Header=BB0_21 Depth=1
	//DEBUG_VALUE: printf:args <- [DW_OP_plus_uconst 24, DW_OP_deref] $r22
	//DEBUG_VALUE: printf:current_format_char_ptr <- $r14
	.loc	1 164 17 is_stmt 1              // uPIMulator_frontend/sdk/stdlib/stdio.c:164:17
	lbu r1, r14, 1
.Ltmp45:
	.loc	1 162 13                        // uPIMulator_frontend/sdk/stdlib/stdio.c:162:13
	add r14, r14, 1
.Ltmp46:
	//DEBUG_VALUE: printf:current_format_char_ptr <- $r14
	.loc	1 164 17                        // uPIMulator_frontend/sdk/stdlib/stdio.c:164:17
	jeq r1, 37, .LBB0_23
.Ltmp47:
// %bb.25:                              //   in Loop: Header=BB0_21 Depth=1
	//DEBUG_VALUE: printf:args <- [DW_OP_plus_uconst 24, DW_OP_deref] $r22
	//DEBUG_VALUE: printf:current_format_char_ptr <- $r14
	jeq r1, 0, .LBB0_52
.Ltmp48:
// %bb.26:                              //   in Loop: Header=BB0_21 Depth=1
	//DEBUG_VALUE: printf:args <- [DW_OP_plus_uconst 24, DW_OP_deref] $r22
	//DEBUG_VALUE: printf:current_format_char_ptr <- $r14
	.loc	1 169 17                        // uPIMulator_frontend/sdk/stdlib/stdio.c:169:17
	and r0, r15, 1, z, .LBB0_28
.Ltmp49:
// %bb.27:                              //   in Loop: Header=BB0_21 Depth=1
	//DEBUG_VALUE: printf:args <- [DW_OP_plus_uconst 24, DW_OP_deref] $r22
	//DEBUG_VALUE: printf:current_format_char_ptr <- $r14
	//DEBUG_VALUE: printf:insert_string_arg_end_character <- 0
	.loc	1 0 17 is_stmt 0                // uPIMulator_frontend/sdk/stdlib/stdio.c:0:17
	move r0, 0
.Ltmp50:
	.loc	1 171 17 is_stmt 1              // uPIMulator_frontend/sdk/stdlib/stdio.c:171:17
	call r23, __write_byte_and_flush_if_needed
.Ltmp51:
.LBB0_28:                               //   in Loop: Header=BB0_21 Depth=1
	//DEBUG_VALUE: printf:args <- [DW_OP_plus_uconst 24, DW_OP_deref] $r22
	//DEBUG_VALUE: printf:current_format_char_ptr <- $r14
	.loc	1 0 17 is_stmt 0                // uPIMulator_frontend/sdk/stdlib/stdio.c:0:17
	move r0, 0
	//DEBUG_VALUE: printf:current_format_char_ptr <- $r14
.Ltmp52:
	//DEBUG_VALUE: arg_is_64_bits <- undef
	.loc	1 176 20 is_stmt 1              // uPIMulator_frontend/sdk/stdlib/stdio.c:176:20
	lbu r1, r14, 0
	.loc	1 176 13 is_stmt 0              // uPIMulator_frontend/sdk/stdlib/stdio.c:176:13
	jgts r1, 121, .LBB0_35
	jump .LBB0_30
.Ltmp53:
.LBB0_36:                               //   in Loop: Header=BB0_21 Depth=1
	//DEBUG_VALUE: printf:args <- [DW_OP_plus_uconst 24, DW_OP_deref] $r22
	//DEBUG_VALUE: printf:current_format_char_ptr <- $r14
	.loc	1 186 56 is_stmt 1              // uPIMulator_frontend/sdk/stdlib/stdio.c:186:56
	and r2, r1, 223
	add r2, r2, -65
	and r2, r2, 255
	jleu r2, 25, .LBB0_37
.Ltmp54:
.LBB0_34:                               //   in Loop: Header=BB0_21 Depth=1
	//DEBUG_VALUE: printf:args <- [DW_OP_plus_uconst 24, DW_OP_deref] $r22
	//DEBUG_VALUE: printf:current_format_char_ptr <- $r14
	.loc	1 0 0 is_stmt 0                 // uPIMulator_frontend/sdk/stdlib/stdio.c:0:0
	add r14, r14, 1
.Ltmp55:
	//DEBUG_VALUE: printf:current_format_char_ptr <- $r14
	//DEBUG_VALUE: arg_is_64_bits <- undef
	.loc	1 176 20 is_stmt 1              // uPIMulator_frontend/sdk/stdlib/stdio.c:176:20
	lbu r1, r14, 0
	.loc	1 176 13 is_stmt 0              // uPIMulator_frontend/sdk/stdlib/stdio.c:176:13
	jles r1, 121, .LBB0_30
.Ltmp56:
.LBB0_35:                               //   in Loop: Header=BB0_21 Depth=1
	//DEBUG_VALUE: printf:args <- [DW_OP_plus_uconst 24, DW_OP_deref] $r22
	//DEBUG_VALUE: printf:current_format_char_ptr <- $r14
	.loc	1 0 13                          // uPIMulator_frontend/sdk/stdlib/stdio.c:0:13
	jeq r1, 122, .LBB0_34
	jump .LBB0_36
.Ltmp57:
.LBB0_30:                               //   Parent Loop BB0_21 Depth=1
                                        // =>  This Inner Loop Header: Depth=2
	//DEBUG_VALUE: printf:args <- [DW_OP_plus_uconst 24, DW_OP_deref] $r22
	//DEBUG_VALUE: printf:current_format_char_ptr <- $r14
	.loc	1 176 13                        // uPIMulator_frontend/sdk/stdlib/stdio.c:176:13
	jeq r1, 0, .LBB0_46
.Ltmp58:
// %bb.31:                              //   in Loop: Header=BB0_30 Depth=2
	//DEBUG_VALUE: printf:args <- [DW_OP_plus_uconst 24, DW_OP_deref] $r22
	//DEBUG_VALUE: printf:current_format_char_ptr <- $r14
	jeq r1, 76, .LBB0_33
.Ltmp59:
// %bb.32:                              //   in Loop: Header=BB0_30 Depth=2
	//DEBUG_VALUE: printf:args <- [DW_OP_plus_uconst 24, DW_OP_deref] $r22
	//DEBUG_VALUE: printf:current_format_char_ptr <- $r14
	jneq r1, 108, .LBB0_36
.Ltmp60:
.LBB0_33:                               //   in Loop: Header=BB0_30 Depth=2
	//DEBUG_VALUE: printf:args <- [DW_OP_plus_uconst 24, DW_OP_deref] $r22
	//DEBUG_VALUE: printf:current_format_char_ptr <- $r14
	//DEBUG_VALUE: printf:current_format_char_ptr <- [DW_OP_plus_uconst 1, DW_OP_stack_value] $r14
	//DEBUG_VALUE: arg_is_64_bits <- 1
	.loc	1 180 21 is_stmt 1              // uPIMulator_frontend/sdk/stdlib/stdio.c:180:21
	add r14, r14, 1
.Ltmp61:
	.loc	1 0 21 is_stmt 0                // uPIMulator_frontend/sdk/stdlib/stdio.c:0:21
	move r0, 1
.Ltmp62:
	//DEBUG_VALUE: printf:current_format_char_ptr <- $r14
	//DEBUG_VALUE: arg_is_64_bits <- undef
	.loc	1 176 20 is_stmt 1              // uPIMulator_frontend/sdk/stdlib/stdio.c:176:20
	lbu r1, r14, 0
	.loc	1 176 13 is_stmt 0              // uPIMulator_frontend/sdk/stdlib/stdio.c:176:13
	jgts r1, 121, .LBB0_35
	jump .LBB0_30
.Ltmp63:
.LBB0_37:                               //   in Loop: Header=BB0_21 Depth=1
	//DEBUG_VALUE: printf:args <- [DW_OP_plus_uconst 24, DW_OP_deref] $r22
	//DEBUG_VALUE: printf:current_format_char_ptr <- $r14
	.loc	1 193 13 is_stmt 1              // uPIMulator_frontend/sdk/stdlib/stdio.c:193:13
	add r1, r1, -69
	jgtu r1, 46, .LBB0_46
.Ltmp64:
// %bb.38:                              //   in Loop: Header=BB0_21 Depth=1
	//DEBUG_VALUE: printf:args <- [DW_OP_plus_uconst 24, DW_OP_deref] $r22
	//DEBUG_VALUE: printf:current_format_char_ptr <- $r14
	.loc	1 0 13 is_stmt 0                // uPIMulator_frontend/sdk/stdlib/stdio.c:0:13
	lsl r1, r1, 2
	lw r1, r1, .LJTI0_0
	jump r1
.Ltmp65:
.LBB0_45:                               //   in Loop: Header=BB0_21 Depth=1
	//DEBUG_VALUE: printf:args <- [DW_OP_plus_uconst 24, DW_OP_deref] $r22
	//DEBUG_VALUE: printf:current_format_char_ptr <- $r14
	.loc	1 213 21 is_stmt 1              // uPIMulator_frontend/sdk/stdlib/stdio.c:213:21
	// inline asm
	nop
	// inline asm
	.loc	1 214 34                        // uPIMulator_frontend/sdk/stdlib/stdio.c:214:34
	lw r0, r22, -24
	add r0, r0, -8
	and r0, r0, -8
	sw r22, -24, r0
	ld d18, r0, 0
.Ltmp66:
	//DEBUG_VALUE: i <- 0
	//DEBUG_VALUE: arg <- undef
	//DEBUG_VALUE: val <- undef
	.loc	1 218 25                        // uPIMulator_frontend/sdk/stdlib/stdio.c:218:25
	and r0, r19, 255
.Ltmp67:
	//DEBUG_VALUE: arg_byte <- $r0
	//DEBUG_VALUE: i <- 3
	call r23, __write_byte_and_flush_if_needed
.Ltmp68:
	//DEBUG_VALUE: i <- 1
	lsr r0, r19, 8
.Ltmp69:
	and r0, r0, 255
.Ltmp70:
	//DEBUG_VALUE: arg_byte <- $r0
	call r23, __write_byte_and_flush_if_needed
.Ltmp71:
	//DEBUG_VALUE: i <- 2
	lsr r0, r19, 16
.Ltmp72:
	and r0, r0, 255
.Ltmp73:
	//DEBUG_VALUE: arg_byte <- $r0
	call r23, __write_byte_and_flush_if_needed
.Ltmp74:
	lsr r0, r19, 24
.Ltmp75:
	//DEBUG_VALUE: arg_byte <- $r0
	call r23, __write_byte_and_flush_if_needed
.Ltmp76:
	//DEBUG_VALUE: i <- 4
	and r0, r18, 255
.Ltmp77:
	//DEBUG_VALUE: arg_byte <- $r0
	call r23, __write_byte_and_flush_if_needed
.Ltmp78:
	//DEBUG_VALUE: i <- 5
	.loc	1 217 41                        // uPIMulator_frontend/sdk/stdlib/stdio.c:217:41
	lsr.u d0, r18, 8
.Ltmp79:
	.loc	1 218 25                        // uPIMulator_frontend/sdk/stdlib/stdio.c:218:25
	and r0, r1, 255
.Ltmp80:
	//DEBUG_VALUE: arg_byte <- $r0
	call r23, __write_byte_and_flush_if_needed
.Ltmp81:
	//DEBUG_VALUE: i <- 6
	.loc	1 217 41                        // uPIMulator_frontend/sdk/stdlib/stdio.c:217:41
	lsr.u d0, r18, 16
.Ltmp82:
	.loc	1 218 25                        // uPIMulator_frontend/sdk/stdlib/stdio.c:218:25
	and r0, r1, 255
.Ltmp83:
	//DEBUG_VALUE: arg_byte <- $r0
	call r23, __write_byte_and_flush_if_needed
.Ltmp84:
	//DEBUG_VALUE: i <- 7
	.loc	1 217 41                        // uPIMulator_frontend/sdk/stdlib/stdio.c:217:41
	lsr.u d0, r18, 24
.Ltmp85:
	//DEBUG_VALUE: arg_byte <- undef
	.loc	1 218 25                        // uPIMulator_frontend/sdk/stdlib/stdio.c:218:25
	move r0, r1
.Ltmp86:
	.loc	1 0 0 is_stmt 0                 // uPIMulator_frontend/sdk/stdlib/stdio.c:0:0
	call r23, __write_byte_and_flush_if_needed
.Ltmp87:
	jump .LBB0_51
.Ltmp88:
.LBB0_46:                               //   in Loop: Header=BB0_21 Depth=1
	//DEBUG_VALUE: printf:args <- [DW_OP_plus_uconst 24, DW_OP_deref] $r22
	//DEBUG_VALUE: printf:current_format_char_ptr <- $r14
	.loc	1 226 25 is_stmt 1              // uPIMulator_frontend/sdk/stdlib/stdio.c:226:25
	and r0, r0, 1, z, .LBB0_48
.Ltmp89:
// %bb.47:                              //   in Loop: Header=BB0_21 Depth=1
	//DEBUG_VALUE: printf:args <- [DW_OP_plus_uconst 24, DW_OP_deref] $r22
	//DEBUG_VALUE: printf:current_format_char_ptr <- $r14
	.loc	1 227 31                        // uPIMulator_frontend/sdk/stdlib/stdio.c:227:31
	lw r0, r22, -24
	add r0, r0, -8
	and r0, r0, -8
	sw r22, -24, r0
	ld d0, r0, 0
.Ltmp90:
	//DEBUG_VALUE: val <- $d0
	//DEBUG_VALUE: arg_size_in_bytes <- 8
	.loc	1 0 31 is_stmt 0                // uPIMulator_frontend/sdk/stdlib/stdio.c:0:31
	move r15, 8, true, .LBB0_49
.Ltmp91:
.LBB0_48:                               //   in Loop: Header=BB0_21 Depth=1
	//DEBUG_VALUE: printf:args <- [DW_OP_plus_uconst 24, DW_OP_deref] $r22
	//DEBUG_VALUE: printf:current_format_char_ptr <- $r14
	.loc	1 230 37 is_stmt 1              // uPIMulator_frontend/sdk/stdlib/stdio.c:230:37
	lw r0, r22, -24
	add r1, r0, -4
	sw r22, -24, r1
	lw.s d0, r0, -4
.Ltmp92:
	//DEBUG_VALUE: val <- $d0
	.loc	1 0 37 is_stmt 0                // uPIMulator_frontend/sdk/stdlib/stdio.c:0:37
	move r15, 4
.Ltmp93:
	//DEBUG_VALUE: arg_size_in_bytes <- 4
.LBB0_49:                               //   in Loop: Header=BB0_21 Depth=1
	//DEBUG_VALUE: printf:args <- [DW_OP_plus_uconst 24, DW_OP_deref] $r22
	//DEBUG_VALUE: printf:current_format_char_ptr <- $r14
	//DEBUG_VALUE: val <- $d0
	sd r22, -16, d0
.Ltmp94:
	//DEBUG_VALUE: i <- 0
	//DEBUG_VALUE: arg <- [DW_OP_constu 16, DW_OP_minus, DW_OP_stack_value] $r22
	//DEBUG_VALUE: arg_size_in_bytes <- $r15
	.loc	1 237 25 is_stmt 1              // uPIMulator_frontend/sdk/stdlib/stdio.c:237:25
	and r0, r1, 255
.Ltmp95:
	//DEBUG_VALUE: arg_byte <- $r0
	call r23, __write_byte_and_flush_if_needed
.Ltmp96:
	//DEBUG_VALUE: i <- 1
	.loc	1 235 21                        // uPIMulator_frontend/sdk/stdlib/stdio.c:235:21
	add r15, r15, -1
.Ltmp97:
	.loc	1 0 21 is_stmt 0                // uPIMulator_frontend/sdk/stdlib/stdio.c:0:21
	move r17, r16
.Ltmp98:
.LBB0_50:                               //   Parent Loop BB0_21 Depth=1
                                        // =>  This Inner Loop Header: Depth=2
	//DEBUG_VALUE: arg <- [DW_OP_constu 16, DW_OP_minus, DW_OP_stack_value] $r22
	//DEBUG_VALUE: printf:args <- [DW_OP_plus_uconst 24, DW_OP_deref] $r22
	//DEBUG_VALUE: printf:current_format_char_ptr <- $r14
	.loc	1 236 41 is_stmt 1              // uPIMulator_frontend/sdk/stdlib/stdio.c:236:41
	lbu r0, r17, 0
.Ltmp99:
	//DEBUG_VALUE: arg_byte <- undef
	//DEBUG_VALUE: i <- undef
	.loc	1 237 25                        // uPIMulator_frontend/sdk/stdlib/stdio.c:237:25
	call r23, __write_byte_and_flush_if_needed
.Ltmp100:
	//DEBUG_VALUE: i <- [DW_OP_plus_uconst 1, DW_OP_stack_value] undef
	.loc	1 235 48                        // uPIMulator_frontend/sdk/stdlib/stdio.c:235:48
	add r17, r17, 1
	add r15, r15, -1, nz, .LBB0_50
.Ltmp101:
.LBB0_51:                               //   in Loop: Header=BB0_21 Depth=1
	//DEBUG_VALUE: printf:args <- [DW_OP_plus_uconst 24, DW_OP_deref] $r22
	//DEBUG_VALUE: printf:current_format_char_ptr <- $r14
	.loc	1 0 48 is_stmt 0                // uPIMulator_frontend/sdk/stdlib/stdio.c:0:48
	move r15, 0
	//DEBUG_VALUE: printf:current_format_char_ptr <- $r14
.Ltmp102:
	//DEBUG_VALUE: printf:insert_string_arg_end_character <- undef
	//DEBUG_VALUE: printf:current_format_char_ptr <- $r14
	.loc	1 160 46 is_stmt 1              // uPIMulator_frontend/sdk/stdlib/stdio.c:160:46
	add r14, r14, 1, true, .LBB0_21
.Ltmp103:
.LBB0_43:                               //   in Loop: Header=BB0_21 Depth=1
	//DEBUG_VALUE: printf:args <- [DW_OP_plus_uconst 24, DW_OP_deref] $r22
	//DEBUG_VALUE: printf:current_format_char_ptr <- $r14
	.loc	1 204 46                        // uPIMulator_frontend/sdk/stdlib/stdio.c:204:46
	lw r0, r22, -24
	add r1, r0, -4
	sw r22, -24, r1
	lbu r0, r0, -4
.Ltmp104:
	//DEBUG_VALUE: arg_as_char <- $r0
	.loc	1 0 0 is_stmt 0                 // uPIMulator_frontend/sdk/stdlib/stdio.c:0:0
	call r23, __write_byte_and_flush_if_needed
.Ltmp105:
	jump .LBB0_51
.Ltmp106:
.LBB0_39:                               //   in Loop: Header=BB0_21 Depth=1
	//DEBUG_VALUE: printf:args <- [DW_OP_plus_uconst 24, DW_OP_deref] $r22
	//DEBUG_VALUE: printf:current_format_char_ptr <- $r14
	.loc	1 195 41 is_stmt 1              // uPIMulator_frontend/sdk/stdlib/stdio.c:195:41
	lw r0, r22, -24
	add r1, r0, -4
	sw r22, -24, r1
	lw r1, r0, -4
.Ltmp107:
	//DEBUG_VALUE: arg <- $r1
	.loc	1 196 28                        // uPIMulator_frontend/sdk/stdlib/stdio.c:196:28
	lbu r0, r1, 0
	.loc	1 196 21 is_stmt 0              // uPIMulator_frontend/sdk/stdlib/stdio.c:196:21
	jeq r0, 0, .LBB0_42
.Ltmp108:
// %bb.40:                              //   in Loop: Header=BB0_21 Depth=1
	//DEBUG_VALUE: printf:args <- [DW_OP_plus_uconst 24, DW_OP_deref] $r22
	//DEBUG_VALUE: printf:current_format_char_ptr <- $r14
	//DEBUG_VALUE: arg <- $r1
	add r15, r1, 1
.Ltmp109:
.LBB0_41:                               //   Parent Loop BB0_21 Depth=1
                                        // =>  This Inner Loop Header: Depth=2
	//DEBUG_VALUE: printf:args <- [DW_OP_plus_uconst 24, DW_OP_deref] $r22
	//DEBUG_VALUE: printf:current_format_char_ptr <- $r14
	//DEBUG_VALUE: arg <- [DW_OP_constu 1, DW_OP_minus, DW_OP_stack_value] $r15
	.loc	1 197 25 is_stmt 1              // uPIMulator_frontend/sdk/stdlib/stdio.c:197:25
	and r0, r0, 255
	call r23, __write_byte_and_flush_if_needed
.Ltmp110:
	//DEBUG_VALUE: arg <- $r15
	.loc	1 196 28                        // uPIMulator_frontend/sdk/stdlib/stdio.c:196:28
	lbu r0, r15, 0
	.loc	1 196 21 is_stmt 0              // uPIMulator_frontend/sdk/stdlib/stdio.c:196:21
	add r15, r15, 1
.Ltmp111:
	jneq r0, 0, .LBB0_41
.Ltmp112:
.LBB0_42:                               //   in Loop: Header=BB0_21 Depth=1
	//DEBUG_VALUE: printf:args <- [DW_OP_plus_uconst 24, DW_OP_deref] $r22
	//DEBUG_VALUE: printf:current_format_char_ptr <- $r14
	.loc	1 0 21                          // uPIMulator_frontend/sdk/stdlib/stdio.c:0:21
	move r15, 0
	.loc	1 200 21 is_stmt 1              // uPIMulator_frontend/sdk/stdlib/stdio.c:200:21
	move r0, r15
	call r23, __write_byte_and_flush_if_needed
.Ltmp113:
	//DEBUG_VALUE: printf:current_format_char_ptr <- $r14
	//DEBUG_VALUE: printf:insert_string_arg_end_character <- undef
	//DEBUG_VALUE: printf:current_format_char_ptr <- $r14
	.loc	1 160 46                        // uPIMulator_frontend/sdk/stdlib/stdio.c:160:46
	add r14, r14, 1, true, .LBB0_21
.Ltmp114:
.LBB0_52:
	//DEBUG_VALUE: printf:args <- [DW_OP_plus_uconst 24, DW_OP_deref] $r22
	//DEBUG_VALUE: printf:current_format_char_ptr <- $r14
	.loc	1 248 9                         // uPIMulator_frontend/sdk/stdlib/stdio.c:248:9
	and r0, r15, 1, z, .LBB0_54
.Ltmp115:
// %bb.53:
	//DEBUG_VALUE: printf:args <- [DW_OP_plus_uconst 24, DW_OP_deref] $r22
	//DEBUG_VALUE: printf:current_format_char_ptr <- $r14
	.loc	1 0 9 is_stmt 0                 // uPIMulator_frontend/sdk/stdlib/stdio.c:0:9
	move r0, 0
.Ltmp116:
	.loc	1 249 9 is_stmt 1               // uPIMulator_frontend/sdk/stdlib/stdio.c:249:9
	call r23, __write_byte_and_flush_if_needed
.Ltmp117:
.LBB0_54:
	//DEBUG_VALUE: printf:args <- [DW_OP_plus_uconst 24, DW_OP_deref] $r22
	//DEBUG_VALUE: printf:current_format_char_ptr <- $r14
	//DEBUG_VALUE: printf:args <- [DW_OP_constu 24, DW_OP_minus, DW_OP_deref] $r22
	.loc	1 254 5                         // uPIMulator_frontend/sdk/stdlib/stdio.c:254:5
	call r23, __finalized_print_sequence
.Ltmp118:
	.loc	1 255 5                         // uPIMulator_frontend/sdk/stdlib/stdio.c:255:5
	call r23, __close_print_sequence
.Ltmp119:
	.loc	1 256 1                         // uPIMulator_frontend/sdk/stdlib/stdio.c:256:1
	ld d18, r22, -48
	ld d16, r22, -40
	ld d14, r22, -32
.Ltmp120:
	ld d22, r22, -8
.Ltmp121:
	jump r23
.Ltmp122:
.Lfunc_end0:
	.size	printf, .Lfunc_end0-printf
	.cfi_endproc
	.section	.rodata.printf,"a",@progbits
	.p2align	2
.LJTI0_0:
	.long	.LBB0_45
	.long	.LBB0_46
	.long	.LBB0_45
	.long	.LBB0_46
	.long	.LBB0_46
	.long	.LBB0_46
	.long	.LBB0_46
	.long	.LBB0_46
	.long	.LBB0_46
	.long	.LBB0_46
	.long	.LBB0_46
	.long	.LBB0_46
	.long	.LBB0_46
	.long	.LBB0_46
	.long	.LBB0_46
	.long	.LBB0_46
	.long	.LBB0_46
	.long	.LBB0_46
	.long	.LBB0_46
	.long	.LBB0_46
	.long	.LBB0_46
	.long	.LBB0_46
	.long	.LBB0_46
	.long	.LBB0_46
	.long	.LBB0_46
	.long	.LBB0_46
	.long	.LBB0_46
	.long	.LBB0_46
	.long	.LBB0_46
	.long	.LBB0_46
	.long	.LBB0_43
	.long	.LBB0_46
	.long	.LBB0_45
	.long	.LBB0_45
	.long	.LBB0_45
	.long	.LBB0_46
	.long	.LBB0_46
	.long	.LBB0_46
	.long	.LBB0_46
	.long	.LBB0_46
	.long	.LBB0_46
	.long	.LBB0_46
	.long	.LBB0_46
	.long	.LBB0_46
	.long	.LBB0_46
	.long	.LBB0_46
	.long	.LBB0_39
	.section	.stack_sizes,"o",@progbits,.rodata.printf
	.long	.Lfunc_begin0
	.byte	48
	.section	.rodata.printf,"a",@progbits
                                        // -- End function
	.section	.text.__write_byte_and_flush_if_needed,"ax",@progbits
	.type	__write_byte_and_flush_if_needed,@function // -- Begin function __write_byte_and_flush_if_needed
__write_byte_and_flush_if_needed:       // @__write_byte_and_flush_if_needed
.Lfunc_begin1:
	.loc	1 64 0                          // uPIMulator_frontend/sdk/stdlib/stdio.c:64:0
	.cfi_startproc
// %bb.0:
	//DEBUG_VALUE: __write_byte_and_flush_if_needed:byte <- $r0
	.cfi_def_cfa_offset -8
	.cfi_offset 23, -8
	.cfi_offset 22, -4
	sd r22, 0, d22
	add r22, r22, 8
.Ltmp123:
	.loc	1 65 53 prologue_end            // uPIMulator_frontend/sdk/stdlib/stdio.c:65:53
	lw r1, zero, __stdout_cache_write_index
	//DEBUG_VALUE: __write_byte_and_flush_if_needed:byte <- $r0
	.loc	1 65 57 is_stmt 0               // uPIMulator_frontend/sdk/stdlib/stdio.c:65:57
	sb r1, __stdout_cache_buffer, r0
	.loc	1 65 53                         // uPIMulator_frontend/sdk/stdlib/stdio.c:65:53
	add r0, r1, 1
.Ltmp124:
	sw zero, __stdout_cache_write_index, r0
	.loc	1 66 9 is_stmt 1                // uPIMulator_frontend/sdk/stdlib/stdio.c:66:9
	jneq r0, 8, .LBB1_2
// %bb.1:
.Ltmp125:
	.loc	1 67 9                          // uPIMulator_frontend/sdk/stdlib/stdio.c:67:9
	call r23, __transfer_cache_to_mram
.Ltmp126:
	.loc	1 68 36                         // uPIMulator_frontend/sdk/stdlib/stdio.c:68:36
	move r0, __stdout_cache_write_index
	sw r0, 0, 0
.Ltmp127:
.LBB1_2:
	.loc	1 70 1                          // uPIMulator_frontend/sdk/stdlib/stdio.c:70:1
	ld d22, r22, -8
	jump r23
.Ltmp128:
.Lfunc_end1:
	.size	__write_byte_and_flush_if_needed, .Lfunc_end1-__write_byte_and_flush_if_needed
	.cfi_endproc
	.section	.stack_sizes,"o",@progbits,.text.__write_byte_and_flush_if_needed
	.long	.Lfunc_begin1
	.byte	8
	.section	.text.__write_byte_and_flush_if_needed,"ax",@progbits
                                        // -- End function
	.section	.text.puts,"ax",@progbits
	.globl	puts                            // -- Begin function puts
	.type	puts,@function
puts:                                   // @puts
.Lfunc_begin2:
	.loc	1 260 0                         // uPIMulator_frontend/sdk/stdlib/stdio.c:260:0
	.cfi_startproc
// %bb.0:
	//DEBUG_VALUE: puts:str <- $r0
	.cfi_def_cfa_offset -16
	.cfi_offset 23, -8
	.cfi_offset 22, -4
	sd r22, 8, d22
	add r22, r22, 16
	.cfi_offset 15, -16
	.cfi_offset 14, -12
	sd r22, -16, d14
	move r14, r0
.Ltmp129:
	//DEBUG_VALUE: puts:str <- $r14
	.loc	1 261 5 prologue_end            // uPIMulator_frontend/sdk/stdlib/stdio.c:261:5
	call r23, __open_print_sequence
.Ltmp130:
	.loc	1 0 5 is_stmt 0                 // uPIMulator_frontend/sdk/stdlib/stdio.c:0:5
	move r0, 37
	.loc	1 263 5 is_stmt 1               // uPIMulator_frontend/sdk/stdlib/stdio.c:263:5
	call r23, __write_byte_and_flush_if_needed
.Ltmp131:
	.loc	1 0 5 is_stmt 0                 // uPIMulator_frontend/sdk/stdlib/stdio.c:0:5
	move r0, 115
	.loc	1 264 5 is_stmt 1               // uPIMulator_frontend/sdk/stdlib/stdio.c:264:5
	call r23, __write_byte_and_flush_if_needed
.Ltmp132:
	.loc	1 0 5 is_stmt 0                 // uPIMulator_frontend/sdk/stdlib/stdio.c:0:5
	move r0, 0
	.loc	1 265 5 is_stmt 1               // uPIMulator_frontend/sdk/stdlib/stdio.c:265:5
	call r23, __write_byte_and_flush_if_needed
.Ltmp133:
	//DEBUG_VALUE: current_char_ptr <- $r14
	.loc	1 267 48                        // uPIMulator_frontend/sdk/stdlib/stdio.c:267:48
	lbu r0, r14, 0
.Ltmp134:
	.loc	1 267 5 is_stmt 0               // uPIMulator_frontend/sdk/stdlib/stdio.c:267:5
	jeq r0, 0, .LBB2_3
.Ltmp135:
// %bb.1:
	//DEBUG_VALUE: current_char_ptr <- $r14
	//DEBUG_VALUE: puts:str <- $r14
	add r14, r14, 1
.Ltmp136:
.LBB2_2:                                // =>This Inner Loop Header: Depth=1
	//DEBUG_VALUE: current_char_ptr <- [DW_OP_constu 1, DW_OP_minus, DW_OP_stack_value] $r14
	.loc	1 268 9 is_stmt 1               // uPIMulator_frontend/sdk/stdlib/stdio.c:268:9
	and r0, r0, 255
	call r23, __write_byte_and_flush_if_needed
.Ltmp137:
	//DEBUG_VALUE: current_char_ptr <- $r14
	.loc	1 267 48                        // uPIMulator_frontend/sdk/stdlib/stdio.c:267:48
	lbu r0, r14, 0
.Ltmp138:
	.loc	1 267 5 is_stmt 0               // uPIMulator_frontend/sdk/stdlib/stdio.c:267:5
	add r14, r14, 1
.Ltmp139:
	jneq r0, 0, .LBB2_2
.Ltmp140:
.LBB2_3:
	.loc	1 0 5                           // uPIMulator_frontend/sdk/stdlib/stdio.c:0:5
	move r0, 10
	.loc	1 271 5 is_stmt 1               // uPIMulator_frontend/sdk/stdlib/stdio.c:271:5
	call r23, __write_byte_and_flush_if_needed
.Ltmp141:
	.loc	1 0 5 is_stmt 0                 // uPIMulator_frontend/sdk/stdlib/stdio.c:0:5
	move r0, 0
	.loc	1 272 5 is_stmt 1               // uPIMulator_frontend/sdk/stdlib/stdio.c:272:5
	call r23, __write_byte_and_flush_if_needed
.Ltmp142:
	.loc	1 274 5                         // uPIMulator_frontend/sdk/stdlib/stdio.c:274:5
	call r23, __finalized_print_sequence
.Ltmp143:
	.loc	1 275 5                         // uPIMulator_frontend/sdk/stdlib/stdio.c:275:5
	call r23, __close_print_sequence
.Ltmp144:
	.loc	1 276 1                         // uPIMulator_frontend/sdk/stdlib/stdio.c:276:1
	ld d14, r22, -16
	ld d22, r22, -8
	jump r23
.Ltmp145:
.Lfunc_end2:
	.size	puts, .Lfunc_end2-puts
	.cfi_endproc
	.section	.stack_sizes,"o",@progbits,.text.puts
	.long	.Lfunc_begin2
	.byte	16
	.section	.text.puts,"ax",@progbits
                                        // -- End function
	.section	.text.putchar,"ax",@progbits
	.globl	putchar                         // -- Begin function putchar
	.type	putchar,@function
putchar:                                // @putchar
.Lfunc_begin3:
	.loc	1 280 0                         // uPIMulator_frontend/sdk/stdlib/stdio.c:280:0
	.cfi_startproc
// %bb.0:
	//DEBUG_VALUE: putchar:c <- $r0
	.cfi_def_cfa_offset -16
	.cfi_offset 23, -8
	.cfi_offset 22, -4
	sd r22, 8, d22
	add r22, r22, 16
	.cfi_offset 15, -16
	.cfi_offset 14, -12
	sd r22, -16, d14
	move r14, r0
.Ltmp146:
	//DEBUG_VALUE: putchar:c <- $r14
	.loc	1 281 5 prologue_end            // uPIMulator_frontend/sdk/stdlib/stdio.c:281:5
	call r23, __open_print_sequence
.Ltmp147:
	.loc	1 0 5 is_stmt 0                 // uPIMulator_frontend/sdk/stdlib/stdio.c:0:5
	move r0, 37
	.loc	1 283 5 is_stmt 1               // uPIMulator_frontend/sdk/stdlib/stdio.c:283:5
	call r23, __write_byte_and_flush_if_needed
.Ltmp148:
	.loc	1 0 5 is_stmt 0                 // uPIMulator_frontend/sdk/stdlib/stdio.c:0:5
	move r0, 99
	.loc	1 284 5 is_stmt 1               // uPIMulator_frontend/sdk/stdlib/stdio.c:284:5
	call r23, __write_byte_and_flush_if_needed
.Ltmp149:
	.loc	1 0 5 is_stmt 0                 // uPIMulator_frontend/sdk/stdlib/stdio.c:0:5
	move r0, 0
	.loc	1 285 5 is_stmt 1               // uPIMulator_frontend/sdk/stdlib/stdio.c:285:5
	call r23, __write_byte_and_flush_if_needed
.Ltmp150:
	.loc	1 288 5                         // uPIMulator_frontend/sdk/stdlib/stdio.c:288:5
	and r0, r14, 255
.Ltmp151:
	//DEBUG_VALUE: putchar:arg_as_char <- $r0
	call r23, __write_byte_and_flush_if_needed
.Ltmp152:
	.loc	1 290 5                         // uPIMulator_frontend/sdk/stdlib/stdio.c:290:5
	call r23, __finalized_print_sequence
.Ltmp153:
	.loc	1 291 5                         // uPIMulator_frontend/sdk/stdlib/stdio.c:291:5
	call r23, __close_print_sequence
.Ltmp154:
	.loc	1 292 1                         // uPIMulator_frontend/sdk/stdlib/stdio.c:292:1
	ld d14, r22, -16
.Ltmp155:
	ld d22, r22, -8
	jump r23
.Ltmp156:
.Lfunc_end3:
	.size	putchar, .Lfunc_end3-putchar
	.cfi_endproc
	.section	.stack_sizes,"o",@progbits,.text.putchar
	.long	.Lfunc_begin3
	.byte	16
	.section	.text.putchar,"ax",@progbits
                                        // -- End function
	.section	.text.__open_print_sequence,"ax",@progbits
	.type	__open_print_sequence,@function // -- Begin function __open_print_sequence
__open_print_sequence:                  // @__open_print_sequence
.Lfunc_begin4:
	.loc	1 85 0                          // uPIMulator_frontend/sdk/stdlib/stdio.c:85:0
	.cfi_startproc
// %bb.0:
	.cfi_def_cfa_offset 0
	.loc	1 86 5 prologue_end             // uPIMulator_frontend/sdk/stdlib/stdio.c:86:5
	// inline asm
.Ltmp157:
	acquire zero, __atomic_bit___stdout_buffer_lock, nz, .Ltmp157
	// inline asm
	.loc	1 87 32                         // uPIMulator_frontend/sdk/stdlib/stdio.c:87:32
	move r0, __stdout_cache_write_index
	.loc	1 89 67                         // uPIMulator_frontend/sdk/stdlib/stdio.c:89:67
	lw r1, zero, __stdout_buffer_state
	.loc	1 87 32                         // uPIMulator_frontend/sdk/stdlib/stdio.c:87:32
	sw r0, 0, 0
	.loc	1 88 29                         // uPIMulator_frontend/sdk/stdlib/stdio.c:88:29
	move r0, __stdout_nr_of_wrapping
	sw r0, 0, 0
	.loc	1 89 43                         // uPIMulator_frontend/sdk/stdlib/stdio.c:89:43
	sw zero, __stdout_buffer_write_pointer_initial, r1
	.loc	1 90 1                          // uPIMulator_frontend/sdk/stdlib/stdio.c:90:1
	jump r23
.Ltmp158:
.Lfunc_end4:
	.size	__open_print_sequence, .Lfunc_end4-__open_print_sequence
	.cfi_endproc
	.section	.stack_sizes,"o",@progbits,.text.__open_print_sequence
	.long	.Lfunc_begin4
	.byte	0
	.section	.text.__open_print_sequence,"ax",@progbits
                                        // -- End function
	.section	.text.__transfer_cache_to_mram,"ax",@progbits
	.type	__transfer_cache_to_mram,@function // -- Begin function __transfer_cache_to_mram
__transfer_cache_to_mram:               // @__transfer_cache_to_mram
.Lfunc_begin5:
	.loc	1 47 0                          // uPIMulator_frontend/sdk/stdlib/stdio.c:47:0
	.cfi_startproc
// %bb.0:
	.cfi_def_cfa_offset 0
	.loc	1 48 81 prologue_end            // uPIMulator_frontend/sdk/stdlib/stdio.c:48:81
	lw r0, zero, __stdout_buffer_state
.Ltmp159:
	//DEBUG_VALUE: __transfer_cache_to_mram:offset_in_mram <- undef
	.loc	1 51 37                         // uPIMulator_frontend/sdk/stdlib/stdio.c:51:37
	lw r1, zero, __stdout_buffer_size
.Ltmp160:
	.loc	1 50 30                         // uPIMulator_frontend/sdk/stdlib/stdio.c:50:30
	add r2, r0, 8
	sw zero, __stdout_buffer_state, r2
	.loc	1 51 9                          // uPIMulator_frontend/sdk/stdlib/stdio.c:51:9
	jltu r2, r1, .LBB5_2
.Ltmp161:
// %bb.1:
	.loc	1 54 32                         // uPIMulator_frontend/sdk/stdlib/stdio.c:54:32
	lw r1, zero, __stdout_nr_of_wrapping
	move r3, 0
	move r2, 1
	.loc	1 52 34                         // uPIMulator_frontend/sdk/stdlib/stdio.c:52:34
	sd zero, __stdout_buffer_state, d2
	.loc	1 54 32                         // uPIMulator_frontend/sdk/stdlib/stdio.c:54:32
	add r1, r1, 1
	sw zero, __stdout_nr_of_wrapping, r1
.Ltmp162:
.LBB5_2:
	.loc	1 48 84                         // uPIMulator_frontend/sdk/stdlib/stdio.c:48:84
	move r1, __stdout_buffer
	add r0, r0, r1
.Ltmp163:
	//DEBUG_VALUE: mram_write:nb_of_bytes <- 8
	//DEBUG_VALUE: mram_write:to <- $r0
	//DEBUG_VALUE: __transfer_cache_to_mram:offset_in_mram <- $r0
	.file	3 "/root" "uPIMulator_frontend/sdk/syslib/mram.h"
	.loc	3 53 24                         // uPIMulator_frontend/sdk/syslib/mram.h:53:24
	move r1, __stdout_cache_buffer
.Ltmp164:
	//DEBUG_VALUE: mram_write:from <- $r1
	sdma r1, r0, 0
.Ltmp165:
	.loc	1 58 1                          // uPIMulator_frontend/sdk/stdlib/stdio.c:58:1
	jump r23
.Ltmp166:
.Lfunc_end5:
	.size	__transfer_cache_to_mram, .Lfunc_end5-__transfer_cache_to_mram
	.cfi_endproc
	.section	.stack_sizes,"o",@progbits,.text.__transfer_cache_to_mram
	.long	.Lfunc_begin5
	.byte	0
	.section	.text.__transfer_cache_to_mram,"ax",@progbits
                                        // -- End function
	.section	.text.__finalized_print_sequence,"ax",@progbits
	.type	__finalized_print_sequence,@function // -- Begin function __finalized_print_sequence
__finalized_print_sequence:             // @__finalized_print_sequence
.Lfunc_begin6:
	.loc	1 74 0                          // uPIMulator_frontend/sdk/stdlib/stdio.c:74:0
	.cfi_startproc
// %bb.0:
	.cfi_def_cfa_offset -8
	.cfi_offset 23, -8
	.cfi_offset 22, -4
	sd r22, 0, d22
	add r22, r22, 8
.Ltmp167:
	.loc	1 75 36 prologue_end            // uPIMulator_frontend/sdk/stdlib/stdio.c:75:36
	lw r1, zero, __stdout_cache_write_index
	.loc	1 75 34 is_stmt 0               // uPIMulator_frontend/sdk/stdlib/stdio.c:75:34
	move r0, __stdout_cache_buffer
	add r0, r0, r1
	.loc	1 75 92                         // uPIMulator_frontend/sdk/stdlib/stdio.c:75:92
	sub r2, 8, r1
	move r1, 0
	.loc	1 75 5                          // uPIMulator_frontend/sdk/stdlib/stdio.c:75:5
	call r23, memset
.Ltmp168:
	.loc	1 76 5 is_stmt 1                // uPIMulator_frontend/sdk/stdlib/stdio.c:76:5
	call r23, __transfer_cache_to_mram
.Ltmp169:
	.loc	1 78 9                          // uPIMulator_frontend/sdk/stdlib/stdio.c:78:9
	lw r0, zero, __stdout_nr_of_wrapping
	.loc	1 79 9                          // uPIMulator_frontend/sdk/stdlib/stdio.c:79:9
	jgtu r0, 1, .LBB6_3
// %bb.1:
	.loc	1 79 42 is_stmt 0               // uPIMulator_frontend/sdk/stdlib/stdio.c:79:42
	jneq r0, 1, .LBB6_4
// %bb.2:
	.loc	1 79 67                         // uPIMulator_frontend/sdk/stdlib/stdio.c:79:67
	lw r0, zero, __stdout_buffer_state
	.loc	1 79 72                         // uPIMulator_frontend/sdk/stdlib/stdio.c:79:72
	lw r1, zero, __stdout_buffer_write_pointer_initial
.Ltmp170:
	.loc	1 78 9 is_stmt 1                // uPIMulator_frontend/sdk/stdlib/stdio.c:78:9
	jleu r0, r1, .LBB6_4
.LBB6_3:
.Ltmp171:
	.loc	1 80 9                          // uPIMulator_frontend/sdk/stdlib/stdio.c:80:9
	// inline asm
	fault 5
	// inline asm
.Ltmp172:
.LBB6_4:
	.loc	1 81 1                          // uPIMulator_frontend/sdk/stdlib/stdio.c:81:1
	ld d22, r22, -8
	jump r23
.Ltmp173:
.Lfunc_end6:
	.size	__finalized_print_sequence, .Lfunc_end6-__finalized_print_sequence
	.cfi_endproc
	.section	.stack_sizes,"o",@progbits,.text.__finalized_print_sequence
	.long	.Lfunc_begin6
	.byte	8
	.section	.text.__finalized_print_sequence,"ax",@progbits
                                        // -- End function
	.section	.text.__close_print_sequence,"ax",@progbits
	.type	__close_print_sequence,@function // -- Begin function __close_print_sequence
__close_print_sequence:                 // @__close_print_sequence
.Lfunc_begin7:
	.loc	1 96 0                          // uPIMulator_frontend/sdk/stdlib/stdio.c:96:0
	.cfi_startproc
// %bb.0:
	.cfi_def_cfa_offset 0
	.loc	1 97 5 prologue_end             // uPIMulator_frontend/sdk/stdlib/stdio.c:97:5
	// inline asm
.Ltmp174:
	release zero, __atomic_bit___stdout_buffer_lock, nz, .Ltmp174+1
	// inline asm
	.loc	1 98 1                          // uPIMulator_frontend/sdk/stdlib/stdio.c:98:1
	jump r23
.Ltmp175:
.Lfunc_end7:
	.size	__close_print_sequence, .Lfunc_end7-__close_print_sequence
	.cfi_endproc
	.section	.stack_sizes,"o",@progbits,.text.__close_print_sequence
	.long	.Lfunc_begin7
	.byte	0
	.section	.text.__close_print_sequence,"ax",@progbits
                                        // -- End function
	.type	__stdout_buffer_size,@object    // @__stdout_buffer_size
	.section	.data.__stdout_buffer_size,"aw",@progbits
	.weak	__stdout_buffer_size
	.p2align	2
__stdout_buffer_size:
	.long	1048576                         // 0x100000
	.size	__stdout_buffer_size, 4

	.type	__stdout_buffer,@object         // @__stdout_buffer
	.section	.mram.noinit,"aw",@progbits
	.weak	__stdout_buffer
	.p2align	3
__stdout_buffer:
	.zero	1048576
	.size	__stdout_buffer, 1048576

	.type	__stdout_buffer_state,@object   // @__stdout_buffer_state
	.section	.data.immediate_memory.__stdout_buffer_state,"aw",@progbits
	.globl	__stdout_buffer_state
	.p2align	3
__stdout_buffer_state:
	.zero	8
	.size	__stdout_buffer_state, 8

	.type	__atomic_bit___stdout_buffer_lock,@object // @__atomic_bit___stdout_buffer_lock
	.section	.atomic,"aw",@progbits
	.globl	__atomic_bit___stdout_buffer_lock
__atomic_bit___stdout_buffer_lock:
	.byte	0                               // 0x0
	.size	__atomic_bit___stdout_buffer_lock, 1

	.type	__stdout_cache_write_index,@object // @__stdout_cache_write_index
	.section	.bss.__stdout_cache_write_index,"aw",@nobits
	.p2align	2
__stdout_cache_write_index:
	.long	0                               // 0x0
	.size	__stdout_cache_write_index, 4

	.type	__stdout_nr_of_wrapping,@object // @__stdout_nr_of_wrapping
	.section	.bss.__stdout_nr_of_wrapping,"aw",@nobits
	.p2align	2
__stdout_nr_of_wrapping:
	.long	0                               // 0x0
	.size	__stdout_nr_of_wrapping, 4

	.type	__stdout_buffer_write_pointer_initial,@object // @__stdout_buffer_write_pointer_initial
	.section	.bss.__stdout_buffer_write_pointer_initial,"aw",@nobits
	.p2align	2
__stdout_buffer_write_pointer_initial:
	.long	0                               // 0x0
	.size	__stdout_buffer_write_pointer_initial, 4

	.type	__stdout_cache_buffer,@object   // @__stdout_cache_buffer
	.section	.bss.__stdout_cache_buffer,"aw",@nobits
	.p2align	3
__stdout_cache_buffer:
	.zero	8
	.size	__stdout_cache_buffer, 8

	.file	4 "/root" "uPIMulator_frontend/sdk/stdlib/stdarg.h"