	.text
	.file	"stpncpy.c"
	.section	.text.stpncpy,"ax",@progbits
	.globl	stpncpy                         // -- Begin function stpncpy
	.type	stpncpy,@function
stpncpy:                                // @stpncpy
.Lfunc_begin0:
	.file	1 "/root" "uPIMulator_frontend/sdk/stdlib/stpncpy.c"
	.loc	1 10 0                          // uPIMulator_frontend/sdk/stdlib/stpncpy.c:10:0
	.cfi_sections .debug_frame
	.cfi_startproc
// %bb.0:
	//DEBUG_VALUE: stpncpy:destination <- $r0
	//DEBUG_VALUE: stpncpy:source <- $r1
	//DEBUG_VALUE: stpncpy:size <- $r2
	.cfi_def_cfa_offset -16
	.cfi_offset 23, -8
	.cfi_offset 22, -4
	sd r22, 8, d22
	add r22, r22, 16
	.cfi_offset 15, -16
	.cfi_offset 14, -12
	sd r22, -16, d14
	move r14, r0
.Ltmp0:
	//DEBUG_VALUE: stpncpy:each_byte <- 0
	//DEBUG_VALUE: stpncpy:c <- undef
	//DEBUG_VALUE: stpncpy:size <- $r2
	//DEBUG_VALUE: stpncpy:source <- $r1
	//DEBUG_VALUE: stpncpy:destination <- $r14
	.loc	1 14 5 prologue_end             // uPIMulator_frontend/sdk/stdlib/stpncpy.c:14:5
	jeq r2, 0, .LBB0_7
.Ltmp1:
// %bb.1:
	//DEBUG_VALUE: stpncpy:destination <- $r14
	//DEBUG_VALUE: stpncpy:size <- $r2
	//DEBUG_VALUE: stpncpy:source <- $r1
	//DEBUG_VALUE: stpncpy:each_byte <- 0
	.loc	1 0 5 is_stmt 0                 // uPIMulator_frontend/sdk/stdlib/stpncpy.c:0:5
	move r0, 0
.Ltmp2:
.LBB0_2:                                // =>This Inner Loop Header: Depth=1
	//DEBUG_VALUE: stpncpy:size <- $r2
	add r3, r1, r0
	lbu r3, r3, 0
.Ltmp3:
	//DEBUG_VALUE: stpncpy:each_byte <- $r0
	//DEBUG_VALUE: stpncpy:source <- undef
	//DEBUG_VALUE: stpncpy:destination <- undef
	.loc	1 15 13 is_stmt 1               // uPIMulator_frontend/sdk/stdlib/stpncpy.c:15:13
	jeq r3, 0, .LBB0_3
.Ltmp4:
// %bb.5:                               //   in Loop: Header=BB0_2 Depth=1
	//DEBUG_VALUE: stpncpy:size <- $r2
	//DEBUG_VALUE: stpncpy:each_byte <- $r0
	.loc	1 26 22                         // uPIMulator_frontend/sdk/stdlib/stpncpy.c:26:22
	add r4, r14, r0
.Ltmp5:
	.loc	1 14 43                         // uPIMulator_frontend/sdk/stdlib/stpncpy.c:14:43
	add r0, r0, 1
.Ltmp6:
	//DEBUG_VALUE: stpncpy:each_byte <- $r0
	//DEBUG_VALUE: stpncpy:c <- undef
	.loc	1 26 22                         // uPIMulator_frontend/sdk/stdlib/stpncpy.c:26:22
	sb r4, 0, r3
.Ltmp7:
	//DEBUG_VALUE: stpncpy:c <- undef
	//DEBUG_VALUE: stpncpy:source <- [DW_OP_plus_uconst 1, DW_OP_stack_value] undef
	//DEBUG_VALUE: stpncpy:destination <- [DW_OP_plus_uconst 1, DW_OP_stack_value] undef
	.loc	1 14 5                          // uPIMulator_frontend/sdk/stdlib/stpncpy.c:14:5
	jneq r2, r0, .LBB0_2
.Ltmp8:
// %bb.6:
	//DEBUG_VALUE: stpncpy:size <- $r2
	//DEBUG_VALUE: stpncpy:each_byte <- $r0
	.loc	1 33 1                          // uPIMulator_frontend/sdk/stdlib/stpncpy.c:33:1
	add r14, r14, r0
.Ltmp9:
.LBB0_7:
	//DEBUG_VALUE: stpncpy:size <- $r2
	move r0, r14
	ld d14, r22, -16
	ld d22, r22, -8
	jump r23
.Ltmp10:
.LBB0_3:
	//DEBUG_VALUE: stpncpy:size <- $r2
	//DEBUG_VALUE: stpncpy:each_byte <- $r0
	//DEBUG_VALUE: stpncpy:destination <- undef
	//DEBUG_VALUE: stpncpy:each_byte <- $r0
	.loc	1 18 13                         // uPIMulator_frontend/sdk/stdlib/stpncpy.c:18:13
	add r14, r14, r0
	jgeu r0, r2, .LBB0_7
.Ltmp11:
// %bb.4:
	//DEBUG_VALUE: stpncpy:size <- $r2
	//DEBUG_VALUE: stpncpy:each_byte <- $r0
	sub r2, r2, r0
.Ltmp12:
	.loc	1 0 13 is_stmt 0                // uPIMulator_frontend/sdk/stdlib/stpncpy.c:0:13
	move r1, 0
.Ltmp13:
	.loc	1 19 30 is_stmt 1               // uPIMulator_frontend/sdk/stdlib/stpncpy.c:19:30
	move r0, r14
.Ltmp14:
	call r23, memset
.Ltmp15:
	//DEBUG_VALUE: stpncpy:each_byte <- [DW_OP_plus_uconst 1, DW_OP_stack_value] undef
	//DEBUG_VALUE: stpncpy:destination <- [DW_OP_plus_uconst 1, DW_OP_stack_value] undef
	.loc	1 33 1                          // uPIMulator_frontend/sdk/stdlib/stpncpy.c:33:1
	move r0, r14
	ld d14, r22, -16
	ld d22, r22, -8
	jump r23
.Ltmp16:
.Lfunc_end0:
	.size	stpncpy, .Lfunc_end0-stpncpy
	.cfi_endproc
	.section	.stack_sizes,"o",@progbits,.text.stpncpy
	.long	.Lfunc_begin0
	.byte	16
	.section	.text.stpncpy,"ax",@progbits
                                        // -- End function
	.file	2 "/root" "uPIMulator_frontend/sdk/stdlib/stddef.h"