	.text
	.file	"strncat.c"
	.section	.text.strncat,"ax",@progbits
	.globl	strncat                         // -- Begin function strncat
	.type	strncat,@function
strncat:                                // @strncat
.Lfunc_begin0:
	.file	1 "/root" "uPIMulator_frontend/sdk/stdlib/strncat.c"
	.loc	1 10 0                          // uPIMulator_frontend/sdk/stdlib/strncat.c:10:0
	.cfi_sections .debug_frame
	.cfi_startproc
// %bb.0:
	//DEBUG_VALUE: strncat:destination <- $r0
	//DEBUG_VALUE: strncat:source <- $r1
	//DEBUG_VALUE: strncat:size <- $r2
	.cfi_def_cfa_offset -24
	.cfi_offset 23, -8
	.cfi_offset 22, -4
	sd r22, 16, d22
	add r22, r22, 24
	.cfi_offset 15, -16
	.cfi_offset 14, -12
	sd r22, -16, d14
	.cfi_offset 17, -24
	.cfi_offset 16, -20
	sd r22, -24, d16
	move r15, r2
	move r16, r1
	move r14, r0
.Ltmp0:
	//DEBUG_VALUE: strncat:size <- $r15
	//DEBUG_VALUE: strncat:source <- $r16
	//DEBUG_VALUE: strncat:destination <- $r14
	.loc	1 11 21 prologue_end            // uPIMulator_frontend/sdk/stdlib/strncat.c:11:21
	call r23, strlen
.Ltmp1:
	//DEBUG_VALUE: strncat:i <- 0
	//DEBUG_VALUE: strncat:length <- $r0
	.loc	1 14 28                         // uPIMulator_frontend/sdk/stdlib/strncat.c:14:28
	jeq r15, 0, .LBB0_1
.Ltmp2:
// %bb.2:
	//DEBUG_VALUE: strncat:source <- $r16
	//DEBUG_VALUE: strncat:size <- $r15
	//DEBUG_VALUE: strncat:destination <- $r14
	//DEBUG_VALUE: strncat:length <- $r0
	//DEBUG_VALUE: strncat:i <- 0
	.loc	1 14 5 is_stmt 0                // uPIMulator_frontend/sdk/stdlib/strncat.c:14:5
	add r2, r14, r0
	move r1, 0
.Ltmp3:
.LBB0_3:                                // =>This Inner Loop Header: Depth=1
	//DEBUG_VALUE: strncat:source <- $r16
	//DEBUG_VALUE: strncat:size <- $r15
	//DEBUG_VALUE: strncat:destination <- $r14
	//DEBUG_VALUE: strncat:length <- $r0
	//DEBUG_VALUE: strncat:i <- $r1
	.loc	1 14 32                         // uPIMulator_frontend/sdk/stdlib/strncat.c:14:32
	add r3, r16, r1
	lbu r3, r3, 0
.Ltmp4:
	.loc	1 14 5                          // uPIMulator_frontend/sdk/stdlib/strncat.c:14:5
	jeq r3, 0, .LBB0_6
.Ltmp5:
// %bb.4:                               //   in Loop: Header=BB0_3 Depth=1
	//DEBUG_VALUE: strncat:source <- $r16
	//DEBUG_VALUE: strncat:size <- $r15
	//DEBUG_VALUE: strncat:destination <- $r14
	//DEBUG_VALUE: strncat:i <- $r1
	//DEBUG_VALUE: strncat:length <- $r0
	.loc	1 15 33 is_stmt 1               // uPIMulator_frontend/sdk/stdlib/strncat.c:15:33
	add r4, r2, r1
.Ltmp6:
	.loc	1 14 53                         // uPIMulator_frontend/sdk/stdlib/strncat.c:14:53
	add r1, r1, 1
.Ltmp7:
	//DEBUG_VALUE: strncat:i <- $r1
	.loc	1 15 33                         // uPIMulator_frontend/sdk/stdlib/strncat.c:15:33
	sb r4, 0, r3
.Ltmp8:
	.loc	1 14 28                         // uPIMulator_frontend/sdk/stdlib/strncat.c:14:28
	jneq r15, r1, .LBB0_3
.Ltmp9:
// %bb.5:
	//DEBUG_VALUE: strncat:source <- $r16
	//DEBUG_VALUE: strncat:size <- $r15
	//DEBUG_VALUE: strncat:destination <- $r14
	//DEBUG_VALUE: strncat:i <- $r1
	//DEBUG_VALUE: strncat:length <- $r0
	.loc	1 0 0 is_stmt 0                 // uPIMulator_frontend/sdk/stdlib/strncat.c:0:0
	move r1, r15, true, .LBB0_6
.Ltmp10:
.LBB0_1:
	//DEBUG_VALUE: strncat:source <- $r16
	//DEBUG_VALUE: strncat:size <- $r15
	//DEBUG_VALUE: strncat:destination <- $r14
	//DEBUG_VALUE: strncat:length <- $r0
	//DEBUG_VALUE: strncat:i <- 0
	move r1, 0
.Ltmp11:
.LBB0_6:
	//DEBUG_VALUE: strncat:source <- $r16
	//DEBUG_VALUE: strncat:size <- $r15
	//DEBUG_VALUE: strncat:destination <- $r14
	//DEBUG_VALUE: strncat:length <- $r0
	.loc	1 18 24 is_stmt 1               // uPIMulator_frontend/sdk/stdlib/strncat.c:18:24
	add r0, r1, r0
.Ltmp12:
	.loc	1 18 5 is_stmt 0                // uPIMulator_frontend/sdk/stdlib/strncat.c:18:5
	add r0, r14, r0
	.loc	1 18 29                         // uPIMulator_frontend/sdk/stdlib/strncat.c:18:29
	sb r0, 0, 0
	.loc	1 20 5 is_stmt 1                // uPIMulator_frontend/sdk/stdlib/strncat.c:20:5
	move r0, r14
	ld d16, r22, -24
.Ltmp13:
	ld d14, r22, -16
.Ltmp14:
	ld d22, r22, -8
	jump r23
.Ltmp15:
.Lfunc_end0:
	.size	strncat, .Lfunc_end0-strncat
	.cfi_endproc
	.section	.stack_sizes,"o",@progbits,.text.strncat
	.long	.Lfunc_begin0
	.byte	24
	.section	.text.strncat,"ax",@progbits
                                        // -- End function
	.file	2 "/root" "uPIMulator_frontend/sdk/stdlib/stddef.h"