	.text
	.file	"strndup.c"
	.section	.text.strndup,"ax",@progbits
	.globl	strndup                         // -- Begin function strndup
	.type	strndup,@function
strndup:                                // @strndup
.Lfunc_begin0:
	.file	1 "/root" "uPIMulator_frontend/sdk/stdlib/strndup.c"
	.loc	1 11 0                          // uPIMulator_frontend/sdk/stdlib/strndup.c:11:0
	.cfi_sections .debug_frame
	.cfi_startproc
// %bb.0:
	//DEBUG_VALUE: strndup:string <- $r0
	//DEBUG_VALUE: strndup:n <- $r1
	.cfi_def_cfa_offset -24
	.cfi_offset 23, -8
	.cfi_offset 22, -4
	sd r22, 16, d22
	add r22, r22, 24
	.cfi_offset 15, -16
	.cfi_offset 14, -12
	sd r22, -16, d14
	.cfi_offset 17, -24
	.cfi_offset 16, -20
	sd r22, -24, d16
	move r14, r0
	//DEBUG_VALUE: strndup:n <- $r1
.Ltmp0:
	//DEBUG_VALUE: strndup:string <- $r14
	//DEBUG_VALUE: strndup:n <- $r1
	.loc	1 12 21 prologue_end            // uPIMulator_frontend/sdk/stdlib/strndup.c:12:21
	call r23, strnlen
.Ltmp1:
	move r15, r0
.Ltmp2:
	//DEBUG_VALUE: strndup:length <- $r15
	.loc	1 13 39                         // uPIMulator_frontend/sdk/stdlib/strndup.c:13:39
	add r0, r15, 1
	.loc	1 13 20 is_stmt 0               // uPIMulator_frontend/sdk/stdlib/strndup.c:13:20
	call r23, buddy_alloc
.Ltmp3:
	//DEBUG_VALUE: strndup:result <- $r16
	move r16, r0, z, .LBB0_2
.Ltmp4:
// %bb.1:
	//DEBUG_VALUE: strndup:length <- $r15
	//DEBUG_VALUE: strndup:string <- $r14
	//DEBUG_VALUE: strndup:n <- $r1
	.loc	1 16 9 is_stmt 1                // uPIMulator_frontend/sdk/stdlib/strndup.c:16:9
	move r0, r16
	move r1, r14
.Ltmp5:
	move r2, r15
	call r23, memcpy
.Ltmp6:
	.loc	1 17 38                         // uPIMulator_frontend/sdk/stdlib/strndup.c:17:38
	add r0, r16, r15
	sb r0, 1, 0
.Ltmp7:
.LBB0_2:
	//DEBUG_VALUE: strndup:length <- $r15
	//DEBUG_VALUE: strndup:string <- $r14
	.loc	1 20 5                          // uPIMulator_frontend/sdk/stdlib/strndup.c:20:5
	move r0, r16
	ld d16, r22, -24
	ld d14, r22, -16
.Ltmp8:
	ld d22, r22, -8
	jump r23
.Ltmp9:
.Lfunc_end0:
	.size	strndup, .Lfunc_end0-strndup
	.cfi_endproc
	.section	.stack_sizes,"o",@progbits,.text.strndup
	.long	.Lfunc_begin0
	.byte	24
	.section	.text.strndup,"ax",@progbits
                                        // -- End function
	.file	2 "/root" "uPIMulator_frontend/sdk/stdlib/stddef.h"