	.text
	.file	"strpbrk.c"
	.section	.text.strpbrk,"ax",@progbits
	.globl	strpbrk                         // -- Begin function strpbrk
	.type	strpbrk,@function
strpbrk:                                // @strpbrk
.Lfunc_begin0:
	.file	1 "/root" "uPIMulator_frontend/sdk/stdlib/strpbrk.c"
	.loc	1 11 0                          // uPIMulator_frontend/sdk/stdlib/strpbrk.c:11:0
	.cfi_sections .debug_frame
	.cfi_startproc
// %bb.0:
	//DEBUG_VALUE: strpbrk:string <- $r0
	//DEBUG_VALUE: strpbrk:accept <- $r1
	.cfi_def_cfa_offset -16
	.cfi_offset 23, -8
	.cfi_offset 22, -4
	sd r22, 8, d22
	add r22, r22, 16
	.cfi_offset 15, -16
	.cfi_offset 14, -12
	sd r22, -16, d14
	move r14, r0
	//DEBUG_VALUE: strpbrk:accept <- $r1
.Ltmp0:
	//DEBUG_VALUE: strpbrk:string <- $r14
	//DEBUG_VALUE: strpbrk:accept <- $r1
	.loc	1 12 15 prologue_end            // uPIMulator_frontend/sdk/stdlib/strpbrk.c:12:15
	call r23, strcspn
.Ltmp1:
	.loc	1 12 12 is_stmt 0               // uPIMulator_frontend/sdk/stdlib/strpbrk.c:12:12
	add r0, r14, r0
.Ltmp2:
	//DEBUG_VALUE: strpbrk:string <- $r0
	.loc	1 13 12 is_stmt 1               // uPIMulator_frontend/sdk/stdlib/strpbrk.c:13:12
	lbs r1, r0, 0
.Ltmp3:
	.loc	1 0 12 is_stmt 0                // uPIMulator_frontend/sdk/stdlib/strpbrk.c:0:12
	and r1, r1, 255
	.loc	1 13 12                         // uPIMulator_frontend/sdk/stdlib/strpbrk.c:13:12
	jeq r1, 0, .LBB0_1
.Ltmp4:
// %bb.2:
	//DEBUG_VALUE: strpbrk:string <- $r0
	.loc	1 13 5                          // uPIMulator_frontend/sdk/stdlib/strpbrk.c:13:5
	ld d14, r22, -16
	ld d22, r22, -8
	jump r23
.Ltmp5:
.LBB0_1:
	//DEBUG_VALUE: strpbrk:string <- $r0
	.loc	1 0 5                           // uPIMulator_frontend/sdk/stdlib/strpbrk.c:0:5
	move r0, 0
.Ltmp6:
	.loc	1 13 5                          // uPIMulator_frontend/sdk/stdlib/strpbrk.c:13:5
	ld d14, r22, -16
	ld d22, r22, -8
	jump r23
.Ltmp7:
.Lfunc_end0:
	.size	strpbrk, .Lfunc_end0-strpbrk
	.cfi_endproc
	.section	.stack_sizes,"o",@progbits,.text.strpbrk
	.long	.Lfunc_begin0
	.byte	16
	.section	.text.strpbrk,"ax",@progbits
                                        // -- End function