	.text
	.file	"alloc.c"
	.file	1 "/root" "uPIMulator_frontend/sdk/syslib/alloc.c"
	.file	2 "/root" "uPIMulator_frontend/sdk/stdlib/stdint.h"
	.section	.text.mem_alloc_nolock,"ax",@progbits
	.globl	mem_alloc_nolock                // -- Begin function mem_alloc_nolock
	.type	mem_alloc_nolock,@function
mem_alloc_nolock:                       // @mem_alloc_nolock
.Lfunc_begin0:
	.loc	1 20 0                          // uPIMulator_frontend/sdk/syslib/alloc.c:20:0
	.cfi_sections .debug_frame
	.cfi_startproc
// %bb.0:
	//DEBUG_VALUE: mem_alloc_nolock:size <- $r0
	.cfi_def_cfa_offset 0
	.loc	1 21 28 prologue_end            // uPIMulator_frontend/sdk/syslib/alloc.c:21:28
	lw r1, zero, __sys_heap_pointer
.Ltmp0:
	//DEBUG_VALUE: mem_alloc_nolock:pointer <- $r1
	//DEBUG_VALUE: mem_alloc_nolock:size <- $r0
	.loc	1 23 9                          // uPIMulator_frontend/sdk/syslib/alloc.c:23:9
	jeq r0, 0, .LBB0_2
.Ltmp1:
// %bb.1:
	//DEBUG_VALUE: mem_alloc_nolock:pointer <- $r1
	//DEBUG_VALUE: mem_alloc_nolock:size <- $r0
	.loc	1 24 28                         // uPIMulator_frontend/sdk/syslib/alloc.c:24:28
	add r1, r1, 7
.Ltmp2:
	.loc	1 24 33 is_stmt 0               // uPIMulator_frontend/sdk/syslib/alloc.c:24:33
	and r1, r1, -8
.Ltmp3:
	//DEBUG_VALUE: mem_alloc_nolock:pointer <- $r1
	.loc	1 28 9 is_stmt 1                // uPIMulator_frontend/sdk/syslib/alloc.c:28:9
	// inline asm
.Ltmp4:
	add r0, r1, r0, nc, .Ltmp4+2
	fault 1
	lbu r2, r0, -1

	// inline asm
.Ltmp5:
	//DEBUG_VALUE: dummy <- undef
	//DEBUG_VALUE: new_heap_pointer <- $r0
	.loc	1 34 24                         // uPIMulator_frontend/sdk/syslib/alloc.c:34:24
	sw zero, __sys_heap_pointer, r0
.Ltmp6:
.LBB0_2:
	//DEBUG_VALUE: mem_alloc_nolock:pointer <- $r1
	//DEBUG_VALUE: mem_alloc_nolock:pointer <- $r1
	.loc	1 36 5                          // uPIMulator_frontend/sdk/syslib/alloc.c:36:5
	move r0, r1
	jump r23
.Ltmp7:
.Lfunc_end0:
	.size	mem_alloc_nolock, .Lfunc_end0-mem_alloc_nolock
	.cfi_endproc
	.section	.stack_sizes,"o",@progbits,.text.mem_alloc_nolock
	.long	.Lfunc_begin0
	.byte	0
	.section	.text.mem_alloc_nolock,"ax",@progbits
                                        // -- End function
	.section	.text.mem_alloc,"ax",@progbits
	.globl	mem_alloc                       // -- Begin function mem_alloc
	.type	mem_alloc,@function
mem_alloc:                              // @mem_alloc
.Lfunc_begin1:
	.loc	1 41 0                          // uPIMulator_frontend/sdk/syslib/alloc.c:41:0
	.cfi_startproc
// %bb.0:
	//DEBUG_VALUE: mem_alloc:size <- $r0
	.cfi_def_cfa_offset -8
	.cfi_offset 23, -8
	.cfi_offset 22, -4
	sd r22, 0, d22
	add r22, r22, 8
.Ltmp8:
	.loc	1 42 5 prologue_end             // uPIMulator_frontend/sdk/syslib/alloc.c:42:5
	// inline asm
.Ltmp9:
	acquire zero, __atomic_bit___heap_pointer, nz, .Ltmp9
	// inline asm
	//DEBUG_VALUE: mem_alloc:size <- $r0
	//DEBUG_VALUE: mem_alloc:size <- $r0
	.loc	1 43 21                         // uPIMulator_frontend/sdk/syslib/alloc.c:43:21
	call r23, mem_alloc_nolock
.Ltmp10:
	.loc	1 44 5                          // uPIMulator_frontend/sdk/syslib/alloc.c:44:5
	// inline asm
.Ltmp11:
	release zero, __atomic_bit___heap_pointer, nz, .Ltmp11+1
	// inline asm
.Ltmp12:
	//DEBUG_VALUE: mem_alloc:pointer <- $r0
	.loc	1 45 5                          // uPIMulator_frontend/sdk/syslib/alloc.c:45:5
	ld d22, r22, -8
	jump r23
.Ltmp13:
.Lfunc_end1:
	.size	mem_alloc, .Lfunc_end1-mem_alloc
	.cfi_endproc
	.section	.stack_sizes,"o",@progbits,.text.mem_alloc
	.long	.Lfunc_begin1
	.byte	8
	.section	.text.mem_alloc,"ax",@progbits
                                        // -- End function
	.section	.text.mem_reset,"ax",@progbits
	.globl	mem_reset                       // -- Begin function mem_reset
	.type	mem_reset,@function
mem_reset:                              // @mem_reset
.Lfunc_begin2:
	.loc	1 50 0                          // uPIMulator_frontend/sdk/syslib/alloc.c:50:0
	.cfi_startproc
// %bb.0:
	.cfi_def_cfa_offset 0
	.loc	1 51 5 prologue_end             // uPIMulator_frontend/sdk/syslib/alloc.c:51:5
	// inline asm
.Ltmp14:
	acquire zero, __atomic_bit___heap_pointer, nz, .Ltmp14
	// inline asm
	.loc	1 55 24                         // uPIMulator_frontend/sdk/syslib/alloc.c:55:24
	move r0, __sys_heap_pointer_reset
.Ltmp15:
	//DEBUG_VALUE: mem_reset:initial <- $r0
	sw zero, __sys_heap_pointer, r0
	.loc	1 57 5                          // uPIMulator_frontend/sdk/syslib/alloc.c:57:5
	// inline asm
.Ltmp16:
	release zero, __atomic_bit___heap_pointer, nz, .Ltmp16+1
	// inline asm
	.loc	1 59 5                          // uPIMulator_frontend/sdk/syslib/alloc.c:59:5
	jump r23
.Ltmp17:
.Lfunc_end2:
	.size	mem_reset, .Lfunc_end2-mem_reset
	.cfi_endproc
	.section	.stack_sizes,"o",@progbits,.text.mem_reset
	.long	.Lfunc_begin2
	.byte	0
	.section	.text.mem_reset,"ax",@progbits
                                        // -- End function
	.type	__sys_heap_pointer,@object      // @__sys_heap_pointer
	.section	.data.__sys_heap_pointer,"aw",@progbits
	.globl	__sys_heap_pointer
	.p2align	2
__sys_heap_pointer:
	.long	__sys_heap_pointer_reset
	.size	__sys_heap_pointer, 4

	.type	__atomic_bit___heap_pointer,@object // @__atomic_bit___heap_pointer
	.section	.atomic,"aw",@progbits
	.globl	__atomic_bit___heap_pointer
__atomic_bit___heap_pointer:
	.byte	0                               // 0x0
	.size	__atomic_bit___heap_pointer, 1

	.file	3 "/root" "uPIMulator_frontend/sdk/stdlib/stddef.h"