	.text
	.file	"atomics.c"
	.file	1 "/root" "uPIMulator_frontend/sdk/stdlib/stdint.h"
	.file	2 "/root" "uPIMulator_frontend/sdk/syslib/atomics.c"
	.section	.text.__dpu_sync_val_compare_and_swap_1,"ax",@progbits
	.globl	__dpu_sync_val_compare_and_swap_1 // -- Begin function __dpu_sync_val_compare_and_swap_1
	.type	__dpu_sync_val_compare_and_swap_1,@function
__dpu_sync_val_compare_and_swap_1:      // @__dpu_sync_val_compare_and_swap_1
.Lfunc_begin0:
	.loc	2 35 0                          // uPIMulator_frontend/sdk/syslib/atomics.c:35:0
	.cfi_sections .debug_frame
	.cfi_startproc
// %bb.0:
	//DEBUG_VALUE: __dpu_sync_val_compare_and_swap_1:ptr <- $r0
	//DEBUG_VALUE: __dpu_sync_val_compare_and_swap_1:ptr <- $r0
	//DEBUG_VALUE: __dpu_sync_val_compare_and_swap_1:expected <- $r1
	//DEBUG_VALUE: __dpu_sync_val_compare_and_swap_1:desired <- $r2
	.cfi_def_cfa_offset 0
	.loc	2 35 1 prologue_end             // uPIMulator_frontend/sdk/syslib/atomics.c:35:1
	// inline asm
.Ltmp0:
	acquire zero, __atomic_bit_llvm_atomic_functions, nz, .Ltmp0
	// inline asm
	lbu r3, r0, 0
.Ltmp1:
	//DEBUG_VALUE: __dpu_sync_val_compare_and_swap_1:load <- $r3
	//DEBUG_VALUE: __dpu_sync_val_compare_and_swap_1:expected <- $r1
	.loc	2 0 1 is_stmt 0                 // uPIMulator_frontend/sdk/syslib/atomics.c:0:1
	and r1, r1, 255
.Ltmp2:
	//DEBUG_VALUE: __dpu_sync_val_compare_and_swap_1:desired <- $r2
	//DEBUG_VALUE: __dpu_sync_val_compare_and_swap_1:desired <- undef
	.loc	2 35 1                          // uPIMulator_frontend/sdk/syslib/atomics.c:35:1
	jneq r3, r1, .LBB0_2
.Ltmp3:
// %bb.1:
	//DEBUG_VALUE: __dpu_sync_val_compare_and_swap_1:load <- $r3
	//DEBUG_VALUE: __dpu_sync_val_compare_and_swap_1:ptr <- $r0
	//DEBUG_VALUE: __dpu_sync_val_compare_and_swap_1:desired <- $r2
	.loc	2 35 1                          // uPIMulator_frontend/sdk/syslib/atomics.c:35:1
	sb r0, 0, r2
.Ltmp4:
.LBB0_2:
	//DEBUG_VALUE: __dpu_sync_val_compare_and_swap_1:load <- $r3
	//DEBUG_VALUE: __dpu_sync_val_compare_and_swap_1:ptr <- $r0
	.loc	2 35 1                          // uPIMulator_frontend/sdk/syslib/atomics.c:35:1
	// inline asm
.Ltmp5:
	release zero, __atomic_bit_llvm_atomic_functions, nz, .Ltmp5+1
	// inline asm
	extsb r0, r3
.Ltmp6:
	jump r23
.Ltmp7:
.Lfunc_end0:
	.size	__dpu_sync_val_compare_and_swap_1, .Lfunc_end0-__dpu_sync_val_compare_and_swap_1
	.cfi_endproc
	.section	.stack_sizes,"o",@progbits,.text.__dpu_sync_val_compare_and_swap_1
	.long	.Lfunc_begin0
	.byte	0
	.section	.text.__dpu_sync_val_compare_and_swap_1,"ax",@progbits
                                        // -- End function
	.section	.text.__dpu_sync_val_compare_and_swap_2,"ax",@progbits
	.globl	__dpu_sync_val_compare_and_swap_2 // -- Begin function __dpu_sync_val_compare_and_swap_2
	.type	__dpu_sync_val_compare_and_swap_2,@function
__dpu_sync_val_compare_and_swap_2:      // @__dpu_sync_val_compare_and_swap_2
.Lfunc_begin1:
	.loc	2 35 0 is_stmt 1                // uPIMulator_frontend/sdk/syslib/atomics.c:35:0
	.cfi_startproc
// %bb.0:
	//DEBUG_VALUE: __dpu_sync_val_compare_and_swap_2:ptr <- $r0
	//DEBUG_VALUE: __dpu_sync_val_compare_and_swap_2:ptr <- $r0
	//DEBUG_VALUE: __dpu_sync_val_compare_and_swap_2:expected <- $r1
	//DEBUG_VALUE: __dpu_sync_val_compare_and_swap_2:desired <- $r2
	.cfi_def_cfa_offset 0
	.loc	2 35 1 prologue_end             // uPIMulator_frontend/sdk/syslib/atomics.c:35:1
	// inline asm
.Ltmp8:
	acquire zero, __atomic_bit_llvm_atomic_functions, nz, .Ltmp8
	// inline asm
	lhu r3, r0, 0
.Ltmp9:
	//DEBUG_VALUE: __dpu_sync_val_compare_and_swap_2:load <- $r3
	//DEBUG_VALUE: __dpu_sync_val_compare_and_swap_2:expected <- $r1
	.loc	2 0 1 is_stmt 0                 // uPIMulator_frontend/sdk/syslib/atomics.c:0:1
	and r1, r1, 65535
.Ltmp10:
	//DEBUG_VALUE: __dpu_sync_val_compare_and_swap_2:desired <- $r2
	//DEBUG_VALUE: __dpu_sync_val_compare_and_swap_2:desired <- undef
	.loc	2 35 1                          // uPIMulator_frontend/sdk/syslib/atomics.c:35:1
	jneq r3, r1, .LBB1_2
.Ltmp11:
// %bb.1:
	//DEBUG_VALUE: __dpu_sync_val_compare_and_swap_2:load <- $r3
	//DEBUG_VALUE: __dpu_sync_val_compare_and_swap_2:ptr <- $r0
	//DEBUG_VALUE: __dpu_sync_val_compare_and_swap_2:desired <- $r2
	.loc	2 35 1                          // uPIMulator_frontend/sdk/syslib/atomics.c:35:1
	sh r0, 0, r2
.Ltmp12:
.LBB1_2:
	//DEBUG_VALUE: __dpu_sync_val_compare_and_swap_2:load <- $r3
	//DEBUG_VALUE: __dpu_sync_val_compare_and_swap_2:ptr <- $r0
	.loc	2 35 1                          // uPIMulator_frontend/sdk/syslib/atomics.c:35:1
	// inline asm
.Ltmp13:
	release zero, __atomic_bit_llvm_atomic_functions, nz, .Ltmp13+1
	// inline asm
	extsh r0, r3
.Ltmp14:
	jump r23
.Ltmp15:
.Lfunc_end1:
	.size	__dpu_sync_val_compare_and_swap_2, .Lfunc_end1-__dpu_sync_val_compare_and_swap_2
	.cfi_endproc
	.section	.stack_sizes,"o",@progbits,.text.__dpu_sync_val_compare_and_swap_2
	.long	.Lfunc_begin1
	.byte	0
	.section	.text.__dpu_sync_val_compare_and_swap_2,"ax",@progbits
                                        // -- End function
	.section	.text.__dpu_sync_val_compare_and_swap_4,"ax",@progbits
	.globl	__dpu_sync_val_compare_and_swap_4 // -- Begin function __dpu_sync_val_compare_and_swap_4
	.type	__dpu_sync_val_compare_and_swap_4,@function
__dpu_sync_val_compare_and_swap_4:      // @__dpu_sync_val_compare_and_swap_4
.Lfunc_begin2:
	.loc	2 35 0 is_stmt 1                // uPIMulator_frontend/sdk/syslib/atomics.c:35:0
	.cfi_startproc
// %bb.0:
	//DEBUG_VALUE: __dpu_sync_val_compare_and_swap_4:ptr <- $r0
	//DEBUG_VALUE: __dpu_sync_val_compare_and_swap_4:expected <- $r1
	//DEBUG_VALUE: __dpu_sync_val_compare_and_swap_4:desired <- $r2
	.cfi_def_cfa_offset 0
	move r3, r0
.Ltmp16:
	//DEBUG_VALUE: __dpu_sync_val_compare_and_swap_4:ptr <- $r3
	.loc	2 35 1 prologue_end             // uPIMulator_frontend/sdk/syslib/atomics.c:35:1
	// inline asm
.Ltmp17:
	acquire zero, __atomic_bit_llvm_atomic_functions, nz, .Ltmp17
	// inline asm
	lw r0, r3, 0
.Ltmp18:
	//DEBUG_VALUE: __dpu_sync_val_compare_and_swap_4:load <- $r0
	//DEBUG_VALUE: __dpu_sync_val_compare_and_swap_4:desired <- $r2
	//DEBUG_VALUE: __dpu_sync_val_compare_and_swap_4:expected <- $r1
	jneq r0, r1, .LBB2_2
.Ltmp19:
// %bb.1:
	//DEBUG_VALUE: __dpu_sync_val_compare_and_swap_4:ptr <- $r3
	//DEBUG_VALUE: __dpu_sync_val_compare_and_swap_4:desired <- $r2
	//DEBUG_VALUE: __dpu_sync_val_compare_and_swap_4:expected <- $r1
	//DEBUG_VALUE: __dpu_sync_val_compare_and_swap_4:load <- $r0
	.loc	2 35 1 is_stmt 0                // uPIMulator_frontend/sdk/syslib/atomics.c:35:1
	sw r3, 0, r2
.Ltmp20:
.LBB2_2:
	//DEBUG_VALUE: __dpu_sync_val_compare_and_swap_4:ptr <- $r3
	//DEBUG_VALUE: __dpu_sync_val_compare_and_swap_4:desired <- $r2
	//DEBUG_VALUE: __dpu_sync_val_compare_and_swap_4:expected <- $r1
	//DEBUG_VALUE: __dpu_sync_val_compare_and_swap_4:load <- $r0
	.loc	2 35 1                          // uPIMulator_frontend/sdk/syslib/atomics.c:35:1
	// inline asm
.Ltmp21:
	release zero, __atomic_bit_llvm_atomic_functions, nz, .Ltmp21+1
	// inline asm
	jump r23
.Ltmp22:
.Lfunc_end2:
	.size	__dpu_sync_val_compare_and_swap_4, .Lfunc_end2-__dpu_sync_val_compare_and_swap_4
	.cfi_endproc
	.section	.stack_sizes,"o",@progbits,.text.__dpu_sync_val_compare_and_swap_4
	.long	.Lfunc_begin2
	.byte	0
	.section	.text.__dpu_sync_val_compare_and_swap_4,"ax",@progbits
                                        // -- End function
	.section	.text.__dpu_sync_val_compare_and_swap_8,"ax",@progbits
	.globl	__dpu_sync_val_compare_and_swap_8 // -- Begin function __dpu_sync_val_compare_and_swap_8
	.type	__dpu_sync_val_compare_and_swap_8,@function
__dpu_sync_val_compare_and_swap_8:      // @__dpu_sync_val_compare_and_swap_8
.Lfunc_begin3:
	.loc	2 35 0 is_stmt 1                // uPIMulator_frontend/sdk/syslib/atomics.c:35:0
	.cfi_startproc
// %bb.0:
	//DEBUG_VALUE: __dpu_sync_val_compare_and_swap_8:ptr <- $r0
	//DEBUG_VALUE: __dpu_sync_val_compare_and_swap_8:expected <- $d2
	//DEBUG_VALUE: __dpu_sync_val_compare_and_swap_8:desired <- $d4
	.cfi_def_cfa_offset 0
	move r6, r0
.Ltmp23:
	//DEBUG_VALUE: __dpu_sync_val_compare_and_swap_8:ptr <- $r6
	.loc	2 35 1 prologue_end             // uPIMulator_frontend/sdk/syslib/atomics.c:35:1
	// inline asm
.Ltmp24:
	acquire zero, __atomic_bit_llvm_atomic_functions, nz, .Ltmp24
	// inline asm
	ld d0, r6, 0
.Ltmp25:
	//DEBUG_VALUE: __dpu_sync_val_compare_and_swap_8:load <- $d0
	//DEBUG_VALUE: __dpu_sync_val_compare_and_swap_8:desired <- $d4
	//DEBUG_VALUE: __dpu_sync_val_compare_and_swap_8:expected <- $d2
	jneq r1, r3, .LBB3_2
.Ltmp26:
// %bb.3:
	jneq r0, r2, .LBB3_2
// %bb.4:
// %bb.1:
.Ltmp27:
	//DEBUG_VALUE: __dpu_sync_val_compare_and_swap_8:ptr <- $r6
	//DEBUG_VALUE: __dpu_sync_val_compare_and_swap_8:desired <- $d4
	//DEBUG_VALUE: __dpu_sync_val_compare_and_swap_8:expected <- $d2
	//DEBUG_VALUE: __dpu_sync_val_compare_and_swap_8:load <- $d0
	.loc	2 35 1 is_stmt 0                // uPIMulator_frontend/sdk/syslib/atomics.c:35:1
	sd r6, 0, d4
.Ltmp28:
.LBB3_2:
	//DEBUG_VALUE: __dpu_sync_val_compare_and_swap_8:ptr <- $r6
	//DEBUG_VALUE: __dpu_sync_val_compare_and_swap_8:desired <- $d4
	//DEBUG_VALUE: __dpu_sync_val_compare_and_swap_8:expected <- $d2
	//DEBUG_VALUE: __dpu_sync_val_compare_and_swap_8:load <- $d0
	.loc	2 35 1                          // uPIMulator_frontend/sdk/syslib/atomics.c:35:1
	// inline asm
.Ltmp29:
	release zero, __atomic_bit_llvm_atomic_functions, nz, .Ltmp29+1
	// inline asm
	jump r23
.Ltmp30:
.Lfunc_end3:
	.size	__dpu_sync_val_compare_and_swap_8, .Lfunc_end3-__dpu_sync_val_compare_and_swap_8
	.cfi_endproc
	.section	.stack_sizes,"o",@progbits,.text.__dpu_sync_val_compare_and_swap_8
	.long	.Lfunc_begin3
	.byte	0
	.section	.text.__dpu_sync_val_compare_and_swap_8,"ax",@progbits
                                        // -- End function
	.section	.text.__dpu_sync_lock_test_and_set_1,"ax",@progbits
	.globl	__dpu_sync_lock_test_and_set_1  // -- Begin function __dpu_sync_lock_test_and_set_1
	.type	__dpu_sync_lock_test_and_set_1,@function
__dpu_sync_lock_test_and_set_1:         // @__dpu_sync_lock_test_and_set_1
.Lfunc_begin4:
	.loc	2 44 0 is_stmt 1                // uPIMulator_frontend/sdk/syslib/atomics.c:44:0
	.cfi_startproc
// %bb.0:
	//DEBUG_VALUE: __dpu_sync_lock_test_and_set_1:ptr <- $r0
	//DEBUG_VALUE: __dpu_sync_lock_test_and_set_1:ptr <- $r0
	//DEBUG_VALUE: __dpu_sync_lock_test_and_set_1:val <- $r1
	//DEBUG_VALUE: __dpu_sync_lock_test_and_set_1:val <- $r1
	.cfi_def_cfa_offset 0
	.loc	2 44 1 prologue_end             // uPIMulator_frontend/sdk/syslib/atomics.c:44:1
	// inline asm
.Ltmp31:
	acquire zero, __atomic_bit_llvm_atomic_functions, nz, .Ltmp31
	// inline asm
	lbs r2, r0, 0
.Ltmp32:
	//DEBUG_VALUE: __dpu_sync_lock_test_and_set_1:load <- undef
	sb r0, 0, r1
	// inline asm
.Ltmp33:
	release zero, __atomic_bit_llvm_atomic_functions, nz, .Ltmp33+1
	// inline asm
	move r0, r2
.Ltmp34:
	jump r23
.Ltmp35:
.Lfunc_end4:
	.size	__dpu_sync_lock_test_and_set_1, .Lfunc_end4-__dpu_sync_lock_test_and_set_1
	.cfi_endproc
	.section	.stack_sizes,"o",@progbits,.text.__dpu_sync_lock_test_and_set_1
	.long	.Lfunc_begin4
	.byte	0
	.section	.text.__dpu_sync_lock_test_and_set_1,"ax",@progbits
                                        // -- End function
	.section	.text.__dpu_sync_lock_test_and_set_2,"ax",@progbits
	.globl	__dpu_sync_lock_test_and_set_2  // -- Begin function __dpu_sync_lock_test_and_set_2
	.type	__dpu_sync_lock_test_and_set_2,@function
__dpu_sync_lock_test_and_set_2:         // @__dpu_sync_lock_test_and_set_2
.Lfunc_begin5:
	.loc	2 44 0                          // uPIMulator_frontend/sdk/syslib/atomics.c:44:0
	.cfi_startproc
// %bb.0:
	//DEBUG_VALUE: __dpu_sync_lock_test_and_set_2:ptr <- $r0
	//DEBUG_VALUE: __dpu_sync_lock_test_and_set_2:ptr <- $r0
	//DEBUG_VALUE: __dpu_sync_lock_test_and_set_2:val <- $r1
	//DEBUG_VALUE: __dpu_sync_lock_test_and_set_2:val <- $r1
	.cfi_def_cfa_offset 0
	.loc	2 44 1 prologue_end             // uPIMulator_frontend/sdk/syslib/atomics.c:44:1
	// inline asm
.Ltmp36:
	acquire zero, __atomic_bit_llvm_atomic_functions, nz, .Ltmp36
	// inline asm
	lhs r2, r0, 0
.Ltmp37:
	//DEBUG_VALUE: __dpu_sync_lock_test_and_set_2:load <- undef
	sh r0, 0, r1
	// inline asm
.Ltmp38:
	release zero, __atomic_bit_llvm_atomic_functions, nz, .Ltmp38+1
	// inline asm
	move r0, r2
.Ltmp39:
	jump r23
.Ltmp40:
.Lfunc_end5:
	.size	__dpu_sync_lock_test_and_set_2, .Lfunc_end5-__dpu_sync_lock_test_and_set_2
	.cfi_endproc
	.section	.stack_sizes,"o",@progbits,.text.__dpu_sync_lock_test_and_set_2
	.long	.Lfunc_begin5
	.byte	0
	.section	.text.__dpu_sync_lock_test_and_set_2,"ax",@progbits
                                        // -- End function
	.section	.text.__dpu_sync_lock_test_and_set_4,"ax",@progbits
	.globl	__dpu_sync_lock_test_and_set_4  // -- Begin function __dpu_sync_lock_test_and_set_4
	.type	__dpu_sync_lock_test_and_set_4,@function
__dpu_sync_lock_test_and_set_4:         // @__dpu_sync_lock_test_and_set_4
.Lfunc_begin6:
	.loc	2 44 0                          // uPIMulator_frontend/sdk/syslib/atomics.c:44:0
	.cfi_startproc
// %bb.0:
	//DEBUG_VALUE: __dpu_sync_lock_test_and_set_4:ptr <- $r0
	//DEBUG_VALUE: __dpu_sync_lock_test_and_set_4:ptr <- $r0
	//DEBUG_VALUE: __dpu_sync_lock_test_and_set_4:val <- $r1
	//DEBUG_VALUE: __dpu_sync_lock_test_and_set_4:val <- $r1
	.cfi_def_cfa_offset 0
	.loc	2 44 1 prologue_end             // uPIMulator_frontend/sdk/syslib/atomics.c:44:1
	// inline asm
.Ltmp41:
	acquire zero, __atomic_bit_llvm_atomic_functions, nz, .Ltmp41
	// inline asm
	lw r2, r0, 0
.Ltmp42:
	//DEBUG_VALUE: __dpu_sync_lock_test_and_set_4:load <- $r2
	sw r0, 0, r1
	// inline asm
.Ltmp43:
	release zero, __atomic_bit_llvm_atomic_functions, nz, .Ltmp43+1
	// inline asm
	move r0, r2
.Ltmp44:
	jump r23
.Ltmp45:
.Lfunc_end6:
	.size	__dpu_sync_lock_test_and_set_4, .Lfunc_end6-__dpu_sync_lock_test_and_set_4
	.cfi_endproc
	.section	.stack_sizes,"o",@progbits,.text.__dpu_sync_lock_test_and_set_4
	.long	.Lfunc_begin6
	.byte	0
	.section	.text.__dpu_sync_lock_test_and_set_4,"ax",@progbits
                                        // -- End function
	.section	.text.__dpu_sync_lock_test_and_set_8,"ax",@progbits
	.globl	__dpu_sync_lock_test_and_set_8  // -- Begin function __dpu_sync_lock_test_and_set_8
	.type	__dpu_sync_lock_test_and_set_8,@function
__dpu_sync_lock_test_and_set_8:         // @__dpu_sync_lock_test_and_set_8
.Lfunc_begin7:
	.loc	2 44 0                          // uPIMulator_frontend/sdk/syslib/atomics.c:44:0
	.cfi_startproc
// %bb.0:
	//DEBUG_VALUE: __dpu_sync_lock_test_and_set_8:ptr <- $r0
	//DEBUG_VALUE: __dpu_sync_lock_test_and_set_8:ptr <- $r0
	//DEBUG_VALUE: __dpu_sync_lock_test_and_set_8:val <- $d2
	//DEBUG_VALUE: __dpu_sync_lock_test_and_set_8:val <- $d2
	.cfi_def_cfa_offset 0
	.loc	2 44 1 prologue_end             // uPIMulator_frontend/sdk/syslib/atomics.c:44:1
	// inline asm
.Ltmp46:
	acquire zero, __atomic_bit_llvm_atomic_functions, nz, .Ltmp46
	// inline asm
	ld d4, r0, 0
.Ltmp47:
	//DEBUG_VALUE: __dpu_sync_lock_test_and_set_8:load <- $d4
	sd r0, 0, d2
	// inline asm
.Ltmp48:
	release zero, __atomic_bit_llvm_atomic_functions, nz, .Ltmp48+1
	// inline asm
	movd d0, d4
.Ltmp49:
	jump r23
.Ltmp50:
.Lfunc_end7:
	.size	__dpu_sync_lock_test_and_set_8, .Lfunc_end7-__dpu_sync_lock_test_and_set_8
	.cfi_endproc
	.section	.stack_sizes,"o",@progbits,.text.__dpu_sync_lock_test_and_set_8
	.long	.Lfunc_begin7
	.byte	0
	.section	.text.__dpu_sync_lock_test_and_set_8,"ax",@progbits
                                        // -- End function
	.section	.text.__dpu_sync_fetch_and_add_1,"ax",@progbits
	.globl	__dpu_sync_fetch_and_add_1      // -- Begin function __dpu_sync_fetch_and_add_1
	.type	__dpu_sync_fetch_and_add_1,@function
__dpu_sync_fetch_and_add_1:             // @__dpu_sync_fetch_and_add_1
.Lfunc_begin8:
	.loc	2 56 0                          // uPIMulator_frontend/sdk/syslib/atomics.c:56:0
	.cfi_startproc
// %bb.0:
	//DEBUG_VALUE: __dpu_sync_fetch_and_add_1:ptr <- $r0
	//DEBUG_VALUE: __dpu_sync_fetch_and_add_1:ptr <- $r0
	//DEBUG_VALUE: __dpu_sync_fetch_and_add_1:val <- $r1
	.cfi_def_cfa_offset 0
	.loc	2 56 1 prologue_end             // uPIMulator_frontend/sdk/syslib/atomics.c:56:1
	// inline asm
.Ltmp51:
	acquire zero, __atomic_bit_llvm_atomic_functions, nz, .Ltmp51
	// inline asm
	lbs r2, r0, 0
.Ltmp52:
	//DEBUG_VALUE: __dpu_sync_fetch_and_add_1:load <- $r2
	//DEBUG_VALUE: __dpu_sync_fetch_and_add_1:val <- $r1
	add r1, r2, r1
.Ltmp53:
	sb r0, 0, r1
	// inline asm
.Ltmp54:
	release zero, __atomic_bit_llvm_atomic_functions, nz, .Ltmp54+1
	// inline asm
	move r0, r2
.Ltmp55:
	jump r23
.Ltmp56:
.Lfunc_end8:
	.size	__dpu_sync_fetch_and_add_1, .Lfunc_end8-__dpu_sync_fetch_and_add_1
	.cfi_endproc
	.section	.stack_sizes,"o",@progbits,.text.__dpu_sync_fetch_and_add_1
	.long	.Lfunc_begin8
	.byte	0
	.section	.text.__dpu_sync_fetch_and_add_1,"ax",@progbits
                                        // -- End function
	.section	.text.__dpu_sync_fetch_and_add_2,"ax",@progbits
	.globl	__dpu_sync_fetch_and_add_2      // -- Begin function __dpu_sync_fetch_and_add_2
	.type	__dpu_sync_fetch_and_add_2,@function
__dpu_sync_fetch_and_add_2:             // @__dpu_sync_fetch_and_add_2
.Lfunc_begin9:
	.loc	2 56 0                          // uPIMulator_frontend/sdk/syslib/atomics.c:56:0
	.cfi_startproc
// %bb.0:
	//DEBUG_VALUE: __dpu_sync_fetch_and_add_2:ptr <- $r0
	//DEBUG_VALUE: __dpu_sync_fetch_and_add_2:ptr <- $r0
	//DEBUG_VALUE: __dpu_sync_fetch_and_add_2:val <- $r1
	.cfi_def_cfa_offset 0
	.loc	2 56 1 prologue_end             // uPIMulator_frontend/sdk/syslib/atomics.c:56:1
	// inline asm
.Ltmp57:
	acquire zero, __atomic_bit_llvm_atomic_functions, nz, .Ltmp57
	// inline asm
	lhs r2, r0, 0
.Ltmp58:
	//DEBUG_VALUE: __dpu_sync_fetch_and_add_2:load <- $r2
	//DEBUG_VALUE: __dpu_sync_fetch_and_add_2:val <- $r1
	add r1, r2, r1
.Ltmp59:
	sh r0, 0, r1
	// inline asm
.Ltmp60:
	release zero, __atomic_bit_llvm_atomic_functions, nz, .Ltmp60+1
	// inline asm
	move r0, r2
.Ltmp61:
	jump r23
.Ltmp62:
.Lfunc_end9:
	.size	__dpu_sync_fetch_and_add_2, .Lfunc_end9-__dpu_sync_fetch_and_add_2
	.cfi_endproc
	.section	.stack_sizes,"o",@progbits,.text.__dpu_sync_fetch_and_add_2
	.long	.Lfunc_begin9
	.byte	0
	.section	.text.__dpu_sync_fetch_and_add_2,"ax",@progbits
                                        // -- End function
	.section	.text.__dpu_sync_fetch_and_add_4,"ax",@progbits
	.globl	__dpu_sync_fetch_and_add_4      // -- Begin function __dpu_sync_fetch_and_add_4
	.type	__dpu_sync_fetch_and_add_4,@function
__dpu_sync_fetch_and_add_4:             // @__dpu_sync_fetch_and_add_4
.Lfunc_begin10:
	.loc	2 56 0                          // uPIMulator_frontend/sdk/syslib/atomics.c:56:0
	.cfi_startproc
// %bb.0:
	//DEBUG_VALUE: __dpu_sync_fetch_and_add_4:ptr <- $r0
	//DEBUG_VALUE: __dpu_sync_fetch_and_add_4:ptr <- $r0
	//DEBUG_VALUE: __dpu_sync_fetch_and_add_4:val <- $r1
	.cfi_def_cfa_offset 0
	.loc	2 56 1 prologue_end             // uPIMulator_frontend/sdk/syslib/atomics.c:56:1
	// inline asm
.Ltmp63:
	acquire zero, __atomic_bit_llvm_atomic_functions, nz, .Ltmp63
	// inline asm
	lw r2, r0, 0
.Ltmp64:
	//DEBUG_VALUE: __dpu_sync_fetch_and_add_4:load <- $r2
	//DEBUG_VALUE: __dpu_sync_fetch_and_add_4:val <- $r1
	add r1, r2, r1
.Ltmp65:
	sw r0, 0, r1
	// inline asm
.Ltmp66:
	release zero, __atomic_bit_llvm_atomic_functions, nz, .Ltmp66+1
	// inline asm
	move r0, r2
.Ltmp67:
	jump r23
.Ltmp68:
.Lfunc_end10:
	.size	__dpu_sync_fetch_and_add_4, .Lfunc_end10-__dpu_sync_fetch_and_add_4
	.cfi_endproc
	.section	.stack_sizes,"o",@progbits,.text.__dpu_sync_fetch_and_add_4
	.long	.Lfunc_begin10
	.byte	0
	.section	.text.__dpu_sync_fetch_and_add_4,"ax",@progbits
                                        // -- End function
	.section	.text.__dpu_sync_fetch_and_add_8,"ax",@progbits
	.globl	__dpu_sync_fetch_and_add_8      // -- Begin function __dpu_sync_fetch_and_add_8
	.type	__dpu_sync_fetch_and_add_8,@function
__dpu_sync_fetch_and_add_8:             // @__dpu_sync_fetch_and_add_8
.Lfunc_begin11:
	.loc	2 56 0                          // uPIMulator_frontend/sdk/syslib/atomics.c:56:0
	.cfi_startproc
// %bb.0:
	//DEBUG_VALUE: __dpu_sync_fetch_and_add_8:ptr <- $r0
	//DEBUG_VALUE: __dpu_sync_fetch_and_add_8:ptr <- $r0
	//DEBUG_VALUE: __dpu_sync_fetch_and_add_8:val <- $d2
	.cfi_def_cfa_offset 0
	.loc	2 56 1 prologue_end             // uPIMulator_frontend/sdk/syslib/atomics.c:56:1
	// inline asm
.Ltmp69:
	acquire zero, __atomic_bit_llvm_atomic_functions, nz, .Ltmp69
	// inline asm
	ld d4, r0, 0
.Ltmp70:
	//DEBUG_VALUE: __dpu_sync_fetch_and_add_8:load <- $d4
	//DEBUG_VALUE: __dpu_sync_fetch_and_add_8:val <- $d2
	add r3, r5, r3
.Ltmp71:
	addc r2, r4, r2
	sd r0, 0, d2
	// inline asm
.Ltmp72:
	release zero, __atomic_bit_llvm_atomic_functions, nz, .Ltmp72+1
	// inline asm
	movd d0, d4
.Ltmp73:
	jump r23
.Ltmp74:
.Lfunc_end11:
	.size	__dpu_sync_fetch_and_add_8, .Lfunc_end11-__dpu_sync_fetch_and_add_8
	.cfi_endproc
	.section	.stack_sizes,"o",@progbits,.text.__dpu_sync_fetch_and_add_8
	.long	.Lfunc_begin11
	.byte	0
	.section	.text.__dpu_sync_fetch_and_add_8,"ax",@progbits
                                        // -- End function
	.section	.text.__dpu_sync_fetch_and_sub_1,"ax",@progbits
	.globl	__dpu_sync_fetch_and_sub_1      // -- Begin function __dpu_sync_fetch_and_sub_1
	.type	__dpu_sync_fetch_and_sub_1,@function
__dpu_sync_fetch_and_sub_1:             // @__dpu_sync_fetch_and_sub_1
.Lfunc_begin12:
	.loc	2 60 0                          // uPIMulator_frontend/sdk/syslib/atomics.c:60:0
	.cfi_startproc
// %bb.0:
	//DEBUG_VALUE: __dpu_sync_fetch_and_sub_1:ptr <- $r0
	//DEBUG_VALUE: __dpu_sync_fetch_and_sub_1:ptr <- $r0
	//DEBUG_VALUE: __dpu_sync_fetch_and_sub_1:val <- $r1
	.cfi_def_cfa_offset 0
	.loc	2 60 1 prologue_end             // uPIMulator_frontend/sdk/syslib/atomics.c:60:1
	// inline asm
.Ltmp75:
	acquire zero, __atomic_bit_llvm_atomic_functions, nz, .Ltmp75
	// inline asm
	lbs r2, r0, 0
.Ltmp76:
	//DEBUG_VALUE: __dpu_sync_fetch_and_sub_1:load <- $r2
	//DEBUG_VALUE: __dpu_sync_fetch_and_sub_1:val <- $r1
	sub r1, r2, r1
.Ltmp77:
	sb r0, 0, r1
	// inline asm
.Ltmp78:
	release zero, __atomic_bit_llvm_atomic_functions, nz, .Ltmp78+1
	// inline asm
	move r0, r2
.Ltmp79:
	jump r23
.Ltmp80:
.Lfunc_end12:
	.size	__dpu_sync_fetch_and_sub_1, .Lfunc_end12-__dpu_sync_fetch_and_sub_1
	.cfi_endproc
	.section	.stack_sizes,"o",@progbits,.text.__dpu_sync_fetch_and_sub_1
	.long	.Lfunc_begin12
	.byte	0
	.section	.text.__dpu_sync_fetch_and_sub_1,"ax",@progbits
                                        // -- End function
	.section	.text.__dpu_sync_fetch_and_sub_2,"ax",@progbits
	.globl	__dpu_sync_fetch_and_sub_2      // -- Begin function __dpu_sync_fetch_and_sub_2
	.type	__dpu_sync_fetch_and_sub_2,@function
__dpu_sync_fetch_and_sub_2:             // @__dpu_sync_fetch_and_sub_2
.Lfunc_begin13:
	.loc	2 60 0                          // uPIMulator_frontend/sdk/syslib/atomics.c:60:0
	.cfi_startproc
// %bb.0:
	//DEBUG_VALUE: __dpu_sync_fetch_and_sub_2:ptr <- $r0
	//DEBUG_VALUE: __dpu_sync_fetch_and_sub_2:ptr <- $r0
	//DEBUG_VALUE: __dpu_sync_fetch_and_sub_2:val <- $r1
	.cfi_def_cfa_offset 0
	.loc	2 60 1 prologue_end             // uPIMulator_frontend/sdk/syslib/atomics.c:60:1
	// inline asm
.Ltmp81:
	acquire zero, __atomic_bit_llvm_atomic_functions, nz, .Ltmp81
	// inline asm
	lhs r2, r0, 0
.Ltmp82:
	//DEBUG_VALUE: __dpu_sync_fetch_and_sub_2:load <- $r2
	//DEBUG_VALUE: __dpu_sync_fetch_and_sub_2:val <- $r1
	sub r1, r2, r1
.Ltmp83:
	sh r0, 0, r1
	// inline asm
.Ltmp84:
	release zero, __atomic_bit_llvm_atomic_functions, nz, .Ltmp84+1
	// inline asm
	move r0, r2
.Ltmp85:
	jump r23
.Ltmp86:
.Lfunc_end13:
	.size	__dpu_sync_fetch_and_sub_2, .Lfunc_end13-__dpu_sync_fetch_and_sub_2
	.cfi_endproc
	.section	.stack_sizes,"o",@progbits,.text.__dpu_sync_fetch_and_sub_2
	.long	.Lfunc_begin13
	.byte	0
	.section	.text.__dpu_sync_fetch_and_sub_2,"ax",@progbits
                                        // -- End function
	.section	.text.__dpu_sync_fetch_and_sub_4,"ax",@progbits
	.globl	__dpu_sync_fetch_and_sub_4      // -- Begin function __dpu_sync_fetch_and_sub_4
	.type	__dpu_sync_fetch_and_sub_4,@function
__dpu_sync_fetch_and_sub_4:             // @__dpu_sync_fetch_and_sub_4
.Lfunc_begin14:
	.loc	2 60 0                          // uPIMulator_frontend/sdk/syslib/atomics.c:60:0
	.cfi_startproc
// %bb.0:
	//DEBUG_VALUE: __dpu_sync_fetch_and_sub_4:ptr <- $r0
	//DEBUG_VALUE: __dpu_sync_fetch_and_sub_4:ptr <- $r0
	//DEBUG_VALUE: __dpu_sync_fetch_and_sub_4:val <- $r1
	.cfi_def_cfa_offset 0
	.loc	2 60 1 prologue_end             // uPIMulator_frontend/sdk/syslib/atomics.c:60:1
	// inline asm
.Ltmp87:
	acquire zero, __atomic_bit_llvm_atomic_functions, nz, .Ltmp87
	// inline asm
	lw r2, r0, 0
.Ltmp88:
	//DEBUG_VALUE: __dpu_sync_fetch_and_sub_4:load <- $r2
	//DEBUG_VALUE: __dpu_sync_fetch_and_sub_4:val <- $r1
	sub r1, r2, r1
.Ltmp89:
	sw r0, 0, r1
	// inline asm
.Ltmp90:
	release zero, __atomic_bit_llvm_atomic_functions, nz, .Ltmp90+1
	// inline asm
	move r0, r2
.Ltmp91:
	jump r23
.Ltmp92:
.Lfunc_end14:
	.size	__dpu_sync_fetch_and_sub_4, .Lfunc_end14-__dpu_sync_fetch_and_sub_4
	.cfi_endproc
	.section	.stack_sizes,"o",@progbits,.text.__dpu_sync_fetch_and_sub_4
	.long	.Lfunc_begin14
	.byte	0
	.section	.text.__dpu_sync_fetch_and_sub_4,"ax",@progbits
                                        // -- End function
	.section	.text.__dpu_sync_fetch_and_sub_8,"ax",@progbits
	.globl	__dpu_sync_fetch_and_sub_8      // -- Begin function __dpu_sync_fetch_and_sub_8
	.type	__dpu_sync_fetch_and_sub_8,@function
__dpu_sync_fetch_and_sub_8:             // @__dpu_sync_fetch_and_sub_8
.Lfunc_begin15:
	.loc	2 60 0                          // uPIMulator_frontend/sdk/syslib/atomics.c:60:0
	.cfi_startproc
// %bb.0:
	//DEBUG_VALUE: __dpu_sync_fetch_and_sub_8:ptr <- $r0
	//DEBUG_VALUE: __dpu_sync_fetch_and_sub_8:ptr <- $r0
	//DEBUG_VALUE: __dpu_sync_fetch_and_sub_8:val <- $d2
	.cfi_def_cfa_offset 0
	.loc	2 60 1 prologue_end             // uPIMulator_frontend/sdk/syslib/atomics.c:60:1
	// inline asm
.Ltmp93:
	acquire zero, __atomic_bit_llvm_atomic_functions, nz, .Ltmp93
	// inline asm
	ld d4, r0, 0
.Ltmp94:
	//DEBUG_VALUE: __dpu_sync_fetch_and_sub_8:load <- $d4
	//DEBUG_VALUE: __dpu_sync_fetch_and_sub_8:val <- $d2
	sub r3, r5, r3
.Ltmp95:
	subc r2, r4, r2
	sd r0, 0, d2
	// inline asm
.Ltmp96:
	release zero, __atomic_bit_llvm_atomic_functions, nz, .Ltmp96+1
	// inline asm
	movd d0, d4
.Ltmp97:
	jump r23
.Ltmp98:
.Lfunc_end15:
	.size	__dpu_sync_fetch_and_sub_8, .Lfunc_end15-__dpu_sync_fetch_and_sub_8
	.cfi_endproc
	.section	.stack_sizes,"o",@progbits,.text.__dpu_sync_fetch_and_sub_8
	.long	.Lfunc_begin15
	.byte	0
	.section	.text.__dpu_sync_fetch_and_sub_8,"ax",@progbits
                                        // -- End function
	.section	.text.__dpu_sync_fetch_and_and_1,"ax",@progbits
	.globl	__dpu_sync_fetch_and_and_1      // -- Begin function __dpu_sync_fetch_and_and_1
	.type	__dpu_sync_fetch_and_and_1,@function
__dpu_sync_fetch_and_and_1:             // @__dpu_sync_fetch_and_and_1
.Lfunc_begin16:
	.loc	2 64 0                          // uPIMulator_frontend/sdk/syslib/atomics.c:64:0
	.cfi_startproc
// %bb.0:
	//DEBUG_VALUE: __dpu_sync_fetch_and_and_1:ptr <- $r0
	//DEBUG_VALUE: __dpu_sync_fetch_and_and_1:ptr <- $r0
	//DEBUG_VALUE: __dpu_sync_fetch_and_and_1:val <- $r1
	.cfi_def_cfa_offset 0
	.loc	2 64 1 prologue_end             // uPIMulator_frontend/sdk/syslib/atomics.c:64:1
	// inline asm
.Ltmp99:
	acquire zero, __atomic_bit_llvm_atomic_functions, nz, .Ltmp99
	// inline asm
	lbs r2, r0, 0
.Ltmp100:
	//DEBUG_VALUE: __dpu_sync_fetch_and_and_1:load <- $r2
	//DEBUG_VALUE: __dpu_sync_fetch_and_and_1:val <- $r1
	and r1, r2, r1
.Ltmp101:
	sb r0, 0, r1
	// inline asm
.Ltmp102:
	release zero, __atomic_bit_llvm_atomic_functions, nz, .Ltmp102+1
	// inline asm
	move r0, r2
.Ltmp103:
	jump r23
.Ltmp104:
.Lfunc_end16:
	.size	__dpu_sync_fetch_and_and_1, .Lfunc_end16-__dpu_sync_fetch_and_and_1
	.cfi_endproc
	.section	.stack_sizes,"o",@progbits,.text.__dpu_sync_fetch_and_and_1
	.long	.Lfunc_begin16
	.byte	0
	.section	.text.__dpu_sync_fetch_and_and_1,"ax",@progbits
                                        // -- End function
	.section	.text.__dpu_sync_fetch_and_and_2,"ax",@progbits
	.globl	__dpu_sync_fetch_and_and_2      // -- Begin function __dpu_sync_fetch_and_and_2
	.type	__dpu_sync_fetch_and_and_2,@function
__dpu_sync_fetch_and_and_2:             // @__dpu_sync_fetch_and_and_2
.Lfunc_begin17:
	.loc	2 64 0                          // uPIMulator_frontend/sdk/syslib/atomics.c:64:0
	.cfi_startproc
// %bb.0:
	//DEBUG_VALUE: __dpu_sync_fetch_and_and_2:ptr <- $r0
	//DEBUG_VALUE: __dpu_sync_fetch_and_and_2:ptr <- $r0
	//DEBUG_VALUE: __dpu_sync_fetch_and_and_2:val <- $r1
	.cfi_def_cfa_offset 0
	.loc	2 64 1 prologue_end             // uPIMulator_frontend/sdk/syslib/atomics.c:64:1
	// inline asm
.Ltmp105:
	acquire zero, __atomic_bit_llvm_atomic_functions, nz, .Ltmp105
	// inline asm
	lhs r2, r0, 0
.Ltmp106:
	//DEBUG_VALUE: __dpu_sync_fetch_and_and_2:load <- $r2
	//DEBUG_VALUE: __dpu_sync_fetch_and_and_2:val <- $r1
	and r1, r2, r1
.Ltmp107:
	sh r0, 0, r1
	// inline asm
.Ltmp108:
	release zero, __atomic_bit_llvm_atomic_functions, nz, .Ltmp108+1
	// inline asm
	move r0, r2
.Ltmp109:
	jump r23
.Ltmp110:
.Lfunc_end17:
	.size	__dpu_sync_fetch_and_and_2, .Lfunc_end17-__dpu_sync_fetch_and_and_2
	.cfi_endproc
	.section	.stack_sizes,"o",@progbits,.text.__dpu_sync_fetch_and_and_2
	.long	.Lfunc_begin17
	.byte	0
	.section	.text.__dpu_sync_fetch_and_and_2,"ax",@progbits
                                        // -- End function
	.section	.text.__dpu_sync_fetch_and_and_4,"ax",@progbits
	.globl	__dpu_sync_fetch_and_and_4      // -- Begin function __dpu_sync_fetch_and_and_4
	.type	__dpu_sync_fetch_and_and_4,@function
__dpu_sync_fetch_and_and_4:             // @__dpu_sync_fetch_and_and_4
.Lfunc_begin18:
	.loc	2 64 0                          // uPIMulator_frontend/sdk/syslib/atomics.c:64:0
	.cfi_startproc
// %bb.0:
	//DEBUG_VALUE: __dpu_sync_fetch_and_and_4:ptr <- $r0
	//DEBUG_VALUE: __dpu_sync_fetch_and_and_4:ptr <- $r0
	//DEBUG_VALUE: __dpu_sync_fetch_and_and_4:val <- $r1
	.cfi_def_cfa_offset 0
	.loc	2 64 1 prologue_end             // uPIMulator_frontend/sdk/syslib/atomics.c:64:1
	// inline asm
.Ltmp111:
	acquire zero, __atomic_bit_llvm_atomic_functions, nz, .Ltmp111
	// inline asm
	lw r2, r0, 0
.Ltmp112:
	//DEBUG_VALUE: __dpu_sync_fetch_and_and_4:load <- $r2
	//DEBUG_VALUE: __dpu_sync_fetch_and_and_4:val <- $r1
	and r1, r2, r1
.Ltmp113:
	sw r0, 0, r1
	// inline asm
.Ltmp114:
	release zero, __atomic_bit_llvm_atomic_functions, nz, .Ltmp114+1
	// inline asm
	move r0, r2
.Ltmp115:
	jump r23
.Ltmp116:
.Lfunc_end18:
	.size	__dpu_sync_fetch_and_and_4, .Lfunc_end18-__dpu_sync_fetch_and_and_4
	.cfi_endproc
	.section	.stack_sizes,"o",@progbits,.text.__dpu_sync_fetch_and_and_4
	.long	.Lfunc_begin18
	.byte	0
	.section	.text.__dpu_sync_fetch_and_and_4,"ax",@progbits
                                        // -- End function
	.section	.text.__dpu_sync_fetch_and_and_8,"ax",@progbits
	.globl	__dpu_sync_fetch_and_and_8      // -- Begin function __dpu_sync_fetch_and_and_8
	.type	__dpu_sync_fetch_and_and_8,@function
__dpu_sync_fetch_and_and_8:             // @__dpu_sync_fetch_and_and_8
.Lfunc_begin19:
	.loc	2 64 0                          // uPIMulator_frontend/sdk/syslib/atomics.c:64:0
	.cfi_startproc
// %bb.0:
	//DEBUG_VALUE: __dpu_sync_fetch_and_and_8:ptr <- $r0
	//DEBUG_VALUE: __dpu_sync_fetch_and_and_8:ptr <- $r0
	//DEBUG_VALUE: __dpu_sync_fetch_and_and_8:val <- $d2
	.cfi_def_cfa_offset 0
	.loc	2 64 1 prologue_end             // uPIMulator_frontend/sdk/syslib/atomics.c:64:1
	// inline asm
.Ltmp117:
	acquire zero, __atomic_bit_llvm_atomic_functions, nz, .Ltmp117
	// inline asm
	ld d4, r0, 0
.Ltmp118:
	//DEBUG_VALUE: __dpu_sync_fetch_and_and_8:load <- $d4
	//DEBUG_VALUE: __dpu_sync_fetch_and_and_8:val <- $d2
	and r3, r5, r3
.Ltmp119:
	and r2, r4, r2
	sd r0, 0, d2
	// inline asm
.Ltmp120:
	release zero, __atomic_bit_llvm_atomic_functions, nz, .Ltmp120+1
	// inline asm
	movd d0, d4
.Ltmp121:
	jump r23
.Ltmp122:
.Lfunc_end19:
	.size	__dpu_sync_fetch_and_and_8, .Lfunc_end19-__dpu_sync_fetch_and_and_8
	.cfi_endproc
	.section	.stack_sizes,"o",@progbits,.text.__dpu_sync_fetch_and_and_8
	.long	.Lfunc_begin19
	.byte	0
	.section	.text.__dpu_sync_fetch_and_and_8,"ax",@progbits
                                        // -- End function
	.section	.text.__dpu_sync_fetch_and_or_1,"ax",@progbits
	.globl	__dpu_sync_fetch_and_or_1       // -- Begin function __dpu_sync_fetch_and_or_1
	.type	__dpu_sync_fetch_and_or_1,@function
__dpu_sync_fetch_and_or_1:              // @__dpu_sync_fetch_and_or_1
.Lfunc_begin20:
	.loc	2 68 0                          // uPIMulator_frontend/sdk/syslib/atomics.c:68:0
	.cfi_startproc
// %bb.0:
	//DEBUG_VALUE: __dpu_sync_fetch_and_or_1:ptr <- $r0
	//DEBUG_VALUE: __dpu_sync_fetch_and_or_1:ptr <- $r0
	//DEBUG_VALUE: __dpu_sync_fetch_and_or_1:val <- $r1
	.cfi_def_cfa_offset 0
	.loc	2 68 1 prologue_end             // uPIMulator_frontend/sdk/syslib/atomics.c:68:1
	// inline asm
.Ltmp123:
	acquire zero, __atomic_bit_llvm_atomic_functions, nz, .Ltmp123
	// inline asm
	lbs r2, r0, 0
.Ltmp124:
	//DEBUG_VALUE: __dpu_sync_fetch_and_or_1:load <- $r2
	//DEBUG_VALUE: __dpu_sync_fetch_and_or_1:val <- $r1
	or r1, r2, r1
.Ltmp125:
	sb r0, 0, r1
	// inline asm
.Ltmp126:
	release zero, __atomic_bit_llvm_atomic_functions, nz, .Ltmp126+1
	// inline asm
	move r0, r2
.Ltmp127:
	jump r23
.Ltmp128:
.Lfunc_end20:
	.size	__dpu_sync_fetch_and_or_1, .Lfunc_end20-__dpu_sync_fetch_and_or_1
	.cfi_endproc
	.section	.stack_sizes,"o",@progbits,.text.__dpu_sync_fetch_and_or_1
	.long	.Lfunc_begin20
	.byte	0
	.section	.text.__dpu_sync_fetch_and_or_1,"ax",@progbits
                                        // -- End function
	.section	.text.__dpu_sync_fetch_and_or_2,"ax",@progbits
	.globl	__dpu_sync_fetch_and_or_2       // -- Begin function __dpu_sync_fetch_and_or_2
	.type	__dpu_sync_fetch_and_or_2,@function
__dpu_sync_fetch_and_or_2:              // @__dpu_sync_fetch_and_or_2
.Lfunc_begin21:
	.loc	2 68 0                          // uPIMulator_frontend/sdk/syslib/atomics.c:68:0
	.cfi_startproc
// %bb.0:
	//DEBUG_VALUE: __dpu_sync_fetch_and_or_2:ptr <- $r0
	//DEBUG_VALUE: __dpu_sync_fetch_and_or_2:ptr <- $r0
	//DEBUG_VALUE: __dpu_sync_fetch_and_or_2:val <- $r1
	.cfi_def_cfa_offset 0
	.loc	2 68 1 prologue_end             // uPIMulator_frontend/sdk/syslib/atomics.c:68:1
	// inline asm
.Ltmp129:
	acquire zero, __atomic_bit_llvm_atomic_functions, nz, .Ltmp129
	// inline asm
	lhs r2, r0, 0
.Ltmp130:
	//DEBUG_VALUE: __dpu_sync_fetch_and_or_2:load <- $r2
	//DEBUG_VALUE: __dpu_sync_fetch_and_or_2:val <- $r1
	or r1, r2, r1
.Ltmp131:
	sh r0, 0, r1
	// inline asm
.Ltmp132:
	release zero, __atomic_bit_llvm_atomic_functions, nz, .Ltmp132+1
	// inline asm
	move r0, r2
.Ltmp133:
	jump r23
.Ltmp134:
.Lfunc_end21:
	.size	__dpu_sync_fetch_and_or_2, .Lfunc_end21-__dpu_sync_fetch_and_or_2
	.cfi_endproc
	.section	.stack_sizes,"o",@progbits,.text.__dpu_sync_fetch_and_or_2
	.long	.Lfunc_begin21
	.byte	0
	.section	.text.__dpu_sync_fetch_and_or_2,"ax",@progbits
                                        // -- End function
	.section	.text.__dpu_sync_fetch_and_or_4,"ax",@progbits
	.globl	__dpu_sync_fetch_and_or_4       // -- Begin function __dpu_sync_fetch_and_or_4
	.type	__dpu_sync_fetch_and_or_4,@function
__dpu_sync_fetch_and_or_4:              // @__dpu_sync_fetch_and_or_4
.Lfunc_begin22:
	.loc	2 68 0                          // uPIMulator_frontend/sdk/syslib/atomics.c:68:0
	.cfi_startproc
// %bb.0:
	//DEBUG_VALUE: __dpu_sync_fetch_and_or_4:ptr <- $r0
	//DEBUG_VALUE: __dpu_sync_fetch_and_or_4:ptr <- $r0
	//DEBUG_VALUE: __dpu_sync_fetch_and_or_4:val <- $r1
	.cfi_def_cfa_offset 0
	.loc	2 68 1 prologue_end             // uPIMulator_frontend/sdk/syslib/atomics.c:68:1
	// inline asm
.Ltmp135:
	acquire zero, __atomic_bit_llvm_atomic_functions, nz, .Ltmp135
	// inline asm
	lw r2, r0, 0
.Ltmp136:
	//DEBUG_VALUE: __dpu_sync_fetch_and_or_4:load <- $r2
	//DEBUG_VALUE: __dpu_sync_fetch_and_or_4:val <- $r1
	or r1, r2, r1
.Ltmp137:
	sw r0, 0, r1
	// inline asm
.Ltmp138:
	release zero, __atomic_bit_llvm_atomic_functions, nz, .Ltmp138+1
	// inline asm
	move r0, r2
.Ltmp139:
	jump r23
.Ltmp140:
.Lfunc_end22:
	.size	__dpu_sync_fetch_and_or_4, .Lfunc_end22-__dpu_sync_fetch_and_or_4
	.cfi_endproc
	.section	.stack_sizes,"o",@progbits,.text.__dpu_sync_fetch_and_or_4
	.long	.Lfunc_begin22
	.byte	0
	.section	.text.__dpu_sync_fetch_and_or_4,"ax",@progbits
                                        // -- End function
	.section	.text.__dpu_sync_fetch_and_or_8,"ax",@progbits
	.globl	__dpu_sync_fetch_and_or_8       // -- Begin function __dpu_sync_fetch_and_or_8
	.type	__dpu_sync_fetch_and_or_8,@function
__dpu_sync_fetch_and_or_8:              // @__dpu_sync_fetch_and_or_8
.Lfunc_begin23:
	.loc	2 68 0                          // uPIMulator_frontend/sdk/syslib/atomics.c:68:0
	.cfi_startproc
// %bb.0:
	//DEBUG_VALUE: __dpu_sync_fetch_and_or_8:ptr <- $r0
	//DEBUG_VALUE: __dpu_sync_fetch_and_or_8:ptr <- $r0
	//DEBUG_VALUE: __dpu_sync_fetch_and_or_8:val <- $d2
	.cfi_def_cfa_offset 0
	.loc	2 68 1 prologue_end             // uPIMulator_frontend/sdk/syslib/atomics.c:68:1
	// inline asm
.Ltmp141:
	acquire zero, __atomic_bit_llvm_atomic_functions, nz, .Ltmp141
	// inline asm
	ld d4, r0, 0
.Ltmp142:
	//DEBUG_VALUE: __dpu_sync_fetch_and_or_8:load <- $d4
	//DEBUG_VALUE: __dpu_sync_fetch_and_or_8:val <- $d2
	or r3, r5, r3
.Ltmp143:
	or r2, r4, r2
	sd r0, 0, d2
	// inline asm
.Ltmp144:
	release zero, __atomic_bit_llvm_atomic_functions, nz, .Ltmp144+1
	// inline asm
	movd d0, d4
.Ltmp145:
	jump r23
.Ltmp146:
.Lfunc_end23:
	.size	__dpu_sync_fetch_and_or_8, .Lfunc_end23-__dpu_sync_fetch_and_or_8
	.cfi_endproc
	.section	.stack_sizes,"o",@progbits,.text.__dpu_sync_fetch_and_or_8
	.long	.Lfunc_begin23
	.byte	0
	.section	.text.__dpu_sync_fetch_and_or_8,"ax",@progbits
                                        // -- End function
	.section	.text.__dpu_sync_fetch_and_xor_1,"ax",@progbits
	.globl	__dpu_sync_fetch_and_xor_1      // -- Begin function __dpu_sync_fetch_and_xor_1
	.type	__dpu_sync_fetch_and_xor_1,@function
__dpu_sync_fetch_and_xor_1:             // @__dpu_sync_fetch_and_xor_1
.Lfunc_begin24:
	.loc	2 72 0                          // uPIMulator_frontend/sdk/syslib/atomics.c:72:0
	.cfi_startproc
// %bb.0:
	//DEBUG_VALUE: __dpu_sync_fetch_and_xor_1:ptr <- $r0
	//DEBUG_VALUE: __dpu_sync_fetch_and_xor_1:ptr <- $r0
	//DEBUG_VALUE: __dpu_sync_fetch_and_xor_1:val <- $r1
	.cfi_def_cfa_offset 0
	.loc	2 72 1 prologue_end             // uPIMulator_frontend/sdk/syslib/atomics.c:72:1
	// inline asm
.Ltmp147:
	acquire zero, __atomic_bit_llvm_atomic_functions, nz, .Ltmp147
	// inline asm
	lbs r2, r0, 0
.Ltmp148:
	//DEBUG_VALUE: __dpu_sync_fetch_and_xor_1:load <- $r2
	//DEBUG_VALUE: __dpu_sync_fetch_and_xor_1:val <- $r1
	xor r1, r2, r1
.Ltmp149:
	sb r0, 0, r1
	// inline asm
.Ltmp150:
	release zero, __atomic_bit_llvm_atomic_functions, nz, .Ltmp150+1
	// inline asm
	move r0, r2
.Ltmp151:
	jump r23
.Ltmp152:
.Lfunc_end24:
	.size	__dpu_sync_fetch_and_xor_1, .Lfunc_end24-__dpu_sync_fetch_and_xor_1
	.cfi_endproc
	.section	.stack_sizes,"o",@progbits,.text.__dpu_sync_fetch_and_xor_1
	.long	.Lfunc_begin24
	.byte	0
	.section	.text.__dpu_sync_fetch_and_xor_1,"ax",@progbits
                                        // -- End function
	.section	.text.__dpu_sync_fetch_and_xor_2,"ax",@progbits
	.globl	__dpu_sync_fetch_and_xor_2      // -- Begin function __dpu_sync_fetch_and_xor_2
	.type	__dpu_sync_fetch_and_xor_2,@function
__dpu_sync_fetch_and_xor_2:             // @__dpu_sync_fetch_and_xor_2
.Lfunc_begin25:
	.loc	2 72 0                          // uPIMulator_frontend/sdk/syslib/atomics.c:72:0
	.cfi_startproc
// %bb.0:
	//DEBUG_VALUE: __dpu_sync_fetch_and_xor_2:ptr <- $r0
	//DEBUG_VALUE: __dpu_sync_fetch_and_xor_2:ptr <- $r0
	//DEBUG_VALUE: __dpu_sync_fetch_and_xor_2:val <- $r1
	.cfi_def_cfa_offset 0
	.loc	2 72 1 prologue_end             // uPIMulator_frontend/sdk/syslib/atomics.c:72:1
	// inline asm
.Ltmp153:
	acquire zero, __atomic_bit_llvm_atomic_functions, nz, .Ltmp153
	// inline asm
	lhs r2, r0, 0
.Ltmp154:
	//DEBUG_VALUE: __dpu_sync_fetch_and_xor_2:load <- $r2
	//DEBUG_VALUE: __dpu_sync_fetch_and_xor_2:val <- $r1
	xor r1, r2, r1
.Ltmp155:
	sh r0, 0, r1
	// inline asm
.Ltmp156:
	release zero, __atomic_bit_llvm_atomic_functions, nz, .Ltmp156+1
	// inline asm
	move r0, r2
.Ltmp157:
	jump r23
.Ltmp158:
.Lfunc_end25:
	.size	__dpu_sync_fetch_and_xor_2, .Lfunc_end25-__dpu_sync_fetch_and_xor_2
	.cfi_endproc
	.section	.stack_sizes,"o",@progbits,.text.__dpu_sync_fetch_and_xor_2
	.long	.Lfunc_begin25
	.byte	0
	.section	.text.__dpu_sync_fetch_and_xor_2,"ax",@progbits
                                        // -- End function
	.section	.text.__dpu_sync_fetch_and_xor_4,"ax",@progbits
	.globl	__dpu_sync_fetch_and_xor_4      // -- Begin function __dpu_sync_fetch_and_xor_4
	.type	__dpu_sync_fetch_and_xor_4,@function
__dpu_sync_fetch_and_xor_4:             // @__dpu_sync_fetch_and_xor_4
.Lfunc_begin26:
	.loc	2 72 0                          // uPIMulator_frontend/sdk/syslib/atomics.c:72:0
	.cfi_startproc
// %bb.0:
	//DEBUG_VALUE: __dpu_sync_fetch_and_xor_4:ptr <- $r0
	//DEBUG_VALUE: __dpu_sync_fetch_and_xor_4:ptr <- $r0
	//DEBUG_VALUE: __dpu_sync_fetch_and_xor_4:val <- $r1
	.cfi_def_cfa_offset 0
	.loc	2 72 1 prologue_end             // uPIMulator_frontend/sdk/syslib/atomics.c:72:1
	// inline asm
.Ltmp159:
	acquire zero, __atomic_bit_llvm_atomic_functions, nz, .Ltmp159
	// inline asm
	lw r2, r0, 0
.Ltmp160:
	//DEBUG_VALUE: __dpu_sync_fetch_and_xor_4:load <- $r2
	//DEBUG_VALUE: __dpu_sync_fetch_and_xor_4:val <- $r1
	xor r1, r2, r1
.Ltmp161:
	sw r0, 0, r1
	// inline asm
.Ltmp162:
	release zero, __atomic_bit_llvm_atomic_functions, nz, .Ltmp162+1
	// inline asm
	move r0, r2
.Ltmp163:
	jump r23
.Ltmp164:
.Lfunc_end26:
	.size	__dpu_sync_fetch_and_xor_4, .Lfunc_end26-__dpu_sync_fetch_and_xor_4
	.cfi_endproc
	.section	.stack_sizes,"o",@progbits,.text.__dpu_sync_fetch_and_xor_4
	.long	.Lfunc_begin26
	.byte	0
	.section	.text.__dpu_sync_fetch_and_xor_4,"ax",@progbits
                                        // -- End function
	.section	.text.__dpu_sync_fetch_and_xor_8,"ax",@progbits
	.globl	__dpu_sync_fetch_and_xor_8      // -- Begin function __dpu_sync_fetch_and_xor_8
	.type	__dpu_sync_fetch_and_xor_8,@function
__dpu_sync_fetch_and_xor_8:             // @__dpu_sync_fetch_and_xor_8
.Lfunc_begin27:
	.loc	2 72 0                          // uPIMulator_frontend/sdk/syslib/atomics.c:72:0
	.cfi_startproc
// %bb.0:
	//DEBUG_VALUE: __dpu_sync_fetch_and_xor_8:ptr <- $r0
	//DEBUG_VALUE: __dpu_sync_fetch_and_xor_8:ptr <- $r0
	//DEBUG_VALUE: __dpu_sync_fetch_and_xor_8:val <- $d2
	.cfi_def_cfa_offset 0
	.loc	2 72 1 prologue_end             // uPIMulator_frontend/sdk/syslib/atomics.c:72:1
	// inline asm
.Ltmp165:
	acquire zero, __atomic_bit_llvm_atomic_functions, nz, .Ltmp165
	// inline asm
	ld d4, r0, 0
.Ltmp166:
	//DEBUG_VALUE: __dpu_sync_fetch_and_xor_8:load <- $d4
	//DEBUG_VALUE: __dpu_sync_fetch_and_xor_8:val <- $d2
	xor r3, r5, r3
.Ltmp167:
	xor r2, r4, r2
	sd r0, 0, d2
	// inline asm
.Ltmp168:
	release zero, __atomic_bit_llvm_atomic_functions, nz, .Ltmp168+1
	// inline asm
	movd d0, d4
.Ltmp169:
	jump r23
.Ltmp170:
.Lfunc_end27:
	.size	__dpu_sync_fetch_and_xor_8, .Lfunc_end27-__dpu_sync_fetch_and_xor_8
	.cfi_endproc
	.section	.stack_sizes,"o",@progbits,.text.__dpu_sync_fetch_and_xor_8
	.long	.Lfunc_begin27
	.byte	0
	.section	.text.__dpu_sync_fetch_and_xor_8,"ax",@progbits
                                        // -- End function
	.section	.text.__dpu_sync_fetch_and_nand_1,"ax",@progbits
	.globl	__dpu_sync_fetch_and_nand_1     // -- Begin function __dpu_sync_fetch_and_nand_1
	.type	__dpu_sync_fetch_and_nand_1,@function
__dpu_sync_fetch_and_nand_1:            // @__dpu_sync_fetch_and_nand_1
.Lfunc_begin28:
	.loc	2 76 0                          // uPIMulator_frontend/sdk/syslib/atomics.c:76:0
	.cfi_startproc
// %bb.0:
	//DEBUG_VALUE: __dpu_sync_fetch_and_nand_1:ptr <- $r0
	//DEBUG_VALUE: __dpu_sync_fetch_and_nand_1:ptr <- $r0
	//DEBUG_VALUE: __dpu_sync_fetch_and_nand_1:val <- $r1
	.cfi_def_cfa_offset 0
	.loc	2 76 1 prologue_end             // uPIMulator_frontend/sdk/syslib/atomics.c:76:1
	// inline asm
.Ltmp171:
	acquire zero, __atomic_bit_llvm_atomic_functions, nz, .Ltmp171
	// inline asm
	lbs r2, r0, 0
.Ltmp172:
	//DEBUG_VALUE: __dpu_sync_fetch_and_nand_1:load <- $r2
	//DEBUG_VALUE: __dpu_sync_fetch_and_nand_1:val <- $r1
	nand r1, r2, r1
.Ltmp173:
	sb r0, 0, r1
	// inline asm
.Ltmp174:
	release zero, __atomic_bit_llvm_atomic_functions, nz, .Ltmp174+1
	// inline asm
	move r0, r2
.Ltmp175:
	jump r23
.Ltmp176:
.Lfunc_end28:
	.size	__dpu_sync_fetch_and_nand_1, .Lfunc_end28-__dpu_sync_fetch_and_nand_1
	.cfi_endproc
	.section	.stack_sizes,"o",@progbits,.text.__dpu_sync_fetch_and_nand_1
	.long	.Lfunc_begin28
	.byte	0
	.section	.text.__dpu_sync_fetch_and_nand_1,"ax",@progbits
                                        // -- End function
	.section	.text.__dpu_sync_fetch_and_nand_2,"ax",@progbits
	.globl	__dpu_sync_fetch_and_nand_2     // -- Begin function __dpu_sync_fetch_and_nand_2
	.type	__dpu_sync_fetch_and_nand_2,@function
__dpu_sync_fetch_and_nand_2:            // @__dpu_sync_fetch_and_nand_2
.Lfunc_begin29:
	.loc	2 76 0                          // uPIMulator_frontend/sdk/syslib/atomics.c:76:0
	.cfi_startproc
// %bb.0:
	//DEBUG_VALUE: __dpu_sync_fetch_and_nand_2:ptr <- $r0
	//DEBUG_VALUE: __dpu_sync_fetch_and_nand_2:ptr <- $r0
	//DEBUG_VALUE: __dpu_sync_fetch_and_nand_2:val <- $r1
	.cfi_def_cfa_offset 0
	.loc	2 76 1 prologue_end             // uPIMulator_frontend/sdk/syslib/atomics.c:76:1
	// inline asm
.Ltmp177:
	acquire zero, __atomic_bit_llvm_atomic_functions, nz, .Ltmp177
	// inline asm
	lhs r2, r0, 0
.Ltmp178:
	//DEBUG_VALUE: __dpu_sync_fetch_and_nand_2:load <- $r2
	//DEBUG_VALUE: __dpu_sync_fetch_and_nand_2:val <- $r1
	nand r1, r2, r1
.Ltmp179:
	sh r0, 0, r1
	// inline asm
.Ltmp180:
	release zero, __atomic_bit_llvm_atomic_functions, nz, .Ltmp180+1
	// inline asm
	move r0, r2
.Ltmp181:
	jump r23
.Ltmp182:
.Lfunc_end29:
	.size	__dpu_sync_fetch_and_nand_2, .Lfunc_end29-__dpu_sync_fetch_and_nand_2
	.cfi_endproc
	.section	.stack_sizes,"o",@progbits,.text.__dpu_sync_fetch_and_nand_2
	.long	.Lfunc_begin29
	.byte	0
	.section	.text.__dpu_sync_fetch_and_nand_2,"ax",@progbits
                                        // -- End function
	.section	.text.__dpu_sync_fetch_and_nand_4,"ax",@progbits
	.globl	__dpu_sync_fetch_and_nand_4     // -- Begin function __dpu_sync_fetch_and_nand_4
	.type	__dpu_sync_fetch_and_nand_4,@function
__dpu_sync_fetch_and_nand_4:            // @__dpu_sync_fetch_and_nand_4
.Lfunc_begin30:
	.loc	2 76 0                          // uPIMulator_frontend/sdk/syslib/atomics.c:76:0
	.cfi_startproc
// %bb.0:
	//DEBUG_VALUE: __dpu_sync_fetch_and_nand_4:ptr <- $r0
	//DEBUG_VALUE: __dpu_sync_fetch_and_nand_4:ptr <- $r0
	//DEBUG_VALUE: __dpu_sync_fetch_and_nand_4:val <- $r1
	.cfi_def_cfa_offset 0
	.loc	2 76 1 prologue_end             // uPIMulator_frontend/sdk/syslib/atomics.c:76:1
	// inline asm
.Ltmp183:
	acquire zero, __atomic_bit_llvm_atomic_functions, nz, .Ltmp183
	// inline asm
	lw r2, r0, 0
.Ltmp184:
	//DEBUG_VALUE: __dpu_sync_fetch_and_nand_4:load <- $r2
	//DEBUG_VALUE: __dpu_sync_fetch_and_nand_4:val <- $r1
	nand r1, r2, r1
.Ltmp185:
	sw r0, 0, r1
	// inline asm
.Ltmp186:
	release zero, __atomic_bit_llvm_atomic_functions, nz, .Ltmp186+1
	// inline asm
	move r0, r2
.Ltmp187:
	jump r23
.Ltmp188:
.Lfunc_end30:
	.size	__dpu_sync_fetch_and_nand_4, .Lfunc_end30-__dpu_sync_fetch_and_nand_4
	.cfi_endproc
	.section	.stack_sizes,"o",@progbits,.text.__dpu_sync_fetch_and_nand_4
	.long	.Lfunc_begin30
	.byte	0
	.section	.text.__dpu_sync_fetch_and_nand_4,"ax",@progbits
                                        // -- End function
	.section	.text.__dpu_sync_fetch_and_nand_8,"ax",@progbits
	.globl	__dpu_sync_fetch_and_nand_8     // -- Begin function __dpu_sync_fetch_and_nand_8
	.type	__dpu_sync_fetch_and_nand_8,@function
__dpu_sync_fetch_and_nand_8:            // @__dpu_sync_fetch_and_nand_8
.Lfunc_begin31:
	.loc	2 76 0                          // uPIMulator_frontend/sdk/syslib/atomics.c:76:0
	.cfi_startproc
// %bb.0:
	//DEBUG_VALUE: __dpu_sync_fetch_and_nand_8:ptr <- $r0
	//DEBUG_VALUE: __dpu_sync_fetch_and_nand_8:ptr <- $r0
	//DEBUG_VALUE: __dpu_sync_fetch_and_nand_8:val <- $d2
	.cfi_def_cfa_offset 0
	.loc	2 76 1 prologue_end             // uPIMulator_frontend/sdk/syslib/atomics.c:76:1
	// inline asm
.Ltmp189:
	acquire zero, __atomic_bit_llvm_atomic_functions, nz, .Ltmp189
	// inline asm
	ld d4, r0, 0
.Ltmp190:
	//DEBUG_VALUE: __dpu_sync_fetch_and_nand_8:load <- $d4
	//DEBUG_VALUE: __dpu_sync_fetch_and_nand_8:val <- $d2
	and r3, r5, r3
.Ltmp191:
	and r2, r4, r2
	xor r3, r3, 4294967295
	xor r2, r2, 4294967295
	sd r0, 0, d2
	// inline asm
.Ltmp192:
	release zero, __atomic_bit_llvm_atomic_functions, nz, .Ltmp192+1
	// inline asm
	movd d0, d4
.Ltmp193:
	jump r23
.Ltmp194:
.Lfunc_end31:
	.size	__dpu_sync_fetch_and_nand_8, .Lfunc_end31-__dpu_sync_fetch_and_nand_8
	.cfi_endproc
	.section	.stack_sizes,"o",@progbits,.text.__dpu_sync_fetch_and_nand_8
	.long	.Lfunc_begin31
	.byte	0
	.section	.text.__dpu_sync_fetch_and_nand_8,"ax",@progbits
                                        // -- End function
	.section	.text.__dpu_sync_fetch_and_max_1,"ax",@progbits
	.globl	__dpu_sync_fetch_and_max_1      // -- Begin function __dpu_sync_fetch_and_max_1
	.type	__dpu_sync_fetch_and_max_1,@function
__dpu_sync_fetch_and_max_1:             // @__dpu_sync_fetch_and_max_1
.Lfunc_begin32:
	.loc	2 80 0                          // uPIMulator_frontend/sdk/syslib/atomics.c:80:0
	.cfi_startproc
// %bb.0:
	//DEBUG_VALUE: __dpu_sync_fetch_and_max_1:ptr <- $r0
	//DEBUG_VALUE: __dpu_sync_fetch_and_max_1:val <- $r1
	.cfi_def_cfa_offset 0
	move r2, r0
.Ltmp195:
	//DEBUG_VALUE: __dpu_sync_fetch_and_max_1:ptr <- $r2
	.loc	2 80 1 prologue_end             // uPIMulator_frontend/sdk/syslib/atomics.c:80:1
	// inline asm
.Ltmp196:
	acquire zero, __atomic_bit_llvm_atomic_functions, nz, .Ltmp196
	// inline asm
	lbs r0, r2, 0
.Ltmp197:
	//DEBUG_VALUE: __dpu_sync_fetch_and_max_1:load <- $r0
	//DEBUG_VALUE: __dpu_sync_fetch_and_max_1:val <- $r1
	move r3, r0
	jgts r0, r1, .LBB32_2
.Ltmp198:
// %bb.1:
	//DEBUG_VALUE: __dpu_sync_fetch_and_max_1:ptr <- $r2
	//DEBUG_VALUE: __dpu_sync_fetch_and_max_1:val <- $r1
	//DEBUG_VALUE: __dpu_sync_fetch_and_max_1:load <- $r0
	move r3, r1
.Ltmp199:
.LBB32_2:
	//DEBUG_VALUE: __dpu_sync_fetch_and_max_1:ptr <- $r2
	//DEBUG_VALUE: __dpu_sync_fetch_and_max_1:val <- $r1
	//DEBUG_VALUE: __dpu_sync_fetch_and_max_1:load <- $r0
	sb r2, 0, r3
	// inline asm
.Ltmp200:
	release zero, __atomic_bit_llvm_atomic_functions, nz, .Ltmp200+1
	// inline asm
	jump r23
.Ltmp201:
.Lfunc_end32:
	.size	__dpu_sync_fetch_and_max_1, .Lfunc_end32-__dpu_sync_fetch_and_max_1
	.cfi_endproc
	.section	.stack_sizes,"o",@progbits,.text.__dpu_sync_fetch_and_max_1
	.long	.Lfunc_begin32
	.byte	0
	.section	.text.__dpu_sync_fetch_and_max_1,"ax",@progbits
                                        // -- End function
	.section	.text.__dpu_sync_fetch_and_max_2,"ax",@progbits
	.globl	__dpu_sync_fetch_and_max_2      // -- Begin function __dpu_sync_fetch_and_max_2
	.type	__dpu_sync_fetch_and_max_2,@function
__dpu_sync_fetch_and_max_2:             // @__dpu_sync_fetch_and_max_2
.Lfunc_begin33:
	.loc	2 80 0                          // uPIMulator_frontend/sdk/syslib/atomics.c:80:0
	.cfi_startproc
// %bb.0:
	//DEBUG_VALUE: __dpu_sync_fetch_and_max_2:ptr <- $r0
	//DEBUG_VALUE: __dpu_sync_fetch_and_max_2:val <- $r1
	.cfi_def_cfa_offset 0
	move r2, r0
.Ltmp202:
	//DEBUG_VALUE: __dpu_sync_fetch_and_max_2:ptr <- $r2
	.loc	2 80 1 prologue_end             // uPIMulator_frontend/sdk/syslib/atomics.c:80:1
	// inline asm
.Ltmp203:
	acquire zero, __atomic_bit_llvm_atomic_functions, nz, .Ltmp203
	// inline asm
	lhs r0, r2, 0
.Ltmp204:
	//DEBUG_VALUE: __dpu_sync_fetch_and_max_2:load <- $r0
	//DEBUG_VALUE: __dpu_sync_fetch_and_max_2:val <- $r1
	move r3, r0
	jgts r0, r1, .LBB33_2
.Ltmp205:
// %bb.1:
	//DEBUG_VALUE: __dpu_sync_fetch_and_max_2:ptr <- $r2
	//DEBUG_VALUE: __dpu_sync_fetch_and_max_2:val <- $r1
	//DEBUG_VALUE: __dpu_sync_fetch_and_max_2:load <- $r0
	move r3, r1
.Ltmp206:
.LBB33_2:
	//DEBUG_VALUE: __dpu_sync_fetch_and_max_2:ptr <- $r2
	//DEBUG_VALUE: __dpu_sync_fetch_and_max_2:val <- $r1
	//DEBUG_VALUE: __dpu_sync_fetch_and_max_2:load <- $r0
	sh r2, 0, r3
	// inline asm
.Ltmp207:
	release zero, __atomic_bit_llvm_atomic_functions, nz, .Ltmp207+1
	// inline asm
	jump r23
.Ltmp208:
.Lfunc_end33:
	.size	__dpu_sync_fetch_and_max_2, .Lfunc_end33-__dpu_sync_fetch_and_max_2
	.cfi_endproc
	.section	.stack_sizes,"o",@progbits,.text.__dpu_sync_fetch_and_max_2
	.long	.Lfunc_begin33
	.byte	0
	.section	.text.__dpu_sync_fetch_and_max_2,"ax",@progbits
                                        // -- End function
	.section	.text.__dpu_sync_fetch_and_max_4,"ax",@progbits
	.globl	__dpu_sync_fetch_and_max_4      // -- Begin function __dpu_sync_fetch_and_max_4
	.type	__dpu_sync_fetch_and_max_4,@function
__dpu_sync_fetch_and_max_4:             // @__dpu_sync_fetch_and_max_4
.Lfunc_begin34:
	.loc	2 80 0                          // uPIMulator_frontend/sdk/syslib/atomics.c:80:0
	.cfi_startproc
// %bb.0:
	//DEBUG_VALUE: __dpu_sync_fetch_and_max_4:ptr <- $r0
	//DEBUG_VALUE: __dpu_sync_fetch_and_max_4:val <- $r1
	.cfi_def_cfa_offset 0
	move r2, r0
.Ltmp209:
	//DEBUG_VALUE: __dpu_sync_fetch_and_max_4:ptr <- $r2
	.loc	2 80 1 prologue_end             // uPIMulator_frontend/sdk/syslib/atomics.c:80:1
	// inline asm
.Ltmp210:
	acquire zero, __atomic_bit_llvm_atomic_functions, nz, .Ltmp210
	// inline asm
	lw r0, r2, 0
.Ltmp211:
	//DEBUG_VALUE: __dpu_sync_fetch_and_max_4:load <- $r0
	//DEBUG_VALUE: __dpu_sync_fetch_and_max_4:val <- $r1
	move r3, r0
	jgts r0, r1, .LBB34_2
.Ltmp212:
// %bb.1:
	//DEBUG_VALUE: __dpu_sync_fetch_and_max_4:ptr <- $r2
	//DEBUG_VALUE: __dpu_sync_fetch_and_max_4:val <- $r1
	//DEBUG_VALUE: __dpu_sync_fetch_and_max_4:load <- $r0
	move r3, r1
.Ltmp213:
.LBB34_2:
	//DEBUG_VALUE: __dpu_sync_fetch_and_max_4:ptr <- $r2
	//DEBUG_VALUE: __dpu_sync_fetch_and_max_4:val <- $r1
	//DEBUG_VALUE: __dpu_sync_fetch_and_max_4:load <- $r0
	sw r2, 0, r3
	// inline asm
.Ltmp214:
	release zero, __atomic_bit_llvm_atomic_functions, nz, .Ltmp214+1
	// inline asm
	jump r23
.Ltmp215:
.Lfunc_end34:
	.size	__dpu_sync_fetch_and_max_4, .Lfunc_end34-__dpu_sync_fetch_and_max_4
	.cfi_endproc
	.section	.stack_sizes,"o",@progbits,.text.__dpu_sync_fetch_and_max_4
	.long	.Lfunc_begin34
	.byte	0
	.section	.text.__dpu_sync_fetch_and_max_4,"ax",@progbits
                                        // -- End function
	.section	.text.__dpu_sync_fetch_and_max_8,"ax",@progbits
	.globl	__dpu_sync_fetch_and_max_8      // -- Begin function __dpu_sync_fetch_and_max_8
	.type	__dpu_sync_fetch_and_max_8,@function
__dpu_sync_fetch_and_max_8:             // @__dpu_sync_fetch_and_max_8
.Lfunc_begin35:
	.loc	2 80 0                          // uPIMulator_frontend/sdk/syslib/atomics.c:80:0
	.cfi_startproc
// %bb.0:
	//DEBUG_VALUE: __dpu_sync_fetch_and_max_8:ptr <- $r0
	//DEBUG_VALUE: __dpu_sync_fetch_and_max_8:val <- $d2
	.cfi_def_cfa_offset 0
	move r4, r0
.Ltmp216:
	//DEBUG_VALUE: __dpu_sync_fetch_and_max_8:ptr <- $r4
	.loc	2 80 1 prologue_end             // uPIMulator_frontend/sdk/syslib/atomics.c:80:1
	// inline asm
.Ltmp217:
	acquire zero, __atomic_bit_llvm_atomic_functions, nz, .Ltmp217
	// inline asm
	ld d0, r4, 0
.Ltmp218:
	//DEBUG_VALUE: __dpu_sync_fetch_and_max_8:load <- $d0
	//DEBUG_VALUE: __dpu_sync_fetch_and_max_8:val <- $d2
	movd d6, d0
	sub zero, r1, r3
	subc zero, r0, r2, xgts, .LBB35_2
.Ltmp219:
// %bb.1:
	//DEBUG_VALUE: __dpu_sync_fetch_and_max_8:ptr <- $r4
	//DEBUG_VALUE: __dpu_sync_fetch_and_max_8:val <- $d2
	//DEBUG_VALUE: __dpu_sync_fetch_and_max_8:load <- $d0
	movd d6, d2
.Ltmp220:
.LBB35_2:
	//DEBUG_VALUE: __dpu_sync_fetch_and_max_8:ptr <- $r4
	//DEBUG_VALUE: __dpu_sync_fetch_and_max_8:val <- $d2
	//DEBUG_VALUE: __dpu_sync_fetch_and_max_8:load <- $d0
	sd r4, 0, d6
	// inline asm
.Ltmp221:
	release zero, __atomic_bit_llvm_atomic_functions, nz, .Ltmp221+1
	// inline asm
	jump r23
.Ltmp222:
.Lfunc_end35:
	.size	__dpu_sync_fetch_and_max_8, .Lfunc_end35-__dpu_sync_fetch_and_max_8
	.cfi_endproc
	.section	.stack_sizes,"o",@progbits,.text.__dpu_sync_fetch_and_max_8
	.long	.Lfunc_begin35
	.byte	0
	.section	.text.__dpu_sync_fetch_and_max_8,"ax",@progbits
                                        // -- End function
	.section	.text.__dpu_sync_fetch_and_umax_1,"ax",@progbits
	.globl	__dpu_sync_fetch_and_umax_1     // -- Begin function __dpu_sync_fetch_and_umax_1
	.type	__dpu_sync_fetch_and_umax_1,@function
__dpu_sync_fetch_and_umax_1:            // @__dpu_sync_fetch_and_umax_1
.Lfunc_begin36:
	.loc	2 84 0                          // uPIMulator_frontend/sdk/syslib/atomics.c:84:0
	.cfi_startproc
// %bb.0:
	//DEBUG_VALUE: __dpu_sync_fetch_and_umax_1:ptr <- $r0
	//DEBUG_VALUE: __dpu_sync_fetch_and_umax_1:ptr <- $r0
	//DEBUG_VALUE: __dpu_sync_fetch_and_umax_1:val <- $r1
	.cfi_def_cfa_offset 0
	.loc	2 84 1 prologue_end             // uPIMulator_frontend/sdk/syslib/atomics.c:84:1
	// inline asm
.Ltmp223:
	acquire zero, __atomic_bit_llvm_atomic_functions, nz, .Ltmp223
	// inline asm
	lbu r2, r0, 0
.Ltmp224:
	//DEBUG_VALUE: __dpu_sync_fetch_and_umax_1:load <- $r2
	//DEBUG_VALUE: __dpu_sync_fetch_and_umax_1:val <- $r1
	.loc	2 0 1 is_stmt 0                 // uPIMulator_frontend/sdk/syslib/atomics.c:0:1
	and r4, r1, 255
	.loc	2 84 1                          // uPIMulator_frontend/sdk/syslib/atomics.c:84:1
	move r3, r2
	jgtu r2, r4, .LBB36_2
.Ltmp225:
// %bb.1:
	//DEBUG_VALUE: __dpu_sync_fetch_and_umax_1:load <- $r2
	//DEBUG_VALUE: __dpu_sync_fetch_and_umax_1:val <- $r1
	//DEBUG_VALUE: __dpu_sync_fetch_and_umax_1:ptr <- $r0
	move r3, r1
.Ltmp226:
.LBB36_2:
	//DEBUG_VALUE: __dpu_sync_fetch_and_umax_1:load <- $r2
	//DEBUG_VALUE: __dpu_sync_fetch_and_umax_1:val <- $r1
	//DEBUG_VALUE: __dpu_sync_fetch_and_umax_1:ptr <- $r0
	sb r0, 0, r3
	// inline asm
.Ltmp227:
	release zero, __atomic_bit_llvm_atomic_functions, nz, .Ltmp227+1
	// inline asm
	extsb r0, r2
.Ltmp228:
	jump r23
.Ltmp229:
.Lfunc_end36:
	.size	__dpu_sync_fetch_and_umax_1, .Lfunc_end36-__dpu_sync_fetch_and_umax_1
	.cfi_endproc
	.section	.stack_sizes,"o",@progbits,.text.__dpu_sync_fetch_and_umax_1
	.long	.Lfunc_begin36
	.byte	0
	.section	.text.__dpu_sync_fetch_and_umax_1,"ax",@progbits
                                        // -- End function
	.section	.text.__dpu_sync_fetch_and_umax_2,"ax",@progbits
	.globl	__dpu_sync_fetch_and_umax_2     // -- Begin function __dpu_sync_fetch_and_umax_2
	.type	__dpu_sync_fetch_and_umax_2,@function
__dpu_sync_fetch_and_umax_2:            // @__dpu_sync_fetch_and_umax_2
.Lfunc_begin37:
	.loc	2 84 0 is_stmt 1                // uPIMulator_frontend/sdk/syslib/atomics.c:84:0
	.cfi_startproc
// %bb.0:
	//DEBUG_VALUE: __dpu_sync_fetch_and_umax_2:ptr <- $r0
	//DEBUG_VALUE: __dpu_sync_fetch_and_umax_2:ptr <- $r0
	//DEBUG_VALUE: __dpu_sync_fetch_and_umax_2:val <- $r1
	.cfi_def_cfa_offset 0
	.loc	2 84 1 prologue_end             // uPIMulator_frontend/sdk/syslib/atomics.c:84:1
	// inline asm
.Ltmp230:
	acquire zero, __atomic_bit_llvm_atomic_functions, nz, .Ltmp230
	// inline asm
	lhu r2, r0, 0
.Ltmp231:
	//DEBUG_VALUE: __dpu_sync_fetch_and_umax_2:load <- $r2
	//DEBUG_VALUE: __dpu_sync_fetch_and_umax_2:val <- $r1
	.loc	2 0 1 is_stmt 0                 // uPIMulator_frontend/sdk/syslib/atomics.c:0:1
	and r4, r1, 65535
	.loc	2 84 1                          // uPIMulator_frontend/sdk/syslib/atomics.c:84:1
	move r3, r2
	jgtu r2, r4, .LBB37_2
.Ltmp232:
// %bb.1:
	//DEBUG_VALUE: __dpu_sync_fetch_and_umax_2:load <- $r2
	//DEBUG_VALUE: __dpu_sync_fetch_and_umax_2:val <- $r1
	//DEBUG_VALUE: __dpu_sync_fetch_and_umax_2:ptr <- $r0
	move r3, r1
.Ltmp233:
.LBB37_2:
	//DEBUG_VALUE: __dpu_sync_fetch_and_umax_2:load <- $r2
	//DEBUG_VALUE: __dpu_sync_fetch_and_umax_2:val <- $r1
	//DEBUG_VALUE: __dpu_sync_fetch_and_umax_2:ptr <- $r0
	sh r0, 0, r3
	// inline asm
.Ltmp234:
	release zero, __atomic_bit_llvm_atomic_functions, nz, .Ltmp234+1
	// inline asm
	extsh r0, r2
.Ltmp235:
	jump r23
.Ltmp236:
.Lfunc_end37:
	.size	__dpu_sync_fetch_and_umax_2, .Lfunc_end37-__dpu_sync_fetch_and_umax_2
	.cfi_endproc
	.section	.stack_sizes,"o",@progbits,.text.__dpu_sync_fetch_and_umax_2
	.long	.Lfunc_begin37
	.byte	0
	.section	.text.__dpu_sync_fetch_and_umax_2,"ax",@progbits
                                        // -- End function
	.section	.text.__dpu_sync_fetch_and_umax_4,"ax",@progbits
	.globl	__dpu_sync_fetch_and_umax_4     // -- Begin function __dpu_sync_fetch_and_umax_4
	.type	__dpu_sync_fetch_and_umax_4,@function
__dpu_sync_fetch_and_umax_4:            // @__dpu_sync_fetch_and_umax_4
.Lfunc_begin38:
	.loc	2 84 0 is_stmt 1                // uPIMulator_frontend/sdk/syslib/atomics.c:84:0
	.cfi_startproc
// %bb.0:
	//DEBUG_VALUE: __dpu_sync_fetch_and_umax_4:ptr <- $r0
	//DEBUG_VALUE: __dpu_sync_fetch_and_umax_4:val <- $r1
	.cfi_def_cfa_offset 0
	move r2, r0
.Ltmp237:
	//DEBUG_VALUE: __dpu_sync_fetch_and_umax_4:ptr <- $r2
	.loc	2 84 1 prologue_end             // uPIMulator_frontend/sdk/syslib/atomics.c:84:1
	// inline asm
.Ltmp238:
	acquire zero, __atomic_bit_llvm_atomic_functions, nz, .Ltmp238
	// inline asm
	lw r0, r2, 0
.Ltmp239:
	//DEBUG_VALUE: __dpu_sync_fetch_and_umax_4:load <- $r0
	//DEBUG_VALUE: __dpu_sync_fetch_and_umax_4:val <- $r1
	move r3, r0
	jgtu r0, r1, .LBB38_2
.Ltmp240:
// %bb.1:
	//DEBUG_VALUE: __dpu_sync_fetch_and_umax_4:ptr <- $r2
	//DEBUG_VALUE: __dpu_sync_fetch_and_umax_4:val <- $r1
	//DEBUG_VALUE: __dpu_sync_fetch_and_umax_4:load <- $r0
	move r3, r1
.Ltmp241:
.LBB38_2:
	//DEBUG_VALUE: __dpu_sync_fetch_and_umax_4:ptr <- $r2
	//DEBUG_VALUE: __dpu_sync_fetch_and_umax_4:val <- $r1
	//DEBUG_VALUE: __dpu_sync_fetch_and_umax_4:load <- $r0
	sw r2, 0, r3
	// inline asm
.Ltmp242:
	release zero, __atomic_bit_llvm_atomic_functions, nz, .Ltmp242+1
	// inline asm
	jump r23
.Ltmp243:
.Lfunc_end38:
	.size	__dpu_sync_fetch_and_umax_4, .Lfunc_end38-__dpu_sync_fetch_and_umax_4
	.cfi_endproc
	.section	.stack_sizes,"o",@progbits,.text.__dpu_sync_fetch_and_umax_4
	.long	.Lfunc_begin38
	.byte	0
	.section	.text.__dpu_sync_fetch_and_umax_4,"ax",@progbits
                                        // -- End function
	.section	.text.__dpu_sync_fetch_and_umax_8,"ax",@progbits
	.globl	__dpu_sync_fetch_and_umax_8     // -- Begin function __dpu_sync_fetch_and_umax_8
	.type	__dpu_sync_fetch_and_umax_8,@function
__dpu_sync_fetch_and_umax_8:            // @__dpu_sync_fetch_and_umax_8
.Lfunc_begin39:
	.loc	2 84 0                          // uPIMulator_frontend/sdk/syslib/atomics.c:84:0
	.cfi_startproc
// %bb.0:
	//DEBUG_VALUE: __dpu_sync_fetch_and_umax_8:ptr <- $r0
	//DEBUG_VALUE: __dpu_sync_fetch_and_umax_8:val <- $d2
	.cfi_def_cfa_offset 0
	move r4, r0
.Ltmp244:
	//DEBUG_VALUE: __dpu_sync_fetch_and_umax_8:ptr <- $r4
	.loc	2 84 1 prologue_end             // uPIMulator_frontend/sdk/syslib/atomics.c:84:1
	// inline asm
.Ltmp245:
	acquire zero, __atomic_bit_llvm_atomic_functions, nz, .Ltmp245
	// inline asm
	ld d0, r4, 0
.Ltmp246:
	//DEBUG_VALUE: __dpu_sync_fetch_and_umax_8:load <- $d0
	//DEBUG_VALUE: __dpu_sync_fetch_and_umax_8:val <- $d2
	movd d6, d0
	sub zero, r1, r3
	subc zero, r0, r2, xgtu, .LBB39_2
.Ltmp247:
// %bb.1:
	//DEBUG_VALUE: __dpu_sync_fetch_and_umax_8:ptr <- $r4
	//DEBUG_VALUE: __dpu_sync_fetch_and_umax_8:val <- $d2
	//DEBUG_VALUE: __dpu_sync_fetch_and_umax_8:load <- $d0
	movd d6, d2
.Ltmp248:
.LBB39_2:
	//DEBUG_VALUE: __dpu_sync_fetch_and_umax_8:ptr <- $r4
	//DEBUG_VALUE: __dpu_sync_fetch_and_umax_8:val <- $d2
	//DEBUG_VALUE: __dpu_sync_fetch_and_umax_8:load <- $d0
	sd r4, 0, d6
	// inline asm
.Ltmp249:
	release zero, __atomic_bit_llvm_atomic_functions, nz, .Ltmp249+1
	// inline asm
	jump r23
.Ltmp250:
.Lfunc_end39:
	.size	__dpu_sync_fetch_and_umax_8, .Lfunc_end39-__dpu_sync_fetch_and_umax_8
	.cfi_endproc
	.section	.stack_sizes,"o",@progbits,.text.__dpu_sync_fetch_and_umax_8
	.long	.Lfunc_begin39
	.byte	0
	.section	.text.__dpu_sync_fetch_and_umax_8,"ax",@progbits
                                        // -- End function
	.section	.text.__dpu_sync_fetch_and_min_1,"ax",@progbits
	.globl	__dpu_sync_fetch_and_min_1      // -- Begin function __dpu_sync_fetch_and_min_1
	.type	__dpu_sync_fetch_and_min_1,@function
__dpu_sync_fetch_and_min_1:             // @__dpu_sync_fetch_and_min_1
.Lfunc_begin40:
	.loc	2 88 0                          // uPIMulator_frontend/sdk/syslib/atomics.c:88:0
	.cfi_startproc
// %bb.0:
	//DEBUG_VALUE: __dpu_sync_fetch_and_min_1:ptr <- $r0
	//DEBUG_VALUE: __dpu_sync_fetch_and_min_1:val <- $r1
	.cfi_def_cfa_offset 0
	move r2, r0
.Ltmp251:
	//DEBUG_VALUE: __dpu_sync_fetch_and_min_1:ptr <- $r2
	.loc	2 88 1 prologue_end             // uPIMulator_frontend/sdk/syslib/atomics.c:88:1
	// inline asm
.Ltmp252:
	acquire zero, __atomic_bit_llvm_atomic_functions, nz, .Ltmp252
	// inline asm
	lbs r0, r2, 0
.Ltmp253:
	//DEBUG_VALUE: __dpu_sync_fetch_and_min_1:load <- $r0
	//DEBUG_VALUE: __dpu_sync_fetch_and_min_1:val <- $r1
	move r3, r0
	jgts r0, r1, .LBB40_2
.Ltmp254:
// %bb.1:
	//DEBUG_VALUE: __dpu_sync_fetch_and_min_1:ptr <- $r2
	//DEBUG_VALUE: __dpu_sync_fetch_and_min_1:val <- $r1
	//DEBUG_VALUE: __dpu_sync_fetch_and_min_1:load <- $r0
	move r3, r1
.Ltmp255:
.LBB40_2:
	//DEBUG_VALUE: __dpu_sync_fetch_and_min_1:ptr <- $r2
	//DEBUG_VALUE: __dpu_sync_fetch_and_min_1:val <- $r1
	//DEBUG_VALUE: __dpu_sync_fetch_and_min_1:load <- $r0
	sb r2, 0, r3
	// inline asm
.Ltmp256:
	release zero, __atomic_bit_llvm_atomic_functions, nz, .Ltmp256+1
	// inline asm
	jump r23
.Ltmp257:
.Lfunc_end40:
	.size	__dpu_sync_fetch_and_min_1, .Lfunc_end40-__dpu_sync_fetch_and_min_1
	.cfi_endproc
	.section	.stack_sizes,"o",@progbits,.text.__dpu_sync_fetch_and_min_1
	.long	.Lfunc_begin40
	.byte	0
	.section	.text.__dpu_sync_fetch_and_min_1,"ax",@progbits
                                        // -- End function
	.section	.text.__dpu_sync_fetch_and_min_2,"ax",@progbits
	.globl	__dpu_sync_fetch_and_min_2      // -- Begin function __dpu_sync_fetch_and_min_2
	.type	__dpu_sync_fetch_and_min_2,@function
__dpu_sync_fetch_and_min_2:             // @__dpu_sync_fetch_and_min_2
.Lfunc_begin41:
	.loc	2 88 0                          // uPIMulator_frontend/sdk/syslib/atomics.c:88:0
	.cfi_startproc
// %bb.0:
	//DEBUG_VALUE: __dpu_sync_fetch_and_min_2:ptr <- $r0
	//DEBUG_VALUE: __dpu_sync_fetch_and_min_2:val <- $r1
	.cfi_def_cfa_offset 0
	move r2, r0
.Ltmp258:
	//DEBUG_VALUE: __dpu_sync_fetch_and_min_2:ptr <- $r2
	.loc	2 88 1 prologue_end             // uPIMulator_frontend/sdk/syslib/atomics.c:88:1
	// inline asm
.Ltmp259:
	acquire zero, __atomic_bit_llvm_atomic_functions, nz, .Ltmp259
	// inline asm
	lhs r0, r2, 0
.Ltmp260:
	//DEBUG_VALUE: __dpu_sync_fetch_and_min_2:load <- $r0
	//DEBUG_VALUE: __dpu_sync_fetch_and_min_2:val <- $r1
	move r3, r0
	jgts r0, r1, .LBB41_2
.Ltmp261:
// %bb.1:
	//DEBUG_VALUE: __dpu_sync_fetch_and_min_2:ptr <- $r2
	//DEBUG_VALUE: __dpu_sync_fetch_and_min_2:val <- $r1
	//DEBUG_VALUE: __dpu_sync_fetch_and_min_2:load <- $r0
	move r3, r1
.Ltmp262:
.LBB41_2:
	//DEBUG_VALUE: __dpu_sync_fetch_and_min_2:ptr <- $r2
	//DEBUG_VALUE: __dpu_sync_fetch_and_min_2:val <- $r1
	//DEBUG_VALUE: __dpu_sync_fetch_and_min_2:load <- $r0
	sh r2, 0, r3
	// inline asm
.Ltmp263:
	release zero, __atomic_bit_llvm_atomic_functions, nz, .Ltmp263+1
	// inline asm
	jump r23
.Ltmp264:
.Lfunc_end41:
	.size	__dpu_sync_fetch_and_min_2, .Lfunc_end41-__dpu_sync_fetch_and_min_2
	.cfi_endproc
	.section	.stack_sizes,"o",@progbits,.text.__dpu_sync_fetch_and_min_2
	.long	.Lfunc_begin41
	.byte	0
	.section	.text.__dpu_sync_fetch_and_min_2,"ax",@progbits
                                        // -- End function
	.section	.text.__dpu_sync_fetch_and_min_4,"ax",@progbits
	.globl	__dpu_sync_fetch_and_min_4      // -- Begin function __dpu_sync_fetch_and_min_4
	.type	__dpu_sync_fetch_and_min_4,@function
__dpu_sync_fetch_and_min_4:             // @__dpu_sync_fetch_and_min_4
.Lfunc_begin42:
	.loc	2 88 0                          // uPIMulator_frontend/sdk/syslib/atomics.c:88:0
	.cfi_startproc
// %bb.0:
	//DEBUG_VALUE: __dpu_sync_fetch_and_min_4:ptr <- $r0
	//DEBUG_VALUE: __dpu_sync_fetch_and_min_4:val <- $r1
	.cfi_def_cfa_offset 0
	move r2, r0
.Ltmp265:
	//DEBUG_VALUE: __dpu_sync_fetch_and_min_4:ptr <- $r2
	.loc	2 88 1 prologue_end             // uPIMulator_frontend/sdk/syslib/atomics.c:88:1
	// inline asm
.Ltmp266:
	acquire zero, __atomic_bit_llvm_atomic_functions, nz, .Ltmp266
	// inline asm
	lw r0, r2, 0
.Ltmp267:
	//DEBUG_VALUE: __dpu_sync_fetch_and_min_4:load <- $r0
	//DEBUG_VALUE: __dpu_sync_fetch_and_min_4:val <- $r1
	move r3, r0
	jgts r0, r1, .LBB42_2
.Ltmp268:
// %bb.1:
	//DEBUG_VALUE: __dpu_sync_fetch_and_min_4:ptr <- $r2
	//DEBUG_VALUE: __dpu_sync_fetch_and_min_4:val <- $r1
	//DEBUG_VALUE: __dpu_sync_fetch_and_min_4:load <- $r0
	move r3, r1
.Ltmp269:
.LBB42_2:
	//DEBUG_VALUE: __dpu_sync_fetch_and_min_4:ptr <- $r2
	//DEBUG_VALUE: __dpu_sync_fetch_and_min_4:val <- $r1
	//DEBUG_VALUE: __dpu_sync_fetch_and_min_4:load <- $r0
	sw r2, 0, r3
	// inline asm
.Ltmp270:
	release zero, __atomic_bit_llvm_atomic_functions, nz, .Ltmp270+1
	// inline asm
	jump r23
.Ltmp271:
.Lfunc_end42:
	.size	__dpu_sync_fetch_and_min_4, .Lfunc_end42-__dpu_sync_fetch_and_min_4
	.cfi_endproc
	.section	.stack_sizes,"o",@progbits,.text.__dpu_sync_fetch_and_min_4
	.long	.Lfunc_begin42
	.byte	0
	.section	.text.__dpu_sync_fetch_and_min_4,"ax",@progbits
                                        // -- End function
	.section	.text.__dpu_sync_fetch_and_min_8,"ax",@progbits
	.globl	__dpu_sync_fetch_and_min_8      // -- Begin function __dpu_sync_fetch_and_min_8
	.type	__dpu_sync_fetch_and_min_8,@function
__dpu_sync_fetch_and_min_8:             // @__dpu_sync_fetch_and_min_8
.Lfunc_begin43:
	.loc	2 88 0                          // uPIMulator_frontend/sdk/syslib/atomics.c:88:0
	.cfi_startproc
// %bb.0:
	//DEBUG_VALUE: __dpu_sync_fetch_and_min_8:ptr <- $r0
	//DEBUG_VALUE: __dpu_sync_fetch_and_min_8:val <- $d2
	.cfi_def_cfa_offset 0
	move r4, r0
.Ltmp272:
	//DEBUG_VALUE: __dpu_sync_fetch_and_min_8:ptr <- $r4
	.loc	2 88 1 prologue_end             // uPIMulator_frontend/sdk/syslib/atomics.c:88:1
	// inline asm
.Ltmp273:
	acquire zero, __atomic_bit_llvm_atomic_functions, nz, .Ltmp273
	// inline asm
	ld d0, r4, 0
.Ltmp274:
	//DEBUG_VALUE: __dpu_sync_fetch_and_min_8:load <- $d0
	//DEBUG_VALUE: __dpu_sync_fetch_and_min_8:val <- $d2
	movd d6, d0
	sub zero, r1, r3
	subc zero, r0, r2, xgts, .LBB43_2
.Ltmp275:
// %bb.1:
	//DEBUG_VALUE: __dpu_sync_fetch_and_min_8:ptr <- $r4
	//DEBUG_VALUE: __dpu_sync_fetch_and_min_8:val <- $d2
	//DEBUG_VALUE: __dpu_sync_fetch_and_min_8:load <- $d0
	movd d6, d2
.Ltmp276:
.LBB43_2:
	//DEBUG_VALUE: __dpu_sync_fetch_and_min_8:ptr <- $r4
	//DEBUG_VALUE: __dpu_sync_fetch_and_min_8:val <- $d2
	//DEBUG_VALUE: __dpu_sync_fetch_and_min_8:load <- $d0
	sd r4, 0, d6
	// inline asm
.Ltmp277:
	release zero, __atomic_bit_llvm_atomic_functions, nz, .Ltmp277+1
	// inline asm
	jump r23
.Ltmp278:
.Lfunc_end43:
	.size	__dpu_sync_fetch_and_min_8, .Lfunc_end43-__dpu_sync_fetch_and_min_8
	.cfi_endproc
	.section	.stack_sizes,"o",@progbits,.text.__dpu_sync_fetch_and_min_8
	.long	.Lfunc_begin43
	.byte	0
	.section	.text.__dpu_sync_fetch_and_min_8,"ax",@progbits
                                        // -- End function
	.section	.text.__dpu_sync_fetch_and_umin_1,"ax",@progbits
	.globl	__dpu_sync_fetch_and_umin_1     // -- Begin function __dpu_sync_fetch_and_umin_1
	.type	__dpu_sync_fetch_and_umin_1,@function
__dpu_sync_fetch_and_umin_1:            // @__dpu_sync_fetch_and_umin_1
.Lfunc_begin44:
	.loc	2 92 0                          // uPIMulator_frontend/sdk/syslib/atomics.c:92:0
	.cfi_startproc
// %bb.0:
	//DEBUG_VALUE: __dpu_sync_fetch_and_umin_1:ptr <- $r0
	//DEBUG_VALUE: __dpu_sync_fetch_and_umin_1:ptr <- $r0
	//DEBUG_VALUE: __dpu_sync_fetch_and_umin_1:val <- $r1
	.cfi_def_cfa_offset 0
	.loc	2 92 1 prologue_end             // uPIMulator_frontend/sdk/syslib/atomics.c:92:1
	// inline asm
.Ltmp279:
	acquire zero, __atomic_bit_llvm_atomic_functions, nz, .Ltmp279
	// inline asm
	lbu r2, r0, 0
.Ltmp280:
	//DEBUG_VALUE: __dpu_sync_fetch_and_umin_1:load <- $r2
	//DEBUG_VALUE: __dpu_sync_fetch_and_umin_1:val <- $r1
	.loc	2 0 1 is_stmt 0                 // uPIMulator_frontend/sdk/syslib/atomics.c:0:1
	and r4, r1, 255
	.loc	2 92 1                          // uPIMulator_frontend/sdk/syslib/atomics.c:92:1
	move r3, r2
	jgtu r2, r4, .LBB44_2
.Ltmp281:
// %bb.1:
	//DEBUG_VALUE: __dpu_sync_fetch_and_umin_1:load <- $r2
	//DEBUG_VALUE: __dpu_sync_fetch_and_umin_1:val <- $r1
	//DEBUG_VALUE: __dpu_sync_fetch_and_umin_1:ptr <- $r0
	move r3, r1
.Ltmp282:
.LBB44_2:
	//DEBUG_VALUE: __dpu_sync_fetch_and_umin_1:load <- $r2
	//DEBUG_VALUE: __dpu_sync_fetch_and_umin_1:val <- $r1
	//DEBUG_VALUE: __dpu_sync_fetch_and_umin_1:ptr <- $r0
	sb r0, 0, r3
	// inline asm
.Ltmp283:
	release zero, __atomic_bit_llvm_atomic_functions, nz, .Ltmp283+1
	// inline asm
	extsb r0, r2
.Ltmp284:
	jump r23
.Ltmp285:
.Lfunc_end44:
	.size	__dpu_sync_fetch_and_umin_1, .Lfunc_end44-__dpu_sync_fetch_and_umin_1
	.cfi_endproc
	.section	.stack_sizes,"o",@progbits,.text.__dpu_sync_fetch_and_umin_1
	.long	.Lfunc_begin44
	.byte	0
	.section	.text.__dpu_sync_fetch_and_umin_1,"ax",@progbits
                                        // -- End function
	.section	.text.__dpu_sync_fetch_and_umin_2,"ax",@progbits
	.globl	__dpu_sync_fetch_and_umin_2     // -- Begin function __dpu_sync_fetch_and_umin_2
	.type	__dpu_sync_fetch_and_umin_2,@function
__dpu_sync_fetch_and_umin_2:            // @__dpu_sync_fetch_and_umin_2
.Lfunc_begin45:
	.loc	2 92 0 is_stmt 1                // uPIMulator_frontend/sdk/syslib/atomics.c:92:0
	.cfi_startproc
// %bb.0:
	//DEBUG_VALUE: __dpu_sync_fetch_and_umin_2:ptr <- $r0
	//DEBUG_VALUE: __dpu_sync_fetch_and_umin_2:ptr <- $r0
	//DEBUG_VALUE: __dpu_sync_fetch_and_umin_2:val <- $r1
	.cfi_def_cfa_offset 0
	.loc	2 92 1 prologue_end             // uPIMulator_frontend/sdk/syslib/atomics.c:92:1
	// inline asm
.Ltmp286:
	acquire zero, __atomic_bit_llvm_atomic_functions, nz, .Ltmp286
	// inline asm
	lhu r2, r0, 0
.Ltmp287:
	//DEBUG_VALUE: __dpu_sync_fetch_and_umin_2:load <- $r2
	//DEBUG_VALUE: __dpu_sync_fetch_and_umin_2:val <- $r1
	.loc	2 0 1 is_stmt 0                 // uPIMulator_frontend/sdk/syslib/atomics.c:0:1
	and r4, r1, 65535
	.loc	2 92 1                          // uPIMulator_frontend/sdk/syslib/atomics.c:92:1
	move r3, r2
	jgtu r2, r4, .LBB45_2
.Ltmp288:
// %bb.1:
	//DEBUG_VALUE: __dpu_sync_fetch_and_umin_2:load <- $r2
	//DEBUG_VALUE: __dpu_sync_fetch_and_umin_2:val <- $r1
	//DEBUG_VALUE: __dpu_sync_fetch_and_umin_2:ptr <- $r0
	move r3, r1
.Ltmp289:
.LBB45_2:
	//DEBUG_VALUE: __dpu_sync_fetch_and_umin_2:load <- $r2
	//DEBUG_VALUE: __dpu_sync_fetch_and_umin_2:val <- $r1
	//DEBUG_VALUE: __dpu_sync_fetch_and_umin_2:ptr <- $r0
	sh r0, 0, r3
	// inline asm
.Ltmp290:
	release zero, __atomic_bit_llvm_atomic_functions, nz, .Ltmp290+1
	// inline asm
	extsh r0, r2
.Ltmp291:
	jump r23
.Ltmp292:
.Lfunc_end45:
	.size	__dpu_sync_fetch_and_umin_2, .Lfunc_end45-__dpu_sync_fetch_and_umin_2
	.cfi_endproc
	.section	.stack_sizes,"o",@progbits,.text.__dpu_sync_fetch_and_umin_2
	.long	.Lfunc_begin45
	.byte	0
	.section	.text.__dpu_sync_fetch_and_umin_2,"ax",@progbits
                                        // -- End function
	.section	.text.__dpu_sync_fetch_and_umin_4,"ax",@progbits
	.globl	__dpu_sync_fetch_and_umin_4     // -- Begin function __dpu_sync_fetch_and_umin_4
	.type	__dpu_sync_fetch_and_umin_4,@function
__dpu_sync_fetch_and_umin_4:            // @__dpu_sync_fetch_and_umin_4
.Lfunc_begin46:
	.loc	2 92 0 is_stmt 1                // uPIMulator_frontend/sdk/syslib/atomics.c:92:0
	.cfi_startproc
// %bb.0:
	//DEBUG_VALUE: __dpu_sync_fetch_and_umin_4:ptr <- $r0
	//DEBUG_VALUE: __dpu_sync_fetch_and_umin_4:val <- $r1
	.cfi_def_cfa_offset 0
	move r2, r0
.Ltmp293:
	//DEBUG_VALUE: __dpu_sync_fetch_and_umin_4:ptr <- $r2
	.loc	2 92 1 prologue_end             // uPIMulator_frontend/sdk/syslib/atomics.c:92:1
	// inline asm
.Ltmp294:
	acquire zero, __atomic_bit_llvm_atomic_functions, nz, .Ltmp294
	// inline asm
	lw r0, r2, 0
.Ltmp295:
	//DEBUG_VALUE: __dpu_sync_fetch_and_umin_4:load <- $r0
	//DEBUG_VALUE: __dpu_sync_fetch_and_umin_4:val <- $r1
	move r3, r0
	jgtu r0, r1, .LBB46_2
.Ltmp296:
// %bb.1:
	//DEBUG_VALUE: __dpu_sync_fetch_and_umin_4:ptr <- $r2
	//DEBUG_VALUE: __dpu_sync_fetch_and_umin_4:val <- $r1
	//DEBUG_VALUE: __dpu_sync_fetch_and_umin_4:load <- $r0
	move r3, r1
.Ltmp297:
.LBB46_2:
	//DEBUG_VALUE: __dpu_sync_fetch_and_umin_4:ptr <- $r2
	//DEBUG_VALUE: __dpu_sync_fetch_and_umin_4:val <- $r1
	//DEBUG_VALUE: __dpu_sync_fetch_and_umin_4:load <- $r0
	sw r2, 0, r3
	// inline asm
.Ltmp298:
	release zero, __atomic_bit_llvm_atomic_functions, nz, .Ltmp298+1
	// inline asm
	jump r23
.Ltmp299:
.Lfunc_end46:
	.size	__dpu_sync_fetch_and_umin_4, .Lfunc_end46-__dpu_sync_fetch_and_umin_4
	.cfi_endproc
	.section	.stack_sizes,"o",@progbits,.text.__dpu_sync_fetch_and_umin_4
	.long	.Lfunc_begin46
	.byte	0
	.section	.text.__dpu_sync_fetch_and_umin_4,"ax",@progbits
                                        // -- End function
	.section	.text.__dpu_sync_fetch_and_umin_8,"ax",@progbits
	.globl	__dpu_sync_fetch_and_umin_8     // -- Begin function __dpu_sync_fetch_and_umin_8
	.type	__dpu_sync_fetch_and_umin_8,@function
__dpu_sync_fetch_and_umin_8:            // @__dpu_sync_fetch_and_umin_8
.Lfunc_begin47:
	.loc	2 92 0                          // uPIMulator_frontend/sdk/syslib/atomics.c:92:0
	.cfi_startproc
// %bb.0:
	//DEBUG_VALUE: __dpu_sync_fetch_and_umin_8:ptr <- $r0
	//DEBUG_VALUE: __dpu_sync_fetch_and_umin_8:val <- $d2
	.cfi_def_cfa_offset 0
	move r4, r0
.Ltmp300:
	//DEBUG_VALUE: __dpu_sync_fetch_and_umin_8:ptr <- $r4
	.loc	2 92 1 prologue_end             // uPIMulator_frontend/sdk/syslib/atomics.c:92:1
	// inline asm
.Ltmp301:
	acquire zero, __atomic_bit_llvm_atomic_functions, nz, .Ltmp301
	// inline asm
	ld d0, r4, 0
.Ltmp302:
	//DEBUG_VALUE: __dpu_sync_fetch_and_umin_8:load <- $d0
	//DEBUG_VALUE: __dpu_sync_fetch_and_umin_8:val <- $d2
	movd d6, d0
	sub zero, r1, r3
	subc zero, r0, r2, xgtu, .LBB47_2
.Ltmp303:
// %bb.1:
	//DEBUG_VALUE: __dpu_sync_fetch_and_umin_8:ptr <- $r4
	//DEBUG_VALUE: __dpu_sync_fetch_and_umin_8:val <- $d2
	//DEBUG_VALUE: __dpu_sync_fetch_and_umin_8:load <- $d0
	movd d6, d2
.Ltmp304:
.LBB47_2:
	//DEBUG_VALUE: __dpu_sync_fetch_and_umin_8:ptr <- $r4
	//DEBUG_VALUE: __dpu_sync_fetch_and_umin_8:val <- $d2
	//DEBUG_VALUE: __dpu_sync_fetch_and_umin_8:load <- $d0
	sd r4, 0, d6
	// inline asm
.Ltmp305:
	release zero, __atomic_bit_llvm_atomic_functions, nz, .Ltmp305+1
	// inline asm
	jump r23
.Ltmp306:
.Lfunc_end47:
	.size	__dpu_sync_fetch_and_umin_8, .Lfunc_end47-__dpu_sync_fetch_and_umin_8
	.cfi_endproc
	.section	.stack_sizes,"o",@progbits,.text.__dpu_sync_fetch_and_umin_8
	.long	.Lfunc_begin47
	.byte	0
	.section	.text.__dpu_sync_fetch_and_umin_8,"ax",@progbits
                                        // -- End function
	.type	__atomic_bit_llvm_atomic_functions,@object // @__atomic_bit_llvm_atomic_functions
	.section	.atomic,"aw",@progbits
	.globl	__atomic_bit_llvm_atomic_functions
__atomic_bit_llvm_atomic_functions:
	.byte	0                               // 0x0
	.size	__atomic_bit_llvm_atomic_functions, 1
