	.text
	.file	"buddy_realloc.c"
	.file	1 "/root" "uPIMulator_frontend/sdk/stdlib/stddef.h"
	.section	.text.buddy_realloc,"ax",@progbits
	.globl	buddy_realloc                   // -- Begin function buddy_realloc
	.type	buddy_realloc,@function
buddy_realloc:                          // @buddy_realloc
.Lfunc_begin0:
	.file	2 "/root" "uPIMulator_frontend/sdk/syslib/buddy_realloc.c"
	.loc	2 51 0                          // uPIMulator_frontend/sdk/syslib/buddy_realloc.c:51:0
	.cfi_sections .debug_frame
	.cfi_startproc
// %bb.0:
	//DEBUG_VALUE: buddy_realloc:ptr <- $r0
	//DEBUG_VALUE: buddy_realloc:size <- $r1
	.cfi_def_cfa_offset -40
	.cfi_offset 23, -8
	.cfi_offset 22, -4
	sd r22, 32, d22
	add r22, r22, 40
	.cfi_offset 15, -32
	.cfi_offset 14, -28
.Ltmp0:
	sd r22, -32, d14
	.cfi_offset 17, -40
	.cfi_offset 16, -36
	sd r22, -40, d16
	.loc	2 52 5 prologue_end             // uPIMulator_frontend/sdk/syslib/buddy_realloc.c:52:5
	// inline asm
.Ltmp1:
	acquire zero, __atomic_bit___buddy_lock, nz, .Ltmp1
	// inline asm
.Ltmp2:
	//DEBUG_VALUE: buddy_realloc:result <- undef
	.loc	2 0 5 is_stmt 0                 // uPIMulator_frontend/sdk/syslib/buddy_realloc.c:0:5
	move r15, r1
.Ltmp3:
	//DEBUG_VALUE: buddy_realloc:size <- $r15
	//DEBUG_VALUE: buddy_realloc:ptr <- $r14
	move r14, r0, z, .LBB0_1
.Ltmp4:
// %bb.2:
	//DEBUG_VALUE: buddy_realloc:size <- $r15
	.loc	2 60 9 is_stmt 1                // uPIMulator_frontend/sdk/syslib/buddy_realloc.c:60:9
	jeq r15, 0, .LBB0_3
.Ltmp5:
// %bb.4:
	//DEBUG_VALUE: buddy_realloc:size <- $r15
	.loc	2 0 9 is_stmt 0                 // uPIMulator_frontend/sdk/syslib/buddy_realloc.c:0:9
	add r1, r22, -24
.Ltmp6:
	//DEBUG_VALUE: buddy_sizeofblock:pointer <- $r14
	.loc	2 39 17 is_stmt 1               // uPIMulator_frontend/sdk/syslib/buddy_realloc.c:39:17
	move r0, r14
	call r23, buddy_search_for_pointer
.Ltmp7:
	//DEBUG_VALUE: buddy_sizeofblock:index <- $r0
	.loc	2 41 9                          // uPIMulator_frontend/sdk/syslib/buddy_realloc.c:41:9
	sub r1, 12, r0
	lsl r1, one, r1
	jeq r0, -1, .LBB0_5
.Ltmp8:
// %bb.6:
	//DEBUG_VALUE: buddy_realloc:size <- $r15
	//DEBUG_VALUE: buddy_sizeofblock:pointer <- $r14
	//DEBUG_VALUE: buddy_sizeofblock:index <- $r0
	move r2, r1
.Ltmp9:
	//DEBUG_VALUE: buddy_realloc:size_block <- $r2
	.loc	2 68 9                          // uPIMulator_frontend/sdk/syslib/buddy_realloc.c:68:9
	jeq r0, -1, .LBB0_8
.Ltmp10:
.LBB0_9:
	//DEBUG_VALUE: buddy_realloc:size <- $r15
	//DEBUG_VALUE: buddy_realloc:size_block <- $r2
	.loc	2 73 29                         // uPIMulator_frontend/sdk/syslib/buddy_realloc.c:73:29
	lsr r0, r2, 1
.Ltmp11:
	.loc	2 0 0 is_stmt 0                 // uPIMulator_frontend/sdk/syslib/buddy_realloc.c:0:0
	move r16, r15
	.loc	2 73 9                          // uPIMulator_frontend/sdk/syslib/buddy_realloc.c:73:9
	jgeu r0, r15, .LBB0_12
.Ltmp12:
// %bb.10:
	//DEBUG_VALUE: buddy_realloc:size <- $r15
	//DEBUG_VALUE: buddy_realloc:size_block <- $r2
	.loc	2 0 0                           // uPIMulator_frontend/sdk/syslib/buddy_realloc.c:0:0
	move r16, r1
.Ltmp13:
	.loc	2 75 16 is_stmt 1               // uPIMulator_frontend/sdk/syslib/buddy_realloc.c:75:16
	jgeu r2, r15, .LBB0_11
.Ltmp14:
.LBB0_12:
	//DEBUG_VALUE: buddy_realloc:size <- $r15
	//DEBUG_VALUE: buddy_realloc:size_block <- $r2
	//DEBUG_VALUE: buddy_realloc:size_block <- $r16
	.loc	2 80 5                          // uPIMulator_frontend/sdk/syslib/buddy_realloc.c:80:5
	move r0, r14
	call r23, safe_buddy_free
.Ltmp15:
	.loc	2 81 14                         // uPIMulator_frontend/sdk/syslib/buddy_realloc.c:81:14
	move r0, r15
	call r23, safe_buddy_alloc
.Ltmp16:
	move r15, r0
.Ltmp17:
	//DEBUG_VALUE: buddy_realloc:result <- $r15
	.loc	2 82 5                          // uPIMulator_frontend/sdk/syslib/buddy_realloc.c:82:5
	move r1, r14
	move r2, r16
	call r23, memcpy
.Ltmp18:
	.loc	2 84 5                          // uPIMulator_frontend/sdk/syslib/buddy_realloc.c:84:5
	// inline asm
.Ltmp19:
	release zero, __atomic_bit___buddy_lock, nz, .Ltmp19+1
	// inline asm
.Ltmp20:
	//DEBUG_VALUE: buddy_realloc:result <- $r14
	.loc	2 0 0 is_stmt 0                 // uPIMulator_frontend/sdk/syslib/buddy_realloc.c:0:0
	move r14, r15, true, .LBB0_13
.Ltmp21:
.LBB0_1:
	//DEBUG_VALUE: buddy_realloc:size <- $r15
	.loc	2 55 18 is_stmt 1               // uPIMulator_frontend/sdk/syslib/buddy_realloc.c:55:18
	move r0, r15
	call r23, safe_buddy_alloc
.Ltmp22:
	.loc	2 56 9                          // uPIMulator_frontend/sdk/syslib/buddy_realloc.c:56:9
	// inline asm
.Ltmp23:
	release zero, __atomic_bit___buddy_lock, nz, .Ltmp23+1
	// inline asm
.Ltmp24:
	//DEBUG_VALUE: buddy_realloc:result <- $r14
	.loc	2 55 18                         // uPIMulator_frontend/sdk/syslib/buddy_realloc.c:55:18
	move r14, r0, true, .LBB0_13
.Ltmp25:
.LBB0_3:
	//DEBUG_VALUE: buddy_realloc:size <- $r15
	.loc	2 61 9                          // uPIMulator_frontend/sdk/syslib/buddy_realloc.c:61:9
	move r0, r14
	call r23, safe_buddy_free
.Ltmp26:
	.loc	2 62 9                          // uPIMulator_frontend/sdk/syslib/buddy_realloc.c:62:9
	// inline asm
.Ltmp27:
	release zero, __atomic_bit___buddy_lock, nz, .Ltmp27+1
	// inline asm
	jump .LBB0_13
.Ltmp28:
.LBB0_5:
	//DEBUG_VALUE: buddy_realloc:size <- $r15
	.loc	2 0 9 is_stmt 0                 // uPIMulator_frontend/sdk/syslib/buddy_realloc.c:0:9
	move r2, -1
.Ltmp29:
	//DEBUG_VALUE: buddy_realloc:size_block <- $r2
	.loc	2 68 9 is_stmt 1                // uPIMulator_frontend/sdk/syslib/buddy_realloc.c:68:9
	jneq r0, -1, .LBB0_9
.Ltmp30:
.LBB0_8:
	//DEBUG_VALUE: buddy_realloc:size <- $r15
	//DEBUG_VALUE: buddy_realloc:size_block <- $r2
	.loc	2 69 9                          // uPIMulator_frontend/sdk/syslib/buddy_realloc.c:69:9
	// inline asm
.Ltmp31:
	release zero, __atomic_bit___buddy_lock, nz, .Ltmp31+1
	// inline asm
	move r14, 0, true, .LBB0_13
.Ltmp32:
.LBB0_11:
	//DEBUG_VALUE: buddy_realloc:size <- $r15
	//DEBUG_VALUE: buddy_realloc:size_block <- $r2
	.loc	2 76 9                          // uPIMulator_frontend/sdk/syslib/buddy_realloc.c:76:9
	// inline asm
.Ltmp33:
	release zero, __atomic_bit___buddy_lock, nz, .Ltmp33+1
	// inline asm
.Ltmp34:
.LBB0_13:
	.loc	2 86 1                          // uPIMulator_frontend/sdk/syslib/buddy_realloc.c:86:1
	move r0, r14
	ld d16, r22, -40
	ld d14, r22, -32
	ld d22, r22, -8
	jump r23
.Ltmp35:
.Lfunc_end0:
	.size	buddy_realloc, .Lfunc_end0-buddy_realloc
	.cfi_endproc
	.section	.stack_sizes,"o",@progbits,.text.buddy_realloc
	.long	.Lfunc_begin0
	.byte	40
	.section	.text.buddy_realloc,"ax",@progbits
                                        // -- End function