	.text
	.file	"comparesf2.c"
	.file	1 "/root" "uPIMulator_frontend/sdk/syslib/comparesf2.c"
	.section	.text.__lesf2,"ax",@progbits
	.globl	__lesf2                         // -- Begin function __lesf2
	.type	__lesf2,@function
__lesf2:                                // @__lesf2
.Lfunc_begin0:
	.loc	1 47 0                          // uPIMulator_frontend/sdk/syslib/comparesf2.c:47:0
	.cfi_sections .debug_frame
	.cfi_startproc
// %bb.0:
	//DEBUG_VALUE: __lesf2:a <- $r0
	//DEBUG_VALUE: __lesf2:a <- $r0
	//DEBUG_VALUE: __lesf2:b <- $r1
	//DEBUG_VALUE: __lesf2:b <- $r1
	//DEBUG_VALUE: toRep:x <- $r0
	//DEBUG_VALUE: toRep:x <- $r0
	//DEBUG_VALUE: toRep:x <- undef
	.cfi_def_cfa_offset 0
	//DEBUG_VALUE: toRep:rep <- $r0
	//DEBUG_VALUE: toRep:rep <- $r0
	//DEBUG_VALUE: __lesf2:aInt <- $r0
	//DEBUG_VALUE: toRep:rep <- undef
	//DEBUG_VALUE: __lesf2:bInt <- $r1
	.loc	1 51 29 prologue_end            // uPIMulator_frontend/sdk/syslib/comparesf2.c:51:29
	and r3, r0, 2147483647
.Ltmp0:
	//DEBUG_VALUE: __lesf2:bAbs <- undef
	//DEBUG_VALUE: __lesf2:aAbs <- $r3
	.loc	1 0 29 is_stmt 0                // uPIMulator_frontend/sdk/syslib/comparesf2.c:0:29
	move r5, 2139095040
	move r2, 1
.Ltmp1:
	.loc	1 55 23 is_stmt 1               // uPIMulator_frontend/sdk/syslib/comparesf2.c:55:23
	jgtu r3, r5, .LBB0_9
.Ltmp2:
// %bb.1:
	//DEBUG_VALUE: __lesf2:aAbs <- $r3
	//DEBUG_VALUE: __lesf2:bInt <- $r1
	//DEBUG_VALUE: __lesf2:b <- $r1
	//DEBUG_VALUE: __lesf2:aInt <- $r0
	//DEBUG_VALUE: __lesf2:a <- $r0
	.loc	1 0 0 is_stmt 0                 // uPIMulator_frontend/sdk/syslib/comparesf2.c:0:0
	and r4, r1, 2147483647
.Ltmp3:
	//DEBUG_VALUE: __lesf2:bAbs <- $r4
	.loc	1 55 23                         // uPIMulator_frontend/sdk/syslib/comparesf2.c:55:23
	jgtu r4, r5, .LBB0_9
.Ltmp4:
// %bb.2:
	//DEBUG_VALUE: __lesf2:bAbs <- $r4
	//DEBUG_VALUE: __lesf2:aAbs <- $r3
	//DEBUG_VALUE: __lesf2:bInt <- $r1
	//DEBUG_VALUE: __lesf2:b <- $r1
	//DEBUG_VALUE: __lesf2:aInt <- $r0
	//DEBUG_VALUE: __lesf2:a <- $r0
	.loc	1 59 15 is_stmt 1               // uPIMulator_frontend/sdk/syslib/comparesf2.c:59:15
	or r2, r4, r3, z, .LBB0_3
.Ltmp5:
// %bb.4:
	//DEBUG_VALUE: __lesf2:bAbs <- $r4
	//DEBUG_VALUE: __lesf2:aAbs <- $r3
	//DEBUG_VALUE: __lesf2:bInt <- $r1
	//DEBUG_VALUE: __lesf2:b <- $r1
	//DEBUG_VALUE: __lesf2:aInt <- $r0
	//DEBUG_VALUE: __lesf2:a <- $r0
	.loc	1 64 15                         // uPIMulator_frontend/sdk/syslib/comparesf2.c:64:15
	and r2, r1, r0, mi, .LBB0_7
.Ltmp6:
// %bb.5:
	//DEBUG_VALUE: __lesf2:bAbs <- $r4
	//DEBUG_VALUE: __lesf2:aAbs <- $r3
	//DEBUG_VALUE: __lesf2:bInt <- $r1
	//DEBUG_VALUE: __lesf2:b <- $r1
	//DEBUG_VALUE: __lesf2:aInt <- $r0
	//DEBUG_VALUE: __lesf2:a <- $r0
	.loc	1 0 15 is_stmt 0                // uPIMulator_frontend/sdk/syslib/comparesf2.c:0:15
	move r2, -1
.Ltmp7:
	.loc	1 65 13 is_stmt 1               // uPIMulator_frontend/sdk/syslib/comparesf2.c:65:13
	jlts r0, r1, .LBB0_9
.Ltmp8:
// %bb.6:
	//DEBUG_VALUE: __lesf2:bAbs <- $r4
	//DEBUG_VALUE: __lesf2:aAbs <- $r3
	//DEBUG_VALUE: __lesf2:bInt <- $r1
	//DEBUG_VALUE: __lesf2:b <- $r1
	//DEBUG_VALUE: __lesf2:aInt <- $r0
	//DEBUG_VALUE: __lesf2:a <- $r0
	.loc	1 67 23                         // uPIMulator_frontend/sdk/syslib/comparesf2.c:67:23
	sub r0, r0, r1, neq
.Ltmp9:
	.loc	1 67 18 is_stmt 0               // uPIMulator_frontend/sdk/syslib/comparesf2.c:67:18
	jump r23
.Ltmp10:
.LBB0_3:
	//DEBUG_VALUE: __lesf2:bAbs <- $r4
	//DEBUG_VALUE: __lesf2:aAbs <- $r3
	//DEBUG_VALUE: __lesf2:bInt <- $r1
	//DEBUG_VALUE: __lesf2:b <- $r1
	//DEBUG_VALUE: __lesf2:aInt <- $r0
	//DEBUG_VALUE: __lesf2:a <- $r0
	.loc	1 0 18                          // uPIMulator_frontend/sdk/syslib/comparesf2.c:0:18
	move r2, 0
	.loc	1 85 1 is_stmt 1                // uPIMulator_frontend/sdk/syslib/comparesf2.c:85:1
	move r0, r2
.Ltmp11:
	jump r23
.Ltmp12:
.LBB0_7:
	//DEBUG_VALUE: __lesf2:bAbs <- $r4
	//DEBUG_VALUE: __lesf2:aAbs <- $r3
	//DEBUG_VALUE: __lesf2:bInt <- $r1
	//DEBUG_VALUE: __lesf2:b <- $r1
	//DEBUG_VALUE: __lesf2:aInt <- $r0
	//DEBUG_VALUE: __lesf2:a <- $r0
	.loc	1 0 1 is_stmt 0                 // uPIMulator_frontend/sdk/syslib/comparesf2.c:0:1
	move r2, -1
.Ltmp13:
	.loc	1 78 13 is_stmt 1               // uPIMulator_frontend/sdk/syslib/comparesf2.c:78:13
	jgts r0, r1, .LBB0_9
.Ltmp14:
// %bb.8:
	//DEBUG_VALUE: __lesf2:bAbs <- $r4
	//DEBUG_VALUE: __lesf2:aAbs <- $r3
	//DEBUG_VALUE: __lesf2:bInt <- $r1
	//DEBUG_VALUE: __lesf2:b <- $r1
	//DEBUG_VALUE: __lesf2:aInt <- $r0
	//DEBUG_VALUE: __lesf2:a <- $r0
	.loc	1 80 23                         // uPIMulator_frontend/sdk/syslib/comparesf2.c:80:23
	sub r2, r0, r1, neq
.Ltmp15:
.LBB0_9:
	//DEBUG_VALUE: __lesf2:aAbs <- $r3
	//DEBUG_VALUE: __lesf2:bInt <- $r1
	//DEBUG_VALUE: __lesf2:b <- $r1
	//DEBUG_VALUE: __lesf2:aInt <- $r0
	//DEBUG_VALUE: __lesf2:a <- $r0
	.loc	1 85 1                          // uPIMulator_frontend/sdk/syslib/comparesf2.c:85:1
	move r0, r2
.Ltmp16:
	jump r23
.Ltmp17:
.Lfunc_end0:
	.size	__lesf2, .Lfunc_end0-__lesf2
	.cfi_endproc
	.section	.stack_sizes,"o",@progbits,.text.__lesf2
	.long	.Lfunc_begin0
	.byte	0
	.section	.text.__lesf2,"ax",@progbits
                                        // -- End function
	.section	.text.__gesf2,"ax",@progbits
	.globl	__gesf2                         // -- Begin function __gesf2
	.type	__gesf2,@function
__gesf2:                                // @__gesf2
.Lfunc_begin1:
	.loc	1 101 0                         // uPIMulator_frontend/sdk/syslib/comparesf2.c:101:0
	.cfi_startproc
// %bb.0:
	//DEBUG_VALUE: __gesf2:a <- $r0
	//DEBUG_VALUE: __gesf2:b <- $r1
	//DEBUG_VALUE: toRep:x <- $r0
	.cfi_def_cfa_offset 0
	//DEBUG_VALUE: toRep:rep <- $r0
	move r2, r0
.Ltmp18:
	//DEBUG_VALUE: __gesf2:bInt <- $r1
	//DEBUG_VALUE: toRep:rep <- undef
	//DEBUG_VALUE: toRep:x <- undef
	//DEBUG_VALUE: __gesf2:aInt <- $r2
	//DEBUG_VALUE: toRep:rep <- $r2
	//DEBUG_VALUE: toRep:x <- $r2
	//DEBUG_VALUE: __gesf2:b <- $r1
	//DEBUG_VALUE: __gesf2:a <- $r2
	.loc	1 105 29 prologue_end           // uPIMulator_frontend/sdk/syslib/comparesf2.c:105:29
	and r3, r2, 2147483647
.Ltmp19:
	//DEBUG_VALUE: __gesf2:bAbs <- undef
	//DEBUG_VALUE: __gesf2:aAbs <- $r3
	.loc	1 0 29 is_stmt 0                // uPIMulator_frontend/sdk/syslib/comparesf2.c:0:29
	move r4, 2139095040
	move r0, -1
.Ltmp20:
	.loc	1 108 23 is_stmt 1              // uPIMulator_frontend/sdk/syslib/comparesf2.c:108:23
	jgtu r3, r4, .LBB1_9
.Ltmp21:
// %bb.1:
	//DEBUG_VALUE: __gesf2:aAbs <- $r3
	//DEBUG_VALUE: __gesf2:a <- $r2
	//DEBUG_VALUE: __gesf2:aInt <- $r2
	//DEBUG_VALUE: __gesf2:bInt <- $r1
	//DEBUG_VALUE: __gesf2:b <- $r1
	.loc	1 0 0 is_stmt 0                 // uPIMulator_frontend/sdk/syslib/comparesf2.c:0:0
	and r5, r1, 2147483647
.Ltmp22:
	//DEBUG_VALUE: __gesf2:bAbs <- $r5
	.loc	1 108 23                        // uPIMulator_frontend/sdk/syslib/comparesf2.c:108:23
	jgtu r5, r4, .LBB1_9
.Ltmp23:
// %bb.2:
	//DEBUG_VALUE: __gesf2:bAbs <- $r5
	//DEBUG_VALUE: __gesf2:aAbs <- $r3
	//DEBUG_VALUE: __gesf2:a <- $r2
	//DEBUG_VALUE: __gesf2:aInt <- $r2
	//DEBUG_VALUE: __gesf2:bInt <- $r1
	//DEBUG_VALUE: __gesf2:b <- $r1
	.loc	1 110 15 is_stmt 1              // uPIMulator_frontend/sdk/syslib/comparesf2.c:110:15
	or r3, r5, r3, z, .LBB1_3
.Ltmp24:
// %bb.4:
	//DEBUG_VALUE: __gesf2:bAbs <- $r5
	//DEBUG_VALUE: __gesf2:a <- $r2
	//DEBUG_VALUE: __gesf2:aInt <- $r2
	//DEBUG_VALUE: __gesf2:bInt <- $r1
	//DEBUG_VALUE: __gesf2:b <- $r1
	.loc	1 112 15                        // uPIMulator_frontend/sdk/syslib/comparesf2.c:112:15
	and r3, r1, r2, mi, .LBB1_7
.Ltmp25:
// %bb.5:
	//DEBUG_VALUE: __gesf2:bAbs <- $r5
	//DEBUG_VALUE: __gesf2:a <- $r2
	//DEBUG_VALUE: __gesf2:aInt <- $r2
	//DEBUG_VALUE: __gesf2:bInt <- $r1
	//DEBUG_VALUE: __gesf2:b <- $r1
	.loc	1 113 13                        // uPIMulator_frontend/sdk/syslib/comparesf2.c:113:13
	jlts r2, r1, .LBB1_9
.Ltmp26:
// %bb.6:
	//DEBUG_VALUE: __gesf2:bAbs <- $r5
	//DEBUG_VALUE: __gesf2:a <- $r2
	//DEBUG_VALUE: __gesf2:aInt <- $r2
	//DEBUG_VALUE: __gesf2:bInt <- $r1
	//DEBUG_VALUE: __gesf2:b <- $r1
	.loc	1 115 23                        // uPIMulator_frontend/sdk/syslib/comparesf2.c:115:23
	sub r0, r2, r1, neq
.Ltmp27:
	.loc	1 115 18 is_stmt 0              // uPIMulator_frontend/sdk/syslib/comparesf2.c:115:18
	jump r23
.Ltmp28:
.LBB1_3:
	//DEBUG_VALUE: __gesf2:bAbs <- $r5
	//DEBUG_VALUE: __gesf2:a <- $r2
	//DEBUG_VALUE: __gesf2:aInt <- $r2
	//DEBUG_VALUE: __gesf2:bInt <- $r1
	//DEBUG_VALUE: __gesf2:b <- $r1
	.loc	1 0 18                          // uPIMulator_frontend/sdk/syslib/comparesf2.c:0:18
	move r0, 0
	.loc	1 127 1 is_stmt 1               // uPIMulator_frontend/sdk/syslib/comparesf2.c:127:1
	jump r23
.Ltmp29:
.LBB1_7:
	//DEBUG_VALUE: __gesf2:bAbs <- $r5
	//DEBUG_VALUE: __gesf2:a <- $r2
	//DEBUG_VALUE: __gesf2:aInt <- $r2
	//DEBUG_VALUE: __gesf2:bInt <- $r1
	//DEBUG_VALUE: __gesf2:b <- $r1
	.loc	1 120 13                        // uPIMulator_frontend/sdk/syslib/comparesf2.c:120:13
	jgts r2, r1, .LBB1_9
.Ltmp30:
// %bb.8:
	//DEBUG_VALUE: __gesf2:bAbs <- $r5
	//DEBUG_VALUE: __gesf2:a <- $r2
	//DEBUG_VALUE: __gesf2:aInt <- $r2
	//DEBUG_VALUE: __gesf2:bInt <- $r1
	//DEBUG_VALUE: __gesf2:b <- $r1
	.loc	1 122 23                        // uPIMulator_frontend/sdk/syslib/comparesf2.c:122:23
	sub r0, r2, r1, neq
.Ltmp31:
.LBB1_9:
	//DEBUG_VALUE: __gesf2:a <- $r2
	//DEBUG_VALUE: __gesf2:aInt <- $r2
	//DEBUG_VALUE: __gesf2:bInt <- $r1
	//DEBUG_VALUE: __gesf2:b <- $r1
	.loc	1 127 1                         // uPIMulator_frontend/sdk/syslib/comparesf2.c:127:1
	jump r23
.Ltmp32:
.Lfunc_end1:
	.size	__gesf2, .Lfunc_end1-__gesf2
	.cfi_endproc
	.section	.stack_sizes,"o",@progbits,.text.__gesf2
	.long	.Lfunc_begin1
	.byte	0
	.section	.text.__gesf2,"ax",@progbits
                                        // -- End function
	.section	.text.__unordsf2,"ax",@progbits
	.globl	__unordsf2                      // -- Begin function __unordsf2
	.type	__unordsf2,@function
__unordsf2:                             // @__unordsf2
.Lfunc_begin2:
	.loc	1 131 0                         // uPIMulator_frontend/sdk/syslib/comparesf2.c:131:0
	.cfi_startproc
// %bb.0:
	//DEBUG_VALUE: __unordsf2:a <- $r0
	//DEBUG_VALUE: __unordsf2:a <- $r0
	//DEBUG_VALUE: __unordsf2:b <- $r1
	//DEBUG_VALUE: __unordsf2:b <- $r1
	//DEBUG_VALUE: toRep:x <- $r0
	//DEBUG_VALUE: toRep:x <- $r0
	.cfi_def_cfa_offset 0
	//DEBUG_VALUE: toRep:rep <- $r0
	//DEBUG_VALUE: toRep:rep <- $r0
	.loc	1 132 33 prologue_end           // uPIMulator_frontend/sdk/syslib/comparesf2.c:132:33
	and r0, r0, 2147483647
.Ltmp33:
	//DEBUG_VALUE: toRep:rep <- undef
	//DEBUG_VALUE: toRep:x <- undef
	//DEBUG_VALUE: __unordsf2:aAbs <- $r0
	.loc	1 133 33                        // uPIMulator_frontend/sdk/syslib/comparesf2.c:133:33
	and r1, r1, 2147483647
.Ltmp34:
	//DEBUG_VALUE: __unordsf2:bAbs <- $r1
	.loc	1 0 33 is_stmt 0                // uPIMulator_frontend/sdk/syslib/comparesf2.c:0:33
	move r2, 2139095040
	.loc	1 134 17 is_stmt 1              // uPIMulator_frontend/sdk/syslib/comparesf2.c:134:17
	sub r0, r0, r2, gtu
.Ltmp35:
	.loc	1 134 26 is_stmt 0              // uPIMulator_frontend/sdk/syslib/comparesf2.c:134:26
	sub r1, r1, r2, gtu
.Ltmp36:
	or r0, r0, r1
	.loc	1 134 5                         // uPIMulator_frontend/sdk/syslib/comparesf2.c:134:5
	jump r23
.Ltmp37:
.Lfunc_end2:
	.size	__unordsf2, .Lfunc_end2-__unordsf2
	.cfi_endproc
	.section	.stack_sizes,"o",@progbits,.text.__unordsf2
	.long	.Lfunc_begin2
	.byte	0
	.section	.text.__unordsf2,"ax",@progbits
                                        // -- End function
	.section	.text.__eqsf2,"ax",@progbits
	.globl	__eqsf2                         // -- Begin function __eqsf2
	.type	__eqsf2,@function
__eqsf2:                                // @__eqsf2
.Lfunc_begin3:
	.loc	1 141 0 is_stmt 1               // uPIMulator_frontend/sdk/syslib/comparesf2.c:141:0
	.cfi_startproc
// %bb.0:
	//DEBUG_VALUE: __eqsf2:a <- $r0
	//DEBUG_VALUE: __eqsf2:a <- $r0
	//DEBUG_VALUE: __eqsf2:b <- $r1
	//DEBUG_VALUE: __eqsf2:b <- $r1
	//DEBUG_VALUE: __lesf2:a <- $r0
	//DEBUG_VALUE: __lesf2:a <- $r0
	//DEBUG_VALUE: __lesf2:b <- $r1
	//DEBUG_VALUE: __lesf2:b <- $r1
	//DEBUG_VALUE: toRep:x <- $r0
	//DEBUG_VALUE: toRep:x <- $r0
	//DEBUG_VALUE: toRep:x <- undef
	.cfi_def_cfa_offset 0
	//DEBUG_VALUE: toRep:rep <- $r0
	//DEBUG_VALUE: toRep:rep <- $r0
	//DEBUG_VALUE: __lesf2:aInt <- $r0
	//DEBUG_VALUE: toRep:rep <- undef
	//DEBUG_VALUE: __lesf2:bInt <- $r1
	.loc	1 51 29 prologue_end            // uPIMulator_frontend/sdk/syslib/comparesf2.c:51:29
	and r3, r0, 2147483647
.Ltmp38:
	//DEBUG_VALUE: __lesf2:bAbs <- undef
	//DEBUG_VALUE: __lesf2:aAbs <- $r3
	.loc	1 0 29 is_stmt 0                // uPIMulator_frontend/sdk/syslib/comparesf2.c:0:29
	move r5, 2139095040
	move r2, 1
.Ltmp39:
	.loc	1 55 23 is_stmt 1               // uPIMulator_frontend/sdk/syslib/comparesf2.c:55:23
	jgtu r3, r5, .LBB3_8
.Ltmp40:
// %bb.1:
	//DEBUG_VALUE: __lesf2:aAbs <- $r3
	//DEBUG_VALUE: __lesf2:bInt <- $r1
	//DEBUG_VALUE: __lesf2:b <- $r1
	//DEBUG_VALUE: __eqsf2:b <- $r1
	//DEBUG_VALUE: __lesf2:aInt <- $r0
	//DEBUG_VALUE: __lesf2:a <- $r0
	//DEBUG_VALUE: __eqsf2:a <- $r0
	.loc	1 0 0 is_stmt 0                 // uPIMulator_frontend/sdk/syslib/comparesf2.c:0:0
	and r4, r1, 2147483647
.Ltmp41:
	//DEBUG_VALUE: __lesf2:bAbs <- $r4
	.loc	1 55 23                         // uPIMulator_frontend/sdk/syslib/comparesf2.c:55:23
	jgtu r4, r5, .LBB3_8
.Ltmp42:
// %bb.2:
	//DEBUG_VALUE: __lesf2:bAbs <- $r4
	//DEBUG_VALUE: __lesf2:aAbs <- $r3
	//DEBUG_VALUE: __lesf2:bInt <- $r1
	//DEBUG_VALUE: __lesf2:b <- $r1
	//DEBUG_VALUE: __eqsf2:b <- $r1
	//DEBUG_VALUE: __lesf2:aInt <- $r0
	//DEBUG_VALUE: __lesf2:a <- $r0
	//DEBUG_VALUE: __eqsf2:a <- $r0
	.loc	1 59 15 is_stmt 1               // uPIMulator_frontend/sdk/syslib/comparesf2.c:59:15
	or r2, r4, r3, z, .LBB3_3
.Ltmp43:
// %bb.4:
	//DEBUG_VALUE: __lesf2:bAbs <- $r4
	//DEBUG_VALUE: __lesf2:aAbs <- $r3
	//DEBUG_VALUE: __lesf2:bInt <- $r1
	//DEBUG_VALUE: __lesf2:b <- $r1
	//DEBUG_VALUE: __eqsf2:b <- $r1
	//DEBUG_VALUE: __lesf2:aInt <- $r0
	//DEBUG_VALUE: __lesf2:a <- $r0
	//DEBUG_VALUE: __eqsf2:a <- $r0
	.loc	1 64 15                         // uPIMulator_frontend/sdk/syslib/comparesf2.c:64:15
	and r2, r1, r0, mi, .LBB3_6
.Ltmp44:
// %bb.5:
	//DEBUG_VALUE: __lesf2:bAbs <- $r4
	//DEBUG_VALUE: __lesf2:aAbs <- $r3
	//DEBUG_VALUE: __lesf2:bInt <- $r1
	//DEBUG_VALUE: __lesf2:b <- $r1
	//DEBUG_VALUE: __eqsf2:b <- $r1
	//DEBUG_VALUE: __lesf2:aInt <- $r0
	//DEBUG_VALUE: __lesf2:a <- $r0
	//DEBUG_VALUE: __eqsf2:a <- $r0
	.loc	1 0 15 is_stmt 0                // uPIMulator_frontend/sdk/syslib/comparesf2.c:0:15
	move r2, -1
.Ltmp45:
	.loc	1 65 13 is_stmt 1               // uPIMulator_frontend/sdk/syslib/comparesf2.c:65:13
	jlts r0, r1, .LBB3_8
.Ltmp46:
.LBB3_7:
	//DEBUG_VALUE: __lesf2:bAbs <- $r4
	//DEBUG_VALUE: __lesf2:aAbs <- $r3
	//DEBUG_VALUE: __lesf2:bInt <- $r1
	//DEBUG_VALUE: __lesf2:b <- $r1
	//DEBUG_VALUE: __eqsf2:b <- $r1
	//DEBUG_VALUE: __lesf2:aInt <- $r0
	//DEBUG_VALUE: __lesf2:a <- $r0
	//DEBUG_VALUE: __eqsf2:a <- $r0
	.loc	1 0 0 is_stmt 0                 // uPIMulator_frontend/sdk/syslib/comparesf2.c:0:0
	sub r2, r0, r1, neq
.Ltmp47:
.LBB3_8:
	//DEBUG_VALUE: __eqsf2:b <- $r1
	//DEBUG_VALUE: __eqsf2:a <- $r0
	.loc	1 142 5 is_stmt 1               // uPIMulator_frontend/sdk/syslib/comparesf2.c:142:5
	move r0, r2
.Ltmp48:
	jump r23
.Ltmp49:
.LBB3_3:
	//DEBUG_VALUE: __eqsf2:b <- $r1
	//DEBUG_VALUE: __eqsf2:a <- $r0
	.loc	1 0 5 is_stmt 0                 // uPIMulator_frontend/sdk/syslib/comparesf2.c:0:5
	move r2, 0
	.loc	1 142 5                         // uPIMulator_frontend/sdk/syslib/comparesf2.c:142:5
	move r0, r2
.Ltmp50:
	jump r23
.Ltmp51:
.LBB3_6:
	//DEBUG_VALUE: __lesf2:bAbs <- $r4
	//DEBUG_VALUE: __lesf2:aAbs <- $r3
	//DEBUG_VALUE: __lesf2:bInt <- $r1
	//DEBUG_VALUE: __lesf2:b <- $r1
	//DEBUG_VALUE: __eqsf2:b <- $r1
	//DEBUG_VALUE: __lesf2:aInt <- $r0
	//DEBUG_VALUE: __lesf2:a <- $r0
	//DEBUG_VALUE: __eqsf2:a <- $r0
	.loc	1 0 5                           // uPIMulator_frontend/sdk/syslib/comparesf2.c:0:5
	move r2, -1
.Ltmp52:
	.loc	1 78 13 is_stmt 1               // uPIMulator_frontend/sdk/syslib/comparesf2.c:78:13
	jles r0, r1, .LBB3_7
	jump .LBB3_8
.Ltmp53:
.Lfunc_end3:
	.size	__eqsf2, .Lfunc_end3-__eqsf2
	.cfi_endproc
	.file	2 "/root" "uPIMulator_frontend/sdk/syslib/fp_lib.h"
	.file	3 "/root" "uPIMulator_frontend/sdk/stdlib/stdint.h"
	.section	.stack_sizes,"o",@progbits,.text.__eqsf2
	.long	.Lfunc_begin3
	.byte	0
	.section	.text.__eqsf2,"ax",@progbits
                                        // -- End function
	.section	.text.__ltsf2,"ax",@progbits
	.globl	__ltsf2                         // -- Begin function __ltsf2
	.type	__ltsf2,@function
__ltsf2:                                // @__ltsf2
.Lfunc_begin4:
	.loc	1 147 0                         // uPIMulator_frontend/sdk/syslib/comparesf2.c:147:0
	.cfi_startproc
// %bb.0:
	//DEBUG_VALUE: __ltsf2:a <- $r0
	//DEBUG_VALUE: __ltsf2:a <- $r0
	//DEBUG_VALUE: __ltsf2:b <- $r1
	//DEBUG_VALUE: __ltsf2:b <- $r1
	//DEBUG_VALUE: __lesf2:a <- $r0
	//DEBUG_VALUE: __lesf2:a <- $r0
	//DEBUG_VALUE: __lesf2:b <- $r1
	//DEBUG_VALUE: __lesf2:b <- $r1
	//DEBUG_VALUE: toRep:x <- $r0
	//DEBUG_VALUE: toRep:x <- $r0
	//DEBUG_VALUE: toRep:x <- undef
	.cfi_def_cfa_offset 0
	//DEBUG_VALUE: toRep:rep <- $r0
	//DEBUG_VALUE: toRep:rep <- $r0
	//DEBUG_VALUE: __lesf2:aInt <- $r0
	//DEBUG_VALUE: toRep:rep <- undef
	//DEBUG_VALUE: __lesf2:bInt <- $r1
	.loc	1 51 29 prologue_end            // uPIMulator_frontend/sdk/syslib/comparesf2.c:51:29
	and r3, r0, 2147483647
.Ltmp54:
	//DEBUG_VALUE: __lesf2:bAbs <- undef
	//DEBUG_VALUE: __lesf2:aAbs <- $r3
	.loc	1 0 29 is_stmt 0                // uPIMulator_frontend/sdk/syslib/comparesf2.c:0:29
	move r5, 2139095040
	move r2, 1
.Ltmp55:
	.loc	1 55 23 is_stmt 1               // uPIMulator_frontend/sdk/syslib/comparesf2.c:55:23
	jgtu r3, r5, .LBB4_8
.Ltmp56:
// %bb.1:
	//DEBUG_VALUE: __lesf2:aAbs <- $r3
	//DEBUG_VALUE: __lesf2:bInt <- $r1
	//DEBUG_VALUE: __lesf2:b <- $r1
	//DEBUG_VALUE: __ltsf2:b <- $r1
	//DEBUG_VALUE: __lesf2:aInt <- $r0
	//DEBUG_VALUE: __lesf2:a <- $r0
	//DEBUG_VALUE: __ltsf2:a <- $r0
	.loc	1 0 0 is_stmt 0                 // uPIMulator_frontend/sdk/syslib/comparesf2.c:0:0
	and r4, r1, 2147483647
.Ltmp57:
	//DEBUG_VALUE: __lesf2:bAbs <- $r4
	.loc	1 55 23                         // uPIMulator_frontend/sdk/syslib/comparesf2.c:55:23
	jgtu r4, r5, .LBB4_8
.Ltmp58:
// %bb.2:
	//DEBUG_VALUE: __lesf2:bAbs <- $r4
	//DEBUG_VALUE: __lesf2:aAbs <- $r3
	//DEBUG_VALUE: __lesf2:bInt <- $r1
	//DEBUG_VALUE: __lesf2:b <- $r1
	//DEBUG_VALUE: __ltsf2:b <- $r1
	//DEBUG_VALUE: __lesf2:aInt <- $r0
	//DEBUG_VALUE: __lesf2:a <- $r0
	//DEBUG_VALUE: __ltsf2:a <- $r0
	.loc	1 59 15 is_stmt 1               // uPIMulator_frontend/sdk/syslib/comparesf2.c:59:15
	or r2, r4, r3, z, .LBB4_3
.Ltmp59:
// %bb.4:
	//DEBUG_VALUE: __lesf2:bAbs <- $r4
	//DEBUG_VALUE: __lesf2:aAbs <- $r3
	//DEBUG_VALUE: __lesf2:bInt <- $r1
	//DEBUG_VALUE: __lesf2:b <- $r1
	//DEBUG_VALUE: __ltsf2:b <- $r1
	//DEBUG_VALUE: __lesf2:aInt <- $r0
	//DEBUG_VALUE: __lesf2:a <- $r0
	//DEBUG_VALUE: __ltsf2:a <- $r0
	.loc	1 64 15                         // uPIMulator_frontend/sdk/syslib/comparesf2.c:64:15
	and r2, r1, r0, mi, .LBB4_6
.Ltmp60:
// %bb.5:
	//DEBUG_VALUE: __lesf2:bAbs <- $r4
	//DEBUG_VALUE: __lesf2:aAbs <- $r3
	//DEBUG_VALUE: __lesf2:bInt <- $r1
	//DEBUG_VALUE: __lesf2:b <- $r1
	//DEBUG_VALUE: __ltsf2:b <- $r1
	//DEBUG_VALUE: __lesf2:aInt <- $r0
	//DEBUG_VALUE: __lesf2:a <- $r0
	//DEBUG_VALUE: __ltsf2:a <- $r0
	.loc	1 0 15 is_stmt 0                // uPIMulator_frontend/sdk/syslib/comparesf2.c:0:15
	move r2, -1
.Ltmp61:
	.loc	1 65 13 is_stmt 1               // uPIMulator_frontend/sdk/syslib/comparesf2.c:65:13
	jlts r0, r1, .LBB4_8
.Ltmp62:
.LBB4_7:
	//DEBUG_VALUE: __lesf2:bAbs <- $r4
	//DEBUG_VALUE: __lesf2:aAbs <- $r3
	//DEBUG_VALUE: __lesf2:bInt <- $r1
	//DEBUG_VALUE: __lesf2:b <- $r1
	//DEBUG_VALUE: __ltsf2:b <- $r1
	//DEBUG_VALUE: __lesf2:aInt <- $r0
	//DEBUG_VALUE: __lesf2:a <- $r0
	//DEBUG_VALUE: __ltsf2:a <- $r0
	.loc	1 0 0 is_stmt 0                 // uPIMulator_frontend/sdk/syslib/comparesf2.c:0:0
	sub r2, r0, r1, neq
.Ltmp63:
.LBB4_8:
	//DEBUG_VALUE: __ltsf2:b <- $r1
	//DEBUG_VALUE: __ltsf2:a <- $r0
	.loc	1 148 5 is_stmt 1               // uPIMulator_frontend/sdk/syslib/comparesf2.c:148:5
	move r0, r2
.Ltmp64:
	jump r23
.Ltmp65:
.LBB4_3:
	//DEBUG_VALUE: __ltsf2:b <- $r1
	//DEBUG_VALUE: __ltsf2:a <- $r0
	.loc	1 0 5 is_stmt 0                 // uPIMulator_frontend/sdk/syslib/comparesf2.c:0:5
	move r2, 0
	.loc	1 148 5                         // uPIMulator_frontend/sdk/syslib/comparesf2.c:148:5
	move r0, r2
.Ltmp66:
	jump r23
.Ltmp67:
.LBB4_6:
	//DEBUG_VALUE: __lesf2:bAbs <- $r4
	//DEBUG_VALUE: __lesf2:aAbs <- $r3
	//DEBUG_VALUE: __lesf2:bInt <- $r1
	//DEBUG_VALUE: __lesf2:b <- $r1
	//DEBUG_VALUE: __ltsf2:b <- $r1
	//DEBUG_VALUE: __lesf2:aInt <- $r0
	//DEBUG_VALUE: __lesf2:a <- $r0
	//DEBUG_VALUE: __ltsf2:a <- $r0
	.loc	1 0 5                           // uPIMulator_frontend/sdk/syslib/comparesf2.c:0:5
	move r2, -1
.Ltmp68:
	.loc	1 78 13 is_stmt 1               // uPIMulator_frontend/sdk/syslib/comparesf2.c:78:13
	jles r0, r1, .LBB4_7
	jump .LBB4_8
.Ltmp69:
.Lfunc_end4:
	.size	__ltsf2, .Lfunc_end4-__ltsf2
	.cfi_endproc
	.section	.stack_sizes,"o",@progbits,.text.__ltsf2
	.long	.Lfunc_begin4
	.byte	0
	.section	.text.__ltsf2,"ax",@progbits
                                        // -- End function
	.section	.text.__nesf2,"ax",@progbits
	.globl	__nesf2                         // -- Begin function __nesf2
	.type	__nesf2,@function
__nesf2:                                // @__nesf2
.Lfunc_begin5:
	.loc	1 153 0                         // uPIMulator_frontend/sdk/syslib/comparesf2.c:153:0
	.cfi_startproc
// %bb.0:
	//DEBUG_VALUE: __nesf2:a <- $r0
	//DEBUG_VALUE: __nesf2:a <- $r0
	//DEBUG_VALUE: __nesf2:b <- $r1
	//DEBUG_VALUE: __nesf2:b <- $r1
	//DEBUG_VALUE: __lesf2:a <- $r0
	//DEBUG_VALUE: __lesf2:a <- $r0
	//DEBUG_VALUE: __lesf2:b <- $r1
	//DEBUG_VALUE: __lesf2:b <- $r1
	//DEBUG_VALUE: toRep:x <- $r0
	//DEBUG_VALUE: toRep:x <- $r0
	//DEBUG_VALUE: toRep:x <- undef
	.cfi_def_cfa_offset 0
	//DEBUG_VALUE: toRep:rep <- $r0
	//DEBUG_VALUE: toRep:rep <- $r0
	//DEBUG_VALUE: __lesf2:aInt <- $r0
	//DEBUG_VALUE: toRep:rep <- undef
	//DEBUG_VALUE: __lesf2:bInt <- $r1
	.loc	1 51 29 prologue_end            // uPIMulator_frontend/sdk/syslib/comparesf2.c:51:29
	and r3, r0, 2147483647
.Ltmp70:
	//DEBUG_VALUE: __lesf2:bAbs <- undef
	//DEBUG_VALUE: __lesf2:aAbs <- $r3
	.loc	1 0 29 is_stmt 0                // uPIMulator_frontend/sdk/syslib/comparesf2.c:0:29
	move r5, 2139095040
	move r2, 1
.Ltmp71:
	.loc	1 55 23 is_stmt 1               // uPIMulator_frontend/sdk/syslib/comparesf2.c:55:23
	jgtu r3, r5, .LBB5_8
.Ltmp72:
// %bb.1:
	//DEBUG_VALUE: __lesf2:aAbs <- $r3
	//DEBUG_VALUE: __lesf2:bInt <- $r1
	//DEBUG_VALUE: __lesf2:b <- $r1
	//DEBUG_VALUE: __nesf2:b <- $r1
	//DEBUG_VALUE: __lesf2:aInt <- $r0
	//DEBUG_VALUE: __lesf2:a <- $r0
	//DEBUG_VALUE: __nesf2:a <- $r0
	.loc	1 0 0 is_stmt 0                 // uPIMulator_frontend/sdk/syslib/comparesf2.c:0:0
	and r4, r1, 2147483647
.Ltmp73:
	//DEBUG_VALUE: __lesf2:bAbs <- $r4
	.loc	1 55 23                         // uPIMulator_frontend/sdk/syslib/comparesf2.c:55:23
	jgtu r4, r5, .LBB5_8
.Ltmp74:
// %bb.2:
	//DEBUG_VALUE: __lesf2:bAbs <- $r4
	//DEBUG_VALUE: __lesf2:aAbs <- $r3
	//DEBUG_VALUE: __lesf2:bInt <- $r1
	//DEBUG_VALUE: __lesf2:b <- $r1
	//DEBUG_VALUE: __nesf2:b <- $r1
	//DEBUG_VALUE: __lesf2:aInt <- $r0
	//DEBUG_VALUE: __lesf2:a <- $r0
	//DEBUG_VALUE: __nesf2:a <- $r0
	.loc	1 59 15 is_stmt 1               // uPIMulator_frontend/sdk/syslib/comparesf2.c:59:15
	or r2, r4, r3, z, .LBB5_3
.Ltmp75:
// %bb.4:
	//DEBUG_VALUE: __lesf2:bAbs <- $r4
	//DEBUG_VALUE: __lesf2:aAbs <- $r3
	//DEBUG_VALUE: __lesf2:bInt <- $r1
	//DEBUG_VALUE: __lesf2:b <- $r1
	//DEBUG_VALUE: __nesf2:b <- $r1
	//DEBUG_VALUE: __lesf2:aInt <- $r0
	//DEBUG_VALUE: __lesf2:a <- $r0
	//DEBUG_VALUE: __nesf2:a <- $r0
	.loc	1 64 15                         // uPIMulator_frontend/sdk/syslib/comparesf2.c:64:15
	and r2, r1, r0, mi, .LBB5_6
.Ltmp76:
// %bb.5:
	//DEBUG_VALUE: __lesf2:bAbs <- $r4
	//DEBUG_VALUE: __lesf2:aAbs <- $r3
	//DEBUG_VALUE: __lesf2:bInt <- $r1
	//DEBUG_VALUE: __lesf2:b <- $r1
	//DEBUG_VALUE: __nesf2:b <- $r1
	//DEBUG_VALUE: __lesf2:aInt <- $r0
	//DEBUG_VALUE: __lesf2:a <- $r0
	//DEBUG_VALUE: __nesf2:a <- $r0
	.loc	1 0 15 is_stmt 0                // uPIMulator_frontend/sdk/syslib/comparesf2.c:0:15
	move r2, -1
.Ltmp77:
	.loc	1 65 13 is_stmt 1               // uPIMulator_frontend/sdk/syslib/comparesf2.c:65:13
	jlts r0, r1, .LBB5_8
.Ltmp78:
.LBB5_7:
	//DEBUG_VALUE: __lesf2:bAbs <- $r4
	//DEBUG_VALUE: __lesf2:aAbs <- $r3
	//DEBUG_VALUE: __lesf2:bInt <- $r1
	//DEBUG_VALUE: __lesf2:b <- $r1
	//DEBUG_VALUE: __nesf2:b <- $r1
	//DEBUG_VALUE: __lesf2:aInt <- $r0
	//DEBUG_VALUE: __lesf2:a <- $r0
	//DEBUG_VALUE: __nesf2:a <- $r0
	.loc	1 0 0 is_stmt 0                 // uPIMulator_frontend/sdk/syslib/comparesf2.c:0:0
	sub r2, r0, r1, neq
.Ltmp79:
.LBB5_8:
	//DEBUG_VALUE: __nesf2:b <- $r1
	//DEBUG_VALUE: __nesf2:a <- $r0
	.loc	1 154 5 is_stmt 1               // uPIMulator_frontend/sdk/syslib/comparesf2.c:154:5
	move r0, r2
.Ltmp80:
	jump r23
.Ltmp81:
.LBB5_3:
	//DEBUG_VALUE: __nesf2:b <- $r1
	//DEBUG_VALUE: __nesf2:a <- $r0
	.loc	1 0 5 is_stmt 0                 // uPIMulator_frontend/sdk/syslib/comparesf2.c:0:5
	move r2, 0
	.loc	1 154 5                         // uPIMulator_frontend/sdk/syslib/comparesf2.c:154:5
	move r0, r2
.Ltmp82:
	jump r23
.Ltmp83:
.LBB5_6:
	//DEBUG_VALUE: __lesf2:bAbs <- $r4
	//DEBUG_VALUE: __lesf2:aAbs <- $r3
	//DEBUG_VALUE: __lesf2:bInt <- $r1
	//DEBUG_VALUE: __lesf2:b <- $r1
	//DEBUG_VALUE: __nesf2:b <- $r1
	//DEBUG_VALUE: __lesf2:aInt <- $r0
	//DEBUG_VALUE: __lesf2:a <- $r0
	//DEBUG_VALUE: __nesf2:a <- $r0
	.loc	1 0 5                           // uPIMulator_frontend/sdk/syslib/comparesf2.c:0:5
	move r2, -1
.Ltmp84:
	.loc	1 78 13 is_stmt 1               // uPIMulator_frontend/sdk/syslib/comparesf2.c:78:13
	jles r0, r1, .LBB5_7
	jump .LBB5_8
.Ltmp85:
.Lfunc_end5:
	.size	__nesf2, .Lfunc_end5-__nesf2
	.cfi_endproc
	.section	.stack_sizes,"o",@progbits,.text.__nesf2
	.long	.Lfunc_begin5
	.byte	0
	.section	.text.__nesf2,"ax",@progbits
                                        // -- End function
	.section	.text.__gtsf2,"ax",@progbits
	.globl	__gtsf2                         // -- Begin function __gtsf2
	.type	__gtsf2,@function
__gtsf2:                                // @__gtsf2
.Lfunc_begin6:
	.loc	1 159 0                         // uPIMulator_frontend/sdk/syslib/comparesf2.c:159:0
	.cfi_startproc
// %bb.0:
	//DEBUG_VALUE: __gtsf2:a <- $r0
	//DEBUG_VALUE: __gtsf2:b <- $r1
	//DEBUG_VALUE: __gesf2:a <- $r0
	//DEBUG_VALUE: __gesf2:b <- $r1
	//DEBUG_VALUE: toRep:x <- $r0
	.cfi_def_cfa_offset 0
	//DEBUG_VALUE: toRep:rep <- $r0
	move r2, r0
.Ltmp86:
	//DEBUG_VALUE: __gesf2:bInt <- $r1
	//DEBUG_VALUE: toRep:rep <- undef
	//DEBUG_VALUE: toRep:x <- undef
	//DEBUG_VALUE: __gesf2:aInt <- $r2
	//DEBUG_VALUE: toRep:rep <- $r2
	//DEBUG_VALUE: toRep:x <- $r2
	//DEBUG_VALUE: __gesf2:b <- $r1
	//DEBUG_VALUE: __gesf2:a <- $r2
	//DEBUG_VALUE: __gtsf2:b <- $r1
	//DEBUG_VALUE: __gtsf2:a <- $r2
	.loc	1 105 29 prologue_end           // uPIMulator_frontend/sdk/syslib/comparesf2.c:105:29
	and r3, r2, 2147483647
.Ltmp87:
	//DEBUG_VALUE: __gesf2:bAbs <- undef
	//DEBUG_VALUE: __gesf2:aAbs <- $r3
	.loc	1 0 29 is_stmt 0                // uPIMulator_frontend/sdk/syslib/comparesf2.c:0:29
	move r4, 2139095040
	move r0, -1
.Ltmp88:
	.loc	1 108 23 is_stmt 1              // uPIMulator_frontend/sdk/syslib/comparesf2.c:108:23
	jgtu r3, r4, .LBB6_8
.Ltmp89:
// %bb.1:
	//DEBUG_VALUE: __gesf2:aAbs <- $r3
	//DEBUG_VALUE: __gtsf2:a <- $r2
	//DEBUG_VALUE: __gesf2:a <- $r2
	//DEBUG_VALUE: __gesf2:aInt <- $r2
	//DEBUG_VALUE: __gesf2:bInt <- $r1
	//DEBUG_VALUE: __gesf2:b <- $r1
	//DEBUG_VALUE: __gtsf2:b <- $r1
	.loc	1 0 0 is_stmt 0                 // uPIMulator_frontend/sdk/syslib/comparesf2.c:0:0
	and r5, r1, 2147483647
.Ltmp90:
	//DEBUG_VALUE: __gesf2:bAbs <- $r5
	.loc	1 108 23                        // uPIMulator_frontend/sdk/syslib/comparesf2.c:108:23
	jgtu r5, r4, .LBB6_8
.Ltmp91:
// %bb.2:
	//DEBUG_VALUE: __gesf2:bAbs <- $r5
	//DEBUG_VALUE: __gesf2:aAbs <- $r3
	//DEBUG_VALUE: __gtsf2:a <- $r2
	//DEBUG_VALUE: __gesf2:a <- $r2
	//DEBUG_VALUE: __gesf2:aInt <- $r2
	//DEBUG_VALUE: __gesf2:bInt <- $r1
	//DEBUG_VALUE: __gesf2:b <- $r1
	//DEBUG_VALUE: __gtsf2:b <- $r1
	.loc	1 110 15 is_stmt 1              // uPIMulator_frontend/sdk/syslib/comparesf2.c:110:15
	or r3, r5, r3, z, .LBB6_3
.Ltmp92:
// %bb.4:
	//DEBUG_VALUE: __gesf2:bAbs <- $r5
	//DEBUG_VALUE: __gtsf2:a <- $r2
	//DEBUG_VALUE: __gesf2:a <- $r2
	//DEBUG_VALUE: __gesf2:aInt <- $r2
	//DEBUG_VALUE: __gesf2:bInt <- $r1
	//DEBUG_VALUE: __gesf2:b <- $r1
	//DEBUG_VALUE: __gtsf2:b <- $r1
	.loc	1 112 15                        // uPIMulator_frontend/sdk/syslib/comparesf2.c:112:15
	and r3, r1, r2, mi, .LBB6_6
.Ltmp93:
// %bb.5:
	//DEBUG_VALUE: __gesf2:bAbs <- $r5
	//DEBUG_VALUE: __gtsf2:a <- $r2
	//DEBUG_VALUE: __gesf2:a <- $r2
	//DEBUG_VALUE: __gesf2:aInt <- $r2
	//DEBUG_VALUE: __gesf2:bInt <- $r1
	//DEBUG_VALUE: __gesf2:b <- $r1
	//DEBUG_VALUE: __gtsf2:b <- $r1
	.loc	1 113 13                        // uPIMulator_frontend/sdk/syslib/comparesf2.c:113:13
	jlts r2, r1, .LBB6_8
.Ltmp94:
.LBB6_7:
	//DEBUG_VALUE: __gesf2:bAbs <- $r5
	//DEBUG_VALUE: __gtsf2:a <- $r2
	//DEBUG_VALUE: __gesf2:a <- $r2
	//DEBUG_VALUE: __gesf2:aInt <- $r2
	//DEBUG_VALUE: __gesf2:bInt <- $r1
	//DEBUG_VALUE: __gesf2:b <- $r1
	//DEBUG_VALUE: __gtsf2:b <- $r1
	.loc	1 0 0 is_stmt 0                 // uPIMulator_frontend/sdk/syslib/comparesf2.c:0:0
	sub r0, r2, r1, neq
.Ltmp95:
.LBB6_8:
	//DEBUG_VALUE: __gtsf2:a <- $r2
	//DEBUG_VALUE: __gtsf2:b <- $r1
	.loc	1 160 5 is_stmt 1               // uPIMulator_frontend/sdk/syslib/comparesf2.c:160:5
	jump r23
.Ltmp96:
.LBB6_3:
	//DEBUG_VALUE: __gtsf2:a <- $r2
	//DEBUG_VALUE: __gtsf2:b <- $r1
	.loc	1 0 5 is_stmt 0                 // uPIMulator_frontend/sdk/syslib/comparesf2.c:0:5
	move r0, 0
	.loc	1 160 5                         // uPIMulator_frontend/sdk/syslib/comparesf2.c:160:5
	jump r23
.Ltmp97:
.LBB6_6:
	//DEBUG_VALUE: __gesf2:bAbs <- $r5
	//DEBUG_VALUE: __gtsf2:a <- $r2
	//DEBUG_VALUE: __gesf2:a <- $r2
	//DEBUG_VALUE: __gesf2:aInt <- $r2
	//DEBUG_VALUE: __gesf2:bInt <- $r1
	//DEBUG_VALUE: __gesf2:b <- $r1
	//DEBUG_VALUE: __gtsf2:b <- $r1
	.loc	1 120 13 is_stmt 1              // uPIMulator_frontend/sdk/syslib/comparesf2.c:120:13
	jles r2, r1, .LBB6_7
	jump .LBB6_8
.Ltmp98:
.Lfunc_end6:
	.size	__gtsf2, .Lfunc_end6-__gtsf2
	.cfi_endproc
	.section	.stack_sizes,"o",@progbits,.text.__gtsf2
	.long	.Lfunc_begin6
	.byte	0
	.section	.text.__gtsf2,"ax",@progbits
                                        // -- End function