	.text
	.file	"comparedf2.c"
	.file	1 "/root" "uPIMulator_frontend/sdk/syslib/comparedf2.c"
	.section	.text.__ledf2,"ax",@progbits
	.globl	__ledf2                         // -- Begin function __ledf2
	.type	__ledf2,@function
__ledf2:                                // @__ledf2
.Lfunc_begin0:
	.loc	1 47 0                          // uPIMulator_frontend/sdk/syslib/comparedf2.c:47:0
	.cfi_sections .debug_frame
	.cfi_startproc
// %bb.0:
	//DEBUG_VALUE: __ledf2:a <- $d0
	//DEBUG_VALUE: __ledf2:a <- $d0
	//DEBUG_VALUE: __ledf2:b <- $d2
	//DEBUG_VALUE: __ledf2:b <- $d2
	//DEBUG_VALUE: toRep:x <- $d0
	//DEBUG_VALUE: toRep:x <- $d0
	//DEBUG_VALUE: toRep:x <- undef
	.cfi_def_cfa_offset 0
	//DEBUG_VALUE: toRep:rep <- $d0
	//DEBUG_VALUE: toRep:rep <- $d0
	//DEBUG_VALUE: __ledf2:aInt <- $d0
	//DEBUG_VALUE: toRep:rep <- undef
	//DEBUG_VALUE: __ledf2:bInt <- $d2
	.loc	1 51 29 prologue_end            // uPIMulator_frontend/sdk/syslib/comparedf2.c:51:29
	and r7, r1, 4294967295
	and r6, r0, 2147483647
.Ltmp0:
	//DEBUG_VALUE: __ledf2:bAbs <- undef
	//DEBUG_VALUE: __ledf2:aAbs <- $d6
	.loc	1 0 29 is_stmt 0                // uPIMulator_frontend/sdk/syslib/comparedf2.c:0:29
	move r11, 0
	move r10, 2146435072
	move r4, 1
.Ltmp1:
	.loc	1 55 23 is_stmt 1               // uPIMulator_frontend/sdk/syslib/comparedf2.c:55:23
	sub zero, r7, r11
	subc zero, r6, r10, xgtu, .LBB0_9
.Ltmp2:
// %bb.1:
	//DEBUG_VALUE: __ledf2:aAbs <- $d6
	//DEBUG_VALUE: __ledf2:bInt <- $d2
	//DEBUG_VALUE: __ledf2:b <- $d2
	//DEBUG_VALUE: __ledf2:aInt <- $d0
	//DEBUG_VALUE: __ledf2:a <- $d0
	.loc	1 0 0 is_stmt 0                 // uPIMulator_frontend/sdk/syslib/comparedf2.c:0:0
	and r9, r3, 4294967295
	and r8, r2, 2147483647
.Ltmp3:
	//DEBUG_VALUE: __ledf2:bAbs <- $d8
	.loc	1 55 23                         // uPIMulator_frontend/sdk/syslib/comparedf2.c:55:23
	sub zero, r9, r11
	subc zero, r8, r10, xgtu, .LBB0_9
.Ltmp4:
// %bb.2:
	//DEBUG_VALUE: __ledf2:bAbs <- $d8
	//DEBUG_VALUE: __ledf2:aAbs <- $d6
	//DEBUG_VALUE: __ledf2:bInt <- $d2
	//DEBUG_VALUE: __ledf2:b <- $d2
	//DEBUG_VALUE: __ledf2:aInt <- $d0
	//DEBUG_VALUE: __ledf2:a <- $d0
	.loc	1 59 15 is_stmt 1               // uPIMulator_frontend/sdk/syslib/comparedf2.c:59:15
	or r7, r9, r7
.Ltmp5:
	or r6, r8, r6
	move.s d4, 0
.Ltmp6:
	.loc	1 59 9 is_stmt 0                // uPIMulator_frontend/sdk/syslib/comparedf2.c:59:9
	jneq r7, r5, .LBB0_11
.Ltmp7:
// %bb.10:
	jeq r6, r4, .LBB0_3
.LBB0_11:
// %bb.4:
.Ltmp8:
	//DEBUG_VALUE: __ledf2:bAbs <- $d8
	//DEBUG_VALUE: __ledf2:bInt <- $d2
	//DEBUG_VALUE: __ledf2:b <- $d2
	//DEBUG_VALUE: __ledf2:aInt <- $d0
	//DEBUG_VALUE: __ledf2:a <- $d0
	.loc	1 64 15 is_stmt 1               // uPIMulator_frontend/sdk/syslib/comparedf2.c:64:15
	and r7, r3, r1
	and r6, r2, r0
.Ltmp9:
	.loc	1 64 9 is_stmt 0                // uPIMulator_frontend/sdk/syslib/comparedf2.c:64:9
	sub zero, r7, r5
	subc zero, r6, r4, lts, .LBB0_7
.Ltmp10:
// %bb.5:
	//DEBUG_VALUE: __ledf2:bAbs <- $d8
	//DEBUG_VALUE: __ledf2:bInt <- $d2
	//DEBUG_VALUE: __ledf2:b <- $d2
	//DEBUG_VALUE: __ledf2:aInt <- $d0
	//DEBUG_VALUE: __ledf2:a <- $d0
	.loc	1 0 9                           // uPIMulator_frontend/sdk/syslib/comparedf2.c:0:9
	move r4, -1
.Ltmp11:
	.loc	1 65 13 is_stmt 1               // uPIMulator_frontend/sdk/syslib/comparedf2.c:65:13
	sub zero, r1, r3
	subc zero, r0, r2, lts, .LBB0_9
.Ltmp12:
// %bb.6:
	//DEBUG_VALUE: __ledf2:bAbs <- $d8
	//DEBUG_VALUE: __ledf2:bInt <- $d2
	//DEBUG_VALUE: __ledf2:b <- $d2
	//DEBUG_VALUE: __ledf2:aInt <- $d0
	//DEBUG_VALUE: __ledf2:a <- $d0
	.loc	1 67 23                         // uPIMulator_frontend/sdk/syslib/comparedf2.c:67:23
	sub zero, r1, r3
	subc r0, r0, r2, xnz
.Ltmp13:
	.loc	1 67 18 is_stmt 0               // uPIMulator_frontend/sdk/syslib/comparedf2.c:67:18
	jump r23
.Ltmp14:
.LBB0_3:
	//DEBUG_VALUE: __ledf2:bAbs <- $d8
	//DEBUG_VALUE: __ledf2:bInt <- $d2
	//DEBUG_VALUE: __ledf2:b <- $d2
	//DEBUG_VALUE: __ledf2:aInt <- $d0
	//DEBUG_VALUE: __ledf2:a <- $d0
	.loc	1 0 18                          // uPIMulator_frontend/sdk/syslib/comparedf2.c:0:18
	move r4, 0
	.loc	1 85 1 is_stmt 1                // uPIMulator_frontend/sdk/syslib/comparedf2.c:85:1
	move r0, r4
.Ltmp15:
	jump r23
.Ltmp16:
.LBB0_7:
	//DEBUG_VALUE: __ledf2:bAbs <- $d8
	//DEBUG_VALUE: __ledf2:bInt <- $d2
	//DEBUG_VALUE: __ledf2:b <- $d2
	//DEBUG_VALUE: __ledf2:aInt <- $d0
	//DEBUG_VALUE: __ledf2:a <- $d0
	.loc	1 0 1 is_stmt 0                 // uPIMulator_frontend/sdk/syslib/comparedf2.c:0:1
	move r4, -1
.Ltmp17:
	.loc	1 78 13 is_stmt 1               // uPIMulator_frontend/sdk/syslib/comparedf2.c:78:13
	sub zero, r1, r3
	subc zero, r0, r2, xgts, .LBB0_9
.Ltmp18:
// %bb.8:
	//DEBUG_VALUE: __ledf2:bAbs <- $d8
	//DEBUG_VALUE: __ledf2:bInt <- $d2
	//DEBUG_VALUE: __ledf2:b <- $d2
	//DEBUG_VALUE: __ledf2:aInt <- $d0
	//DEBUG_VALUE: __ledf2:a <- $d0
	.loc	1 80 23                         // uPIMulator_frontend/sdk/syslib/comparedf2.c:80:23
	sub zero, r1, r3
	subc r4, r0, r2, xnz
.Ltmp19:
.LBB0_9:
	//DEBUG_VALUE: __ledf2:bInt <- $d2
	//DEBUG_VALUE: __ledf2:b <- $d2
	//DEBUG_VALUE: __ledf2:aInt <- $d0
	//DEBUG_VALUE: __ledf2:a <- $d0
	.loc	1 85 1                          // uPIMulator_frontend/sdk/syslib/comparedf2.c:85:1
	move r0, r4
.Ltmp20:
	jump r23
.Ltmp21:
.Lfunc_end0:
	.size	__ledf2, .Lfunc_end0-__ledf2
	.cfi_endproc
	.section	.stack_sizes,"o",@progbits,.text.__ledf2
	.long	.Lfunc_begin0
	.byte	0
	.section	.text.__ledf2,"ax",@progbits
                                        // -- End function
	.section	.text.__gedf2,"ax",@progbits
	.globl	__gedf2                         // -- Begin function __gedf2
	.type	__gedf2,@function
__gedf2:                                // @__gedf2
.Lfunc_begin1:
	.loc	1 101 0                         // uPIMulator_frontend/sdk/syslib/comparedf2.c:101:0
	.cfi_startproc
// %bb.0:
	//DEBUG_VALUE: __gedf2:a <- $d0
	//DEBUG_VALUE: __gedf2:b <- $d2
	//DEBUG_VALUE: toRep:x <- $d0
	.cfi_def_cfa_offset 0
	//DEBUG_VALUE: toRep:rep <- $d0
	movd d4, d0
.Ltmp22:
	//DEBUG_VALUE: __gedf2:bInt <- $d2
	//DEBUG_VALUE: toRep:rep <- undef
	//DEBUG_VALUE: toRep:x <- undef
	//DEBUG_VALUE: __gedf2:aInt <- $d4
	//DEBUG_VALUE: toRep:rep <- $d4
	//DEBUG_VALUE: toRep:x <- $d4
	//DEBUG_VALUE: __gedf2:b <- $d2
	//DEBUG_VALUE: __gedf2:a <- $d4
	.loc	1 105 29 prologue_end           // uPIMulator_frontend/sdk/syslib/comparedf2.c:105:29
	and r7, r5, 4294967295
	and r6, r4, 2147483647
.Ltmp23:
	//DEBUG_VALUE: __gedf2:bAbs <- undef
	//DEBUG_VALUE: __gedf2:aAbs <- $d6
	.loc	1 0 29 is_stmt 0                // uPIMulator_frontend/sdk/syslib/comparedf2.c:0:29
	move r9, 0
	move r8, 2146435072
	move r0, -1
.Ltmp24:
	.loc	1 108 23 is_stmt 1              // uPIMulator_frontend/sdk/syslib/comparedf2.c:108:23
	sub zero, r7, r9
	subc zero, r6, r8, xgtu, .LBB1_9
.Ltmp25:
// %bb.1:
	//DEBUG_VALUE: __gedf2:aAbs <- $d6
	//DEBUG_VALUE: __gedf2:a <- $d4
	//DEBUG_VALUE: __gedf2:aInt <- $d4
	//DEBUG_VALUE: __gedf2:bInt <- $d2
	//DEBUG_VALUE: __gedf2:b <- $d2
	.loc	1 0 0 is_stmt 0                 // uPIMulator_frontend/sdk/syslib/comparedf2.c:0:0
	and r11, r3, 4294967295
	and r10, r2, 2147483647
.Ltmp26:
	//DEBUG_VALUE: __gedf2:bAbs <- $d10
	.loc	1 108 23                        // uPIMulator_frontend/sdk/syslib/comparedf2.c:108:23
	sub zero, r11, r9
	subc zero, r10, r8, xgtu, .LBB1_9
.Ltmp27:
// %bb.2:
	//DEBUG_VALUE: __gedf2:bAbs <- $d10
	//DEBUG_VALUE: __gedf2:aAbs <- $d6
	//DEBUG_VALUE: __gedf2:a <- $d4
	//DEBUG_VALUE: __gedf2:aInt <- $d4
	//DEBUG_VALUE: __gedf2:bInt <- $d2
	//DEBUG_VALUE: __gedf2:b <- $d2
	.loc	1 110 15 is_stmt 1              // uPIMulator_frontend/sdk/syslib/comparedf2.c:110:15
	or r9, r11, r7
	or r8, r10, r6
	move.s d6, 0
.Ltmp28:
	.loc	1 110 9 is_stmt 0               // uPIMulator_frontend/sdk/syslib/comparedf2.c:110:9
	jneq r9, r7, .LBB1_11
.Ltmp29:
// %bb.10:
	jeq r8, r6, .LBB1_3
.LBB1_11:
// %bb.4:
.Ltmp30:
	//DEBUG_VALUE: __gedf2:bAbs <- $d10
	//DEBUG_VALUE: __gedf2:a <- $d4
	//DEBUG_VALUE: __gedf2:aInt <- $d4
	//DEBUG_VALUE: __gedf2:bInt <- $d2
	//DEBUG_VALUE: __gedf2:b <- $d2
	.loc	1 112 15 is_stmt 1              // uPIMulator_frontend/sdk/syslib/comparedf2.c:112:15
	and r9, r3, r5
	and r8, r2, r4
.Ltmp31:
	.loc	1 112 9 is_stmt 0               // uPIMulator_frontend/sdk/syslib/comparedf2.c:112:9
	sub zero, r9, r7
	subc zero, r8, r6, lts, .LBB1_7
.Ltmp32:
// %bb.5:
	//DEBUG_VALUE: __gedf2:bAbs <- $d10
	//DEBUG_VALUE: __gedf2:a <- $d4
	//DEBUG_VALUE: __gedf2:aInt <- $d4
	//DEBUG_VALUE: __gedf2:bInt <- $d2
	//DEBUG_VALUE: __gedf2:b <- $d2
	.loc	1 113 13 is_stmt 1              // uPIMulator_frontend/sdk/syslib/comparedf2.c:113:13
	sub zero, r5, r3
	subc zero, r4, r2, lts, .LBB1_9
.Ltmp33:
// %bb.6:
	//DEBUG_VALUE: __gedf2:bAbs <- $d10
	//DEBUG_VALUE: __gedf2:a <- $d4
	//DEBUG_VALUE: __gedf2:aInt <- $d4
	//DEBUG_VALUE: __gedf2:bInt <- $d2
	//DEBUG_VALUE: __gedf2:b <- $d2
	.loc	1 115 23                        // uPIMulator_frontend/sdk/syslib/comparedf2.c:115:23
	sub zero, r5, r3
	subc r0, r4, r2, xnz
.Ltmp34:
	.loc	1 115 18 is_stmt 0              // uPIMulator_frontend/sdk/syslib/comparedf2.c:115:18
	jump r23
.Ltmp35:
.LBB1_3:
	//DEBUG_VALUE: __gedf2:bAbs <- $d10
	//DEBUG_VALUE: __gedf2:a <- $d4
	//DEBUG_VALUE: __gedf2:aInt <- $d4
	//DEBUG_VALUE: __gedf2:bInt <- $d2
	//DEBUG_VALUE: __gedf2:b <- $d2
	.loc	1 0 18                          // uPIMulator_frontend/sdk/syslib/comparedf2.c:0:18
	move r0, 0
	.loc	1 127 1 is_stmt 1               // uPIMulator_frontend/sdk/syslib/comparedf2.c:127:1
	jump r23
.Ltmp36:
.LBB1_7:
	//DEBUG_VALUE: __gedf2:bAbs <- $d10
	//DEBUG_VALUE: __gedf2:a <- $d4
	//DEBUG_VALUE: __gedf2:aInt <- $d4
	//DEBUG_VALUE: __gedf2:bInt <- $d2
	//DEBUG_VALUE: __gedf2:b <- $d2
	.loc	1 120 13                        // uPIMulator_frontend/sdk/syslib/comparedf2.c:120:13
	sub zero, r5, r3
	subc zero, r4, r2, xgts, .LBB1_9
.Ltmp37:
// %bb.8:
	//DEBUG_VALUE: __gedf2:bAbs <- $d10
	//DEBUG_VALUE: __gedf2:a <- $d4
	//DEBUG_VALUE: __gedf2:aInt <- $d4
	//DEBUG_VALUE: __gedf2:bInt <- $d2
	//DEBUG_VALUE: __gedf2:b <- $d2
	.loc	1 122 23                        // uPIMulator_frontend/sdk/syslib/comparedf2.c:122:23
	sub zero, r5, r3
	subc r0, r4, r2, xnz
.Ltmp38:
.LBB1_9:
	//DEBUG_VALUE: __gedf2:a <- $d4
	//DEBUG_VALUE: __gedf2:aInt <- $d4
	//DEBUG_VALUE: __gedf2:bInt <- $d2
	//DEBUG_VALUE: __gedf2:b <- $d2
	.loc	1 127 1                         // uPIMulator_frontend/sdk/syslib/comparedf2.c:127:1
	jump r23
.Ltmp39:
.Lfunc_end1:
	.size	__gedf2, .Lfunc_end1-__gedf2
	.cfi_endproc
	.section	.stack_sizes,"o",@progbits,.text.__gedf2
	.long	.Lfunc_begin1
	.byte	0
	.section	.text.__gedf2,"ax",@progbits
                                        // -- End function
	.section	.text.__unorddf2,"ax",@progbits
	.globl	__unorddf2                      // -- Begin function __unorddf2
	.type	__unorddf2,@function
__unorddf2:                             // @__unorddf2
.Lfunc_begin2:
	.loc	1 131 0                         // uPIMulator_frontend/sdk/syslib/comparedf2.c:131:0
	.cfi_startproc
// %bb.0:
	//DEBUG_VALUE: __unorddf2:a <- $d0
	//DEBUG_VALUE: __unorddf2:a <- $d0
	//DEBUG_VALUE: __unorddf2:b <- $d2
	//DEBUG_VALUE: __unorddf2:b <- $d2
	//DEBUG_VALUE: toRep:x <- $d0
	//DEBUG_VALUE: toRep:x <- $d0
	.cfi_def_cfa_offset 0
	//DEBUG_VALUE: toRep:rep <- $d0
	//DEBUG_VALUE: toRep:rep <- $d0
	.loc	1 132 33 prologue_end           // uPIMulator_frontend/sdk/syslib/comparedf2.c:132:33
	and r1, r1, 4294967295
.Ltmp40:
	and r0, r0, 2147483647
.Ltmp41:
	//DEBUG_VALUE: toRep:rep <- undef
	//DEBUG_VALUE: toRep:x <- undef
	//DEBUG_VALUE: __unorddf2:aAbs <- $d0
	.loc	1 133 33                        // uPIMulator_frontend/sdk/syslib/comparedf2.c:133:33
	and r3, r3, 4294967295
.Ltmp42:
	and r2, r2, 2147483647
.Ltmp43:
	//DEBUG_VALUE: __unorddf2:bAbs <- $d2
	.loc	1 0 33 is_stmt 0                // uPIMulator_frontend/sdk/syslib/comparedf2.c:0:33
	move r5, 0
	move r4, 2146435072
	.loc	1 134 17 is_stmt 1              // uPIMulator_frontend/sdk/syslib/comparedf2.c:134:17
	sub zero, r1, r5
	subc r0, r0, r4, xgtu
.Ltmp44:
	.loc	1 134 26 is_stmt 0              // uPIMulator_frontend/sdk/syslib/comparedf2.c:134:26
	sub zero, r3, r5
	subc r1, r2, r4, xgtu
	or r0, r0, r1
	.loc	1 134 5                         // uPIMulator_frontend/sdk/syslib/comparedf2.c:134:5
	jump r23
.Ltmp45:
.Lfunc_end2:
	.size	__unorddf2, .Lfunc_end2-__unorddf2
	.cfi_endproc
	.section	.stack_sizes,"o",@progbits,.text.__unorddf2
	.long	.Lfunc_begin2
	.byte	0
	.section	.text.__unorddf2,"ax",@progbits
                                        // -- End function
	.section	.text.__eqdf2,"ax",@progbits
	.globl	__eqdf2                         // -- Begin function __eqdf2
	.type	__eqdf2,@function
__eqdf2:                                // @__eqdf2
.Lfunc_begin3:
	.loc	1 141 0 is_stmt 1               // uPIMulator_frontend/sdk/syslib/comparedf2.c:141:0
	.cfi_startproc
// %bb.0:
	//DEBUG_VALUE: __eqdf2:a <- $d0
	//DEBUG_VALUE: __eqdf2:a <- $d0
	//DEBUG_VALUE: __eqdf2:b <- $d2
	//DEBUG_VALUE: __eqdf2:b <- $d2
	//DEBUG_VALUE: __ledf2:a <- $d0
	//DEBUG_VALUE: __ledf2:a <- $d0
	//DEBUG_VALUE: __ledf2:b <- $d2
	//DEBUG_VALUE: __ledf2:b <- $d2
	//DEBUG_VALUE: toRep:x <- $d0
	//DEBUG_VALUE: toRep:x <- $d0
	//DEBUG_VALUE: toRep:x <- undef
	.cfi_def_cfa_offset 0
	//DEBUG_VALUE: toRep:rep <- $d0
	//DEBUG_VALUE: toRep:rep <- $d0
	//DEBUG_VALUE: __ledf2:aInt <- $d0
	//DEBUG_VALUE: toRep:rep <- undef
	//DEBUG_VALUE: __ledf2:bInt <- $d2
	.loc	1 51 29 prologue_end            // uPIMulator_frontend/sdk/syslib/comparedf2.c:51:29
	and r7, r1, 4294967295
	and r6, r0, 2147483647
.Ltmp46:
	//DEBUG_VALUE: __ledf2:bAbs <- undef
	//DEBUG_VALUE: __ledf2:aAbs <- $d6
	.loc	1 0 29 is_stmt 0                // uPIMulator_frontend/sdk/syslib/comparedf2.c:0:29
	move r11, 0
	move r10, 2146435072
	move r4, 1
.Ltmp47:
	.loc	1 55 23 is_stmt 1               // uPIMulator_frontend/sdk/syslib/comparedf2.c:55:23
	sub zero, r7, r11
	subc zero, r6, r10, xgtu, .LBB3_8
.Ltmp48:
// %bb.1:
	//DEBUG_VALUE: __ledf2:aAbs <- $d6
	//DEBUG_VALUE: __ledf2:bInt <- $d2
	//DEBUG_VALUE: __ledf2:b <- $d2
	//DEBUG_VALUE: __eqdf2:b <- $d2
	//DEBUG_VALUE: __ledf2:aInt <- $d0
	//DEBUG_VALUE: __ledf2:a <- $d0
	//DEBUG_VALUE: __eqdf2:a <- $d0
	.loc	1 0 0 is_stmt 0                 // uPIMulator_frontend/sdk/syslib/comparedf2.c:0:0
	and r9, r3, 4294967295
	and r8, r2, 2147483647
.Ltmp49:
	//DEBUG_VALUE: __ledf2:bAbs <- $d8
	.loc	1 55 23                         // uPIMulator_frontend/sdk/syslib/comparedf2.c:55:23
	sub zero, r9, r11
	subc zero, r8, r10, xgtu, .LBB3_8
.Ltmp50:
// %bb.2:
	//DEBUG_VALUE: __ledf2:bAbs <- $d8
	//DEBUG_VALUE: __ledf2:aAbs <- $d6
	//DEBUG_VALUE: __ledf2:bInt <- $d2
	//DEBUG_VALUE: __ledf2:b <- $d2
	//DEBUG_VALUE: __eqdf2:b <- $d2
	//DEBUG_VALUE: __ledf2:aInt <- $d0
	//DEBUG_VALUE: __ledf2:a <- $d0
	//DEBUG_VALUE: __eqdf2:a <- $d0
	.loc	1 59 15 is_stmt 1               // uPIMulator_frontend/sdk/syslib/comparedf2.c:59:15
	or r7, r9, r7
.Ltmp51:
	or r6, r8, r6
	move.s d4, 0
.Ltmp52:
	.loc	1 59 9 is_stmt 0                // uPIMulator_frontend/sdk/syslib/comparedf2.c:59:9
	jneq r7, r5, .LBB3_10
.Ltmp53:
// %bb.9:
	jeq r6, r4, .LBB3_3
.LBB3_10:
// %bb.4:
.Ltmp54:
	//DEBUG_VALUE: __ledf2:bAbs <- $d8
	//DEBUG_VALUE: __ledf2:bInt <- $d2
	//DEBUG_VALUE: __ledf2:b <- $d2
	//DEBUG_VALUE: __eqdf2:b <- $d2
	//DEBUG_VALUE: __ledf2:aInt <- $d0
	//DEBUG_VALUE: __ledf2:a <- $d0
	//DEBUG_VALUE: __eqdf2:a <- $d0
	.loc	1 64 15 is_stmt 1               // uPIMulator_frontend/sdk/syslib/comparedf2.c:64:15
	and r7, r3, r1
	and r6, r2, r0
.Ltmp55:
	.loc	1 64 9 is_stmt 0                // uPIMulator_frontend/sdk/syslib/comparedf2.c:64:9
	sub zero, r7, r5
	subc zero, r6, r4, lts, .LBB3_6
.Ltmp56:
// %bb.5:
	//DEBUG_VALUE: __ledf2:bAbs <- $d8
	//DEBUG_VALUE: __ledf2:bInt <- $d2
	//DEBUG_VALUE: __ledf2:b <- $d2
	//DEBUG_VALUE: __eqdf2:b <- $d2
	//DEBUG_VALUE: __ledf2:aInt <- $d0
	//DEBUG_VALUE: __ledf2:a <- $d0
	//DEBUG_VALUE: __eqdf2:a <- $d0
	.loc	1 0 9                           // uPIMulator_frontend/sdk/syslib/comparedf2.c:0:9
	move r4, -1
.Ltmp57:
	.loc	1 65 13 is_stmt 1               // uPIMulator_frontend/sdk/syslib/comparedf2.c:65:13
	sub zero, r1, r3
	subc zero, r0, r2, lts, .LBB3_8
.Ltmp58:
.LBB3_7:
	//DEBUG_VALUE: __ledf2:bAbs <- $d8
	//DEBUG_VALUE: __ledf2:bInt <- $d2
	//DEBUG_VALUE: __ledf2:b <- $d2
	//DEBUG_VALUE: __eqdf2:b <- $d2
	//DEBUG_VALUE: __ledf2:aInt <- $d0
	//DEBUG_VALUE: __ledf2:a <- $d0
	//DEBUG_VALUE: __eqdf2:a <- $d0
	.loc	1 0 0 is_stmt 0                 // uPIMulator_frontend/sdk/syslib/comparedf2.c:0:0
	sub zero, r1, r3
	subc r4, r0, r2, xnz
.Ltmp59:
.LBB3_8:
	//DEBUG_VALUE: __eqdf2:b <- $d2
	//DEBUG_VALUE: __eqdf2:a <- $d0
	.loc	1 142 5 is_stmt 1               // uPIMulator_frontend/sdk/syslib/comparedf2.c:142:5
	move r0, r4
.Ltmp60:
	jump r23
.Ltmp61:
.LBB3_3:
	//DEBUG_VALUE: __eqdf2:b <- $d2
	//DEBUG_VALUE: __eqdf2:a <- $d0
	.loc	1 0 5 is_stmt 0                 // uPIMulator_frontend/sdk/syslib/comparedf2.c:0:5
	move r4, 0
	.loc	1 142 5                         // uPIMulator_frontend/sdk/syslib/comparedf2.c:142:5
	move r0, r4
.Ltmp62:
	jump r23
.Ltmp63:
.LBB3_6:
	//DEBUG_VALUE: __ledf2:bAbs <- $d8
	//DEBUG_VALUE: __ledf2:bInt <- $d2
	//DEBUG_VALUE: __ledf2:b <- $d2
	//DEBUG_VALUE: __eqdf2:b <- $d2
	//DEBUG_VALUE: __ledf2:aInt <- $d0
	//DEBUG_VALUE: __ledf2:a <- $d0
	//DEBUG_VALUE: __eqdf2:a <- $d0
	.loc	1 0 5                           // uPIMulator_frontend/sdk/syslib/comparedf2.c:0:5
	move r4, -1
.Ltmp64:
	.loc	1 78 13 is_stmt 1               // uPIMulator_frontend/sdk/syslib/comparedf2.c:78:13
	sub zero, r1, r3
	subc zero, r0, r2, xles, .LBB3_7
	jump .LBB3_8
.Ltmp65:
.Lfunc_end3:
	.size	__eqdf2, .Lfunc_end3-__eqdf2
	.cfi_endproc
	.file	2 "/root" "uPIMulator_frontend/sdk/syslib/fp_lib.h"
	.file	3 "/root" "uPIMulator_frontend/sdk/stdlib/stdint.h"
	.section	.stack_sizes,"o",@progbits,.text.__eqdf2
	.long	.Lfunc_begin3
	.byte	0
	.section	.text.__eqdf2,"ax",@progbits
                                        // -- End function
	.section	.text.__ltdf2,"ax",@progbits
	.globl	__ltdf2                         // -- Begin function __ltdf2
	.type	__ltdf2,@function
__ltdf2:                                // @__ltdf2
.Lfunc_begin4:
	.loc	1 147 0                         // uPIMulator_frontend/sdk/syslib/comparedf2.c:147:0
	.cfi_startproc
// %bb.0:
	//DEBUG_VALUE: __ltdf2:a <- $d0
	//DEBUG_VALUE: __ltdf2:a <- $d0
	//DEBUG_VALUE: __ltdf2:b <- $d2
	//DEBUG_VALUE: __ltdf2:b <- $d2
	//DEBUG_VALUE: __ledf2:a <- $d0
	//DEBUG_VALUE: __ledf2:a <- $d0
	//DEBUG_VALUE: __ledf2:b <- $d2
	//DEBUG_VALUE: __ledf2:b <- $d2
	//DEBUG_VALUE: toRep:x <- $d0
	//DEBUG_VALUE: toRep:x <- $d0
	//DEBUG_VALUE: toRep:x <- undef
	.cfi_def_cfa_offset 0
	//DEBUG_VALUE: toRep:rep <- $d0
	//DEBUG_VALUE: toRep:rep <- $d0
	//DEBUG_VALUE: __ledf2:aInt <- $d0
	//DEBUG_VALUE: toRep:rep <- undef
	//DEBUG_VALUE: __ledf2:bInt <- $d2
	.loc	1 51 29 prologue_end            // uPIMulator_frontend/sdk/syslib/comparedf2.c:51:29
	and r7, r1, 4294967295
	and r6, r0, 2147483647
.Ltmp66:
	//DEBUG_VALUE: __ledf2:bAbs <- undef
	//DEBUG_VALUE: __ledf2:aAbs <- $d6
	.loc	1 0 29 is_stmt 0                // uPIMulator_frontend/sdk/syslib/comparedf2.c:0:29
	move r11, 0
	move r10, 2146435072
	move r4, 1
.Ltmp67:
	.loc	1 55 23 is_stmt 1               // uPIMulator_frontend/sdk/syslib/comparedf2.c:55:23
	sub zero, r7, r11
	subc zero, r6, r10, xgtu, .LBB4_8
.Ltmp68:
// %bb.1:
	//DEBUG_VALUE: __ledf2:aAbs <- $d6
	//DEBUG_VALUE: __ledf2:bInt <- $d2
	//DEBUG_VALUE: __ledf2:b <- $d2
	//DEBUG_VALUE: __ltdf2:b <- $d2
	//DEBUG_VALUE: __ledf2:aInt <- $d0
	//DEBUG_VALUE: __ledf2:a <- $d0
	//DEBUG_VALUE: __ltdf2:a <- $d0
	.loc	1 0 0 is_stmt 0                 // uPIMulator_frontend/sdk/syslib/comparedf2.c:0:0
	and r9, r3, 4294967295
	and r8, r2, 2147483647
.Ltmp69:
	//DEBUG_VALUE: __ledf2:bAbs <- $d8
	.loc	1 55 23                         // uPIMulator_frontend/sdk/syslib/comparedf2.c:55:23
	sub zero, r9, r11
	subc zero, r8, r10, xgtu, .LBB4_8
.Ltmp70:
// %bb.2:
	//DEBUG_VALUE: __ledf2:bAbs <- $d8
	//DEBUG_VALUE: __ledf2:aAbs <- $d6
	//DEBUG_VALUE: __ledf2:bInt <- $d2
	//DEBUG_VALUE: __ledf2:b <- $d2
	//DEBUG_VALUE: __ltdf2:b <- $d2
	//DEBUG_VALUE: __ledf2:aInt <- $d0
	//DEBUG_VALUE: __ledf2:a <- $d0
	//DEBUG_VALUE: __ltdf2:a <- $d0
	.loc	1 59 15 is_stmt 1               // uPIMulator_frontend/sdk/syslib/comparedf2.c:59:15
	or r7, r9, r7
.Ltmp71:
	or r6, r8, r6
	move.s d4, 0
.Ltmp72:
	.loc	1 59 9 is_stmt 0                // uPIMulator_frontend/sdk/syslib/comparedf2.c:59:9
	jneq r7, r5, .LBB4_10
.Ltmp73:
// %bb.9:
	jeq r6, r4, .LBB4_3
.LBB4_10:
// %bb.4:
.Ltmp74:
	//DEBUG_VALUE: __ledf2:bAbs <- $d8
	//DEBUG_VALUE: __ledf2:bInt <- $d2
	//DEBUG_VALUE: __ledf2:b <- $d2
	//DEBUG_VALUE: __ltdf2:b <- $d2
	//DEBUG_VALUE: __ledf2:aInt <- $d0
	//DEBUG_VALUE: __ledf2:a <- $d0
	//DEBUG_VALUE: __ltdf2:a <- $d0
	.loc	1 64 15 is_stmt 1               // uPIMulator_frontend/sdk/syslib/comparedf2.c:64:15
	and r7, r3, r1
	and r6, r2, r0
.Ltmp75:
	.loc	1 64 9 is_stmt 0                // uPIMulator_frontend/sdk/syslib/comparedf2.c:64:9
	sub zero, r7, r5
	subc zero, r6, r4, lts, .LBB4_6
.Ltmp76:
// %bb.5:
	//DEBUG_VALUE: __ledf2:bAbs <- $d8
	//DEBUG_VALUE: __ledf2:bInt <- $d2
	//DEBUG_VALUE: __ledf2:b <- $d2
	//DEBUG_VALUE: __ltdf2:b <- $d2
	//DEBUG_VALUE: __ledf2:aInt <- $d0
	//DEBUG_VALUE: __ledf2:a <- $d0
	//DEBUG_VALUE: __ltdf2:a <- $d0
	.loc	1 0 9                           // uPIMulator_frontend/sdk/syslib/comparedf2.c:0:9
	move r4, -1
.Ltmp77:
	.loc	1 65 13 is_stmt 1               // uPIMulator_frontend/sdk/syslib/comparedf2.c:65:13
	sub zero, r1, r3
	subc zero, r0, r2, lts, .LBB4_8
.Ltmp78:
.LBB4_7:
	//DEBUG_VALUE: __ledf2:bAbs <- $d8
	//DEBUG_VALUE: __ledf2:bInt <- $d2
	//DEBUG_VALUE: __ledf2:b <- $d2
	//DEBUG_VALUE: __ltdf2:b <- $d2
	//DEBUG_VALUE: __ledf2:aInt <- $d0
	//DEBUG_VALUE: __ledf2:a <- $d0
	//DEBUG_VALUE: __ltdf2:a <- $d0
	.loc	1 0 0 is_stmt 0                 // uPIMulator_frontend/sdk/syslib/comparedf2.c:0:0
	sub zero, r1, r3
	subc r4, r0, r2, xnz
.Ltmp79:
.LBB4_8:
	//DEBUG_VALUE: __ltdf2:b <- $d2
	//DEBUG_VALUE: __ltdf2:a <- $d0
	.loc	1 148 5 is_stmt 1               // uPIMulator_frontend/sdk/syslib/comparedf2.c:148:5
	move r0, r4
.Ltmp80:
	jump r23
.Ltmp81:
.LBB4_3:
	//DEBUG_VALUE: __ltdf2:b <- $d2
	//DEBUG_VALUE: __ltdf2:a <- $d0
	.loc	1 0 5 is_stmt 0                 // uPIMulator_frontend/sdk/syslib/comparedf2.c:0:5
	move r4, 0
	.loc	1 148 5                         // uPIMulator_frontend/sdk/syslib/comparedf2.c:148:5
	move r0, r4
.Ltmp82:
	jump r23
.Ltmp83:
.LBB4_6:
	//DEBUG_VALUE: __ledf2:bAbs <- $d8
	//DEBUG_VALUE: __ledf2:bInt <- $d2
	//DEBUG_VALUE: __ledf2:b <- $d2
	//DEBUG_VALUE: __ltdf2:b <- $d2
	//DEBUG_VALUE: __ledf2:aInt <- $d0
	//DEBUG_VALUE: __ledf2:a <- $d0
	//DEBUG_VALUE: __ltdf2:a <- $d0
	.loc	1 0 5                           // uPIMulator_frontend/sdk/syslib/comparedf2.c:0:5
	move r4, -1
.Ltmp84:
	.loc	1 78 13 is_stmt 1               // uPIMulator_frontend/sdk/syslib/comparedf2.c:78:13
	sub zero, r1, r3
	subc zero, r0, r2, xles, .LBB4_7
	jump .LBB4_8
.Ltmp85:
.Lfunc_end4:
	.size	__ltdf2, .Lfunc_end4-__ltdf2
	.cfi_endproc
	.section	.stack_sizes,"o",@progbits,.text.__ltdf2
	.long	.Lfunc_begin4
	.byte	0
	.section	.text.__ltdf2,"ax",@progbits
                                        // -- End function
	.section	.text.__nedf2,"ax",@progbits
	.globl	__nedf2                         // -- Begin function __nedf2
	.type	__nedf2,@function
__nedf2:                                // @__nedf2
.Lfunc_begin5:
	.loc	1 153 0                         // uPIMulator_frontend/sdk/syslib/comparedf2.c:153:0
	.cfi_startproc
// %bb.0:
	//DEBUG_VALUE: __nedf2:a <- $d0
	//DEBUG_VALUE: __nedf2:a <- $d0
	//DEBUG_VALUE: __nedf2:b <- $d2
	//DEBUG_VALUE: __nedf2:b <- $d2
	//DEBUG_VALUE: __ledf2:a <- $d0
	//DEBUG_VALUE: __ledf2:a <- $d0
	//DEBUG_VALUE: __ledf2:b <- $d2
	//DEBUG_VALUE: __ledf2:b <- $d2
	//DEBUG_VALUE: toRep:x <- $d0
	//DEBUG_VALUE: toRep:x <- $d0
	//DEBUG_VALUE: toRep:x <- undef
	.cfi_def_cfa_offset 0
	//DEBUG_VALUE: toRep:rep <- $d0
	//DEBUG_VALUE: toRep:rep <- $d0
	//DEBUG_VALUE: __ledf2:aInt <- $d0
	//DEBUG_VALUE: toRep:rep <- undef
	//DEBUG_VALUE: __ledf2:bInt <- $d2
	.loc	1 51 29 prologue_end            // uPIMulator_frontend/sdk/syslib/comparedf2.c:51:29
	and r7, r1, 4294967295
	and r6, r0, 2147483647
.Ltmp86:
	//DEBUG_VALUE: __ledf2:bAbs <- undef
	//DEBUG_VALUE: __ledf2:aAbs <- $d6
	.loc	1 0 29 is_stmt 0                // uPIMulator_frontend/sdk/syslib/comparedf2.c:0:29
	move r11, 0
	move r10, 2146435072
	move r4, 1
.Ltmp87:
	.loc	1 55 23 is_stmt 1               // uPIMulator_frontend/sdk/syslib/comparedf2.c:55:23
	sub zero, r7, r11
	subc zero, r6, r10, xgtu, .LBB5_8
.Ltmp88:
// %bb.1:
	//DEBUG_VALUE: __ledf2:aAbs <- $d6
	//DEBUG_VALUE: __ledf2:bInt <- $d2
	//DEBUG_VALUE: __ledf2:b <- $d2
	//DEBUG_VALUE: __nedf2:b <- $d2
	//DEBUG_VALUE: __ledf2:aInt <- $d0
	//DEBUG_VALUE: __ledf2:a <- $d0
	//DEBUG_VALUE: __nedf2:a <- $d0
	.loc	1 0 0 is_stmt 0                 // uPIMulator_frontend/sdk/syslib/comparedf2.c:0:0
	and r9, r3, 4294967295
	and r8, r2, 2147483647
.Ltmp89:
	//DEBUG_VALUE: __ledf2:bAbs <- $d8
	.loc	1 55 23                         // uPIMulator_frontend/sdk/syslib/comparedf2.c:55:23
	sub zero, r9, r11
	subc zero, r8, r10, xgtu, .LBB5_8
.Ltmp90:
// %bb.2:
	//DEBUG_VALUE: __ledf2:bAbs <- $d8
	//DEBUG_VALUE: __ledf2:aAbs <- $d6
	//DEBUG_VALUE: __ledf2:bInt <- $d2
	//DEBUG_VALUE: __ledf2:b <- $d2
	//DEBUG_VALUE: __nedf2:b <- $d2
	//DEBUG_VALUE: __ledf2:aInt <- $d0
	//DEBUG_VALUE: __ledf2:a <- $d0
	//DEBUG_VALUE: __nedf2:a <- $d0
	.loc	1 59 15 is_stmt 1               // uPIMulator_frontend/sdk/syslib/comparedf2.c:59:15
	or r7, r9, r7
.Ltmp91:
	or r6, r8, r6
	move.s d4, 0
.Ltmp92:
	.loc	1 59 9 is_stmt 0                // uPIMulator_frontend/sdk/syslib/comparedf2.c:59:9
	jneq r7, r5, .LBB5_10
.Ltmp93:
// %bb.9:
	jeq r6, r4, .LBB5_3
.LBB5_10:
// %bb.4:
.Ltmp94:
	//DEBUG_VALUE: __ledf2:bAbs <- $d8
	//DEBUG_VALUE: __ledf2:bInt <- $d2
	//DEBUG_VALUE: __ledf2:b <- $d2
	//DEBUG_VALUE: __nedf2:b <- $d2
	//DEBUG_VALUE: __ledf2:aInt <- $d0
	//DEBUG_VALUE: __ledf2:a <- $d0
	//DEBUG_VALUE: __nedf2:a <- $d0
	.loc	1 64 15 is_stmt 1               // uPIMulator_frontend/sdk/syslib/comparedf2.c:64:15
	and r7, r3, r1
	and r6, r2, r0
.Ltmp95:
	.loc	1 64 9 is_stmt 0                // uPIMulator_frontend/sdk/syslib/comparedf2.c:64:9
	sub zero, r7, r5
	subc zero, r6, r4, lts, .LBB5_6
.Ltmp96:
// %bb.5:
	//DEBUG_VALUE: __ledf2:bAbs <- $d8
	//DEBUG_VALUE: __ledf2:bInt <- $d2
	//DEBUG_VALUE: __ledf2:b <- $d2
	//DEBUG_VALUE: __nedf2:b <- $d2
	//DEBUG_VALUE: __ledf2:aInt <- $d0
	//DEBUG_VALUE: __ledf2:a <- $d0
	//DEBUG_VALUE: __nedf2:a <- $d0
	.loc	1 0 9                           // uPIMulator_frontend/sdk/syslib/comparedf2.c:0:9
	move r4, -1
.Ltmp97:
	.loc	1 65 13 is_stmt 1               // uPIMulator_frontend/sdk/syslib/comparedf2.c:65:13
	sub zero, r1, r3
	subc zero, r0, r2, lts, .LBB5_8
.Ltmp98:
.LBB5_7:
	//DEBUG_VALUE: __ledf2:bAbs <- $d8
	//DEBUG_VALUE: __ledf2:bInt <- $d2
	//DEBUG_VALUE: __ledf2:b <- $d2
	//DEBUG_VALUE: __nedf2:b <- $d2
	//DEBUG_VALUE: __ledf2:aInt <- $d0
	//DEBUG_VALUE: __ledf2:a <- $d0
	//DEBUG_VALUE: __nedf2:a <- $d0
	.loc	1 0 0 is_stmt 0                 // uPIMulator_frontend/sdk/syslib/comparedf2.c:0:0
	sub zero, r1, r3
	subc r4, r0, r2, xnz
.Ltmp99:
.LBB5_8:
	//DEBUG_VALUE: __nedf2:b <- $d2
	//DEBUG_VALUE: __nedf2:a <- $d0
	.loc	1 154 5 is_stmt 1               // uPIMulator_frontend/sdk/syslib/comparedf2.c:154:5
	move r0, r4
.Ltmp100:
	jump r23
.Ltmp101:
.LBB5_3:
	//DEBUG_VALUE: __nedf2:b <- $d2
	//DEBUG_VALUE: __nedf2:a <- $d0
	.loc	1 0 5 is_stmt 0                 // uPIMulator_frontend/sdk/syslib/comparedf2.c:0:5
	move r4, 0
	.loc	1 154 5                         // uPIMulator_frontend/sdk/syslib/comparedf2.c:154:5
	move r0, r4
.Ltmp102:
	jump r23
.Ltmp103:
.LBB5_6:
	//DEBUG_VALUE: __ledf2:bAbs <- $d8
	//DEBUG_VALUE: __ledf2:bInt <- $d2
	//DEBUG_VALUE: __ledf2:b <- $d2
	//DEBUG_VALUE: __nedf2:b <- $d2
	//DEBUG_VALUE: __ledf2:aInt <- $d0
	//DEBUG_VALUE: __ledf2:a <- $d0
	//DEBUG_VALUE: __nedf2:a <- $d0
	.loc	1 0 5                           // uPIMulator_frontend/sdk/syslib/comparedf2.c:0:5
	move r4, -1
.Ltmp104:
	.loc	1 78 13 is_stmt 1               // uPIMulator_frontend/sdk/syslib/comparedf2.c:78:13
	sub zero, r1, r3
	subc zero, r0, r2, xles, .LBB5_7
	jump .LBB5_8
.Ltmp105:
.Lfunc_end5:
	.size	__nedf2, .Lfunc_end5-__nedf2
	.cfi_endproc
	.section	.stack_sizes,"o",@progbits,.text.__nedf2
	.long	.Lfunc_begin5
	.byte	0
	.section	.text.__nedf2,"ax",@progbits
                                        // -- End function
	.section	.text.__gtdf2,"ax",@progbits
	.globl	__gtdf2                         // -- Begin function __gtdf2
	.type	__gtdf2,@function
__gtdf2:                                // @__gtdf2
.Lfunc_begin6:
	.loc	1 159 0                         // uPIMulator_frontend/sdk/syslib/comparedf2.c:159:0
	.cfi_startproc
// %bb.0:
	//DEBUG_VALUE: __gtdf2:a <- $d0
	//DEBUG_VALUE: __gtdf2:b <- $d2
	//DEBUG_VALUE: __gedf2:a <- $d0
	//DEBUG_VALUE: __gedf2:b <- $d2
	//DEBUG_VALUE: toRep:x <- $d0
	.cfi_def_cfa_offset 0
	//DEBUG_VALUE: toRep:rep <- $d0
	movd d4, d0
.Ltmp106:
	//DEBUG_VALUE: __gedf2:bInt <- $d2
	//DEBUG_VALUE: toRep:rep <- undef
	//DEBUG_VALUE: toRep:x <- undef
	//DEBUG_VALUE: __gedf2:aInt <- $d4
	//DEBUG_VALUE: toRep:rep <- $d4
	//DEBUG_VALUE: toRep:x <- $d4
	//DEBUG_VALUE: __gedf2:b <- $d2
	//DEBUG_VALUE: __gedf2:a <- $d4
	//DEBUG_VALUE: __gtdf2:b <- $d2
	//DEBUG_VALUE: __gtdf2:a <- $d4
	.loc	1 105 29 prologue_end           // uPIMulator_frontend/sdk/syslib/comparedf2.c:105:29
	and r7, r5, 4294967295
	and r6, r4, 2147483647
.Ltmp107:
	//DEBUG_VALUE: __gedf2:bAbs <- undef
	//DEBUG_VALUE: __gedf2:aAbs <- $d6
	.loc	1 0 29 is_stmt 0                // uPIMulator_frontend/sdk/syslib/comparedf2.c:0:29
	move r9, 0
	move r8, 2146435072
	move r0, -1
.Ltmp108:
	.loc	1 108 23 is_stmt 1              // uPIMulator_frontend/sdk/syslib/comparedf2.c:108:23
	sub zero, r7, r9
	subc zero, r6, r8, xgtu, .LBB6_8
.Ltmp109:
// %bb.1:
	//DEBUG_VALUE: __gedf2:aAbs <- $d6
	//DEBUG_VALUE: __gtdf2:a <- $d4
	//DEBUG_VALUE: __gedf2:a <- $d4
	//DEBUG_VALUE: __gedf2:aInt <- $d4
	//DEBUG_VALUE: __gedf2:bInt <- $d2
	//DEBUG_VALUE: __gedf2:b <- $d2
	//DEBUG_VALUE: __gtdf2:b <- $d2
	.loc	1 0 0 is_stmt 0                 // uPIMulator_frontend/sdk/syslib/comparedf2.c:0:0
	and r11, r3, 4294967295
	and r10, r2, 2147483647
.Ltmp110:
	//DEBUG_VALUE: __gedf2:bAbs <- $d10
	.loc	1 108 23                        // uPIMulator_frontend/sdk/syslib/comparedf2.c:108:23
	sub zero, r11, r9
	subc zero, r10, r8, xgtu, .LBB6_8
.Ltmp111:
// %bb.2:
	//DEBUG_VALUE: __gedf2:bAbs <- $d10
	//DEBUG_VALUE: __gedf2:aAbs <- $d6
	//DEBUG_VALUE: __gtdf2:a <- $d4
	//DEBUG_VALUE: __gedf2:a <- $d4
	//DEBUG_VALUE: __gedf2:aInt <- $d4
	//DEBUG_VALUE: __gedf2:bInt <- $d2
	//DEBUG_VALUE: __gedf2:b <- $d2
	//DEBUG_VALUE: __gtdf2:b <- $d2
	.loc	1 110 15 is_stmt 1              // uPIMulator_frontend/sdk/syslib/comparedf2.c:110:15
	or r9, r11, r7
	or r8, r10, r6
	move.s d6, 0
.Ltmp112:
	.loc	1 110 9 is_stmt 0               // uPIMulator_frontend/sdk/syslib/comparedf2.c:110:9
	jneq r9, r7, .LBB6_10
.Ltmp113:
// %bb.9:
	jeq r8, r6, .LBB6_3
.LBB6_10:
// %bb.4:
.Ltmp114:
	//DEBUG_VALUE: __gedf2:bAbs <- $d10
	//DEBUG_VALUE: __gtdf2:a <- $d4
	//DEBUG_VALUE: __gedf2:a <- $d4
	//DEBUG_VALUE: __gedf2:aInt <- $d4
	//DEBUG_VALUE: __gedf2:bInt <- $d2
	//DEBUG_VALUE: __gedf2:b <- $d2
	//DEBUG_VALUE: __gtdf2:b <- $d2
	.loc	1 112 15 is_stmt 1              // uPIMulator_frontend/sdk/syslib/comparedf2.c:112:15
	and r9, r3, r5
	and r8, r2, r4
.Ltmp115:
	.loc	1 112 9 is_stmt 0               // uPIMulator_frontend/sdk/syslib/comparedf2.c:112:9
	sub zero, r9, r7
	subc zero, r8, r6, lts, .LBB6_6
.Ltmp116:
// %bb.5:
	//DEBUG_VALUE: __gedf2:bAbs <- $d10
	//DEBUG_VALUE: __gtdf2:a <- $d4
	//DEBUG_VALUE: __gedf2:a <- $d4
	//DEBUG_VALUE: __gedf2:aInt <- $d4
	//DEBUG_VALUE: __gedf2:bInt <- $d2
	//DEBUG_VALUE: __gedf2:b <- $d2
	//DEBUG_VALUE: __gtdf2:b <- $d2
	.loc	1 113 13 is_stmt 1              // uPIMulator_frontend/sdk/syslib/comparedf2.c:113:13
	sub zero, r5, r3
	subc zero, r4, r2, lts, .LBB6_8
.Ltmp117:
.LBB6_7:
	//DEBUG_VALUE: __gedf2:bAbs <- $d10
	//DEBUG_VALUE: __gtdf2:a <- $d4
	//DEBUG_VALUE: __gedf2:a <- $d4
	//DEBUG_VALUE: __gedf2:aInt <- $d4
	//DEBUG_VALUE: __gedf2:bInt <- $d2
	//DEBUG_VALUE: __gedf2:b <- $d2
	//DEBUG_VALUE: __gtdf2:b <- $d2
	.loc	1 0 0 is_stmt 0                 // uPIMulator_frontend/sdk/syslib/comparedf2.c:0:0
	sub zero, r5, r3
	subc r0, r4, r2, xnz
.Ltmp118:
.LBB6_8:
	//DEBUG_VALUE: __gtdf2:a <- $d4
	//DEBUG_VALUE: __gtdf2:b <- $d2
	.loc	1 160 5 is_stmt 1               // uPIMulator_frontend/sdk/syslib/comparedf2.c:160:5
	jump r23
.Ltmp119:
.LBB6_3:
	//DEBUG_VALUE: __gtdf2:a <- $d4
	//DEBUG_VALUE: __gtdf2:b <- $d2
	.loc	1 0 5 is_stmt 0                 // uPIMulator_frontend/sdk/syslib/comparedf2.c:0:5
	move r0, 0
	.loc	1 160 5                         // uPIMulator_frontend/sdk/syslib/comparedf2.c:160:5
	jump r23
.Ltmp120:
.LBB6_6:
	//DEBUG_VALUE: __gedf2:bAbs <- $d10
	//DEBUG_VALUE: __gtdf2:a <- $d4
	//DEBUG_VALUE: __gedf2:a <- $d4
	//DEBUG_VALUE: __gedf2:aInt <- $d4
	//DEBUG_VALUE: __gedf2:bInt <- $d2
	//DEBUG_VALUE: __gedf2:b <- $d2
	//DEBUG_VALUE: __gtdf2:b <- $d2
	.loc	1 120 13 is_stmt 1              // uPIMulator_frontend/sdk/syslib/comparedf2.c:120:13
	sub zero, r5, r3
	subc zero, r4, r2, xles, .LBB6_7
	jump .LBB6_8
.Ltmp121:
.Lfunc_end6:
	.size	__gtdf2, .Lfunc_end6-__gtdf2
	.cfi_endproc
	.section	.stack_sizes,"o",@progbits,.text.__gtdf2
	.long	.Lfunc_begin6
	.byte	0
	.section	.text.__gtdf2,"ax",@progbits
                                        // -- End function