	.text
	.file	"divdf3.c"
	.file	1 "/root" "uPIMulator_frontend/sdk/stdlib/stdint.h"
	.file	2 "/root" "uPIMulator_frontend/sdk/syslib/fp_lib.h"
	.section	.text.__divdf3,"ax",@progbits
	.globl	__divdf3                        // -- Begin function __divdf3
	.type	__divdf3,@function
__divdf3:                               // @__divdf3
.Lfunc_begin0:
	.file	3 "/root" "uPIMulator_frontend/sdk/syslib/divdf3.c"
	.loc	3 24 0                          // uPIMulator_frontend/sdk/syslib/divdf3.c:24:0
	.cfi_sections .debug_frame
	.cfi_startproc
// %bb.0:
	//DEBUG_VALUE: __divdf3:a <- $d0
	//DEBUG_VALUE: __divdf3:a <- $d0
	//DEBUG_VALUE: __divdf3:b <- $d2
	//DEBUG_VALUE: __divdf3:b <- $d2
	//DEBUG_VALUE: toRep:x <- $d0
	//DEBUG_VALUE: toRep:x <- $d0
	.cfi_def_cfa_offset -96
	.cfi_offset 23, -8
	.cfi_offset 22, -4
	sd r22, 88, d22
	add r22, r22, 96
	.cfi_offset 15, -72
	.cfi_offset 14, -68
.Ltmp0:
	sd r22, -72, d14
	.cfi_offset 17, -80
	.cfi_offset 16, -76
	sd r22, -80, d16
	.cfi_offset 19, -88
	.cfi_offset 18, -84
	sd r22, -88, d18
	.cfi_offset 21, -96
	.cfi_offset 20, -92
	sd r22, -96, d20
	//DEBUG_VALUE: toRep:rep <- $d0
	//DEBUG_VALUE: toRep:rep <- $d0
.Ltmp1:
	.loc	3 26 45 prologue_end            // uPIMulator_frontend/sdk/syslib/divdf3.c:26:45
	lsr.u d4, r0, 20
	.loc	3 26 36 is_stmt 0               // uPIMulator_frontend/sdk/syslib/divdf3.c:26:36
	and r4, r5, 2047
.Ltmp2:
	//DEBUG_VALUE: toRep:rep <- undef
	//DEBUG_VALUE: toRep:x <- undef
	//DEBUG_VALUE: __divdf3:aExponent <- $r4
	.loc	3 27 45 is_stmt 1               // uPIMulator_frontend/sdk/syslib/divdf3.c:27:45
	lsr.u d6, r2, 20
	.loc	3 27 36 is_stmt 0               // uPIMulator_frontend/sdk/syslib/divdf3.c:27:36
	and r5, r7, 2047
.Ltmp3:
	//DEBUG_VALUE: toRep:rep <- undef
	//DEBUG_VALUE: toRep:x <- undef
	//DEBUG_VALUE: toRep:rep <- undef
	//DEBUG_VALUE: toRep:x <- undef
	//DEBUG_VALUE: __divdf3:bExponent <- $r5
	.loc	3 28 42 is_stmt 1               // uPIMulator_frontend/sdk/syslib/divdf3.c:28:42
	xor r7, r3, r1
	xor r6, r2, r0
	.loc	3 28 54 is_stmt 0               // uPIMulator_frontend/sdk/syslib/divdf3.c:28:54
	and r17, r7, 0
	and r16, r6, 2147483648
.Ltmp4:
	//DEBUG_VALUE: toRep:rep <- undef
	//DEBUG_VALUE: toRep:x <- undef
	//DEBUG_VALUE: __divdf3:quotientSign <- $d16
	.loc	3 30 35 is_stmt 1               // uPIMulator_frontend/sdk/syslib/divdf3.c:30:35
	and r19, r1, 4294967295
	and r18, r0, 1048575
.Ltmp5:
	//DEBUG_VALUE: toRep:rep <- undef
	//DEBUG_VALUE: toRep:x <- undef
	//DEBUG_VALUE: __divdf3:aSignificand <- [DW_OP_constu 4503599627370495, DW_OP_and, DW_OP_stack_value] $d0
	.loc	3 31 35                         // uPIMulator_frontend/sdk/syslib/divdf3.c:31:35
	and r15, r3, 4294967295
	and r14, r2, 1048575
.Ltmp6:
	//DEBUG_VALUE: __divdf3:scale <- 0
	//DEBUG_VALUE: __divdf3:bSignificand <- [DW_OP_constu 4503599627370495, DW_OP_and, DW_OP_stack_value] $d2
	.loc	3 35 19                         // uPIMulator_frontend/sdk/syslib/divdf3.c:35:19
	add r6, r4, -1
	.loc	3 35 44 is_stmt 0               // uPIMulator_frontend/sdk/syslib/divdf3.c:35:44
	lsr r6, r6, 1
	jgtu r6, 1022, .LBB0_7
.Ltmp7:
// %bb.1:
	//DEBUG_VALUE: __divdf3:bExponent <- $r5
	//DEBUG_VALUE: __divdf3:aExponent <- $r4
	//DEBUG_VALUE: __divdf3:quotientSign <- $d16
	//DEBUG_VALUE: __divdf3:bSignificand <- [DW_OP_constu 4503599627370495, DW_OP_and, DW_OP_stack_value] $d2
	//DEBUG_VALUE: __divdf3:b <- $d2
	//DEBUG_VALUE: __divdf3:aSignificand <- [DW_OP_constu 4503599627370495, DW_OP_and, DW_OP_stack_value] $d0
	//DEBUG_VALUE: __divdf3:a <- $d0
	//DEBUG_VALUE: __divdf3:scale <- 0
	.loc	3 0 44                          // uPIMulator_frontend/sdk/syslib/divdf3.c:0:44
	add r7, r5, -1
	move r6, 0
	.loc	3 35 44                         // uPIMulator_frontend/sdk/syslib/divdf3.c:35:44
	lsr r7, r7, 1
	jgeu r7, 1023, .LBB0_7
.Ltmp8:
// %bb.2:
	//DEBUG_VALUE: __divdf3:bExponent <- $r5
	//DEBUG_VALUE: __divdf3:aExponent <- $r4
	//DEBUG_VALUE: __divdf3:quotientSign <- $d16
	//DEBUG_VALUE: __divdf3:bSignificand <- [DW_OP_constu 4503599627370495, DW_OP_and, DW_OP_stack_value] $d2
	//DEBUG_VALUE: __divdf3:b <- $d2
	//DEBUG_VALUE: __divdf3:aSignificand <- [DW_OP_constu 4503599627370495, DW_OP_and, DW_OP_stack_value] $d0
	//DEBUG_VALUE: __divdf3:a <- $d0
	//DEBUG_VALUE: __divdf3:scale <- 0
	sd r22, -24, d18
	sd r22, -16, d16
.Ltmp9:
.LBB0_3:
	//DEBUG_VALUE: __divdf3:bExponent <- $r5
	//DEBUG_VALUE: __divdf3:aExponent <- $r4
	//DEBUG_VALUE: __divdf3:quotientSign <- $d16
	//DEBUG_VALUE: __divdf3:aSignificand <- [DW_OP_constu 24, DW_OP_minus, DW_OP_deref_size 8, DW_OP_constu 4503599627370496, DW_OP_or, DW_OP_stack_value] $r22
	//DEBUG_VALUE: __divdf3:bSignificand <- $d14
	//DEBUG_VALUE: __divdf3:scale <- $r6
	.loc	3 85 18 is_stmt 1               // uPIMulator_frontend/sdk/syslib/divdf3.c:85:18
	or r3, r15, 0
	or r2, r14, 1048576
.Ltmp10:
	//DEBUG_VALUE: __divdf3:bSignificand <- [DW_OP_constu 4503599627370496, DW_OP_or, DW_OP_stack_value] $d14
	.loc	3 86 38                         // uPIMulator_frontend/sdk/syslib/divdf3.c:86:38
	sub r0, r4, r5
	.loc	3 86 50 is_stmt 0               // uPIMulator_frontend/sdk/syslib/divdf3.c:86:50
	add r0, r6, r0
.Ltmp11:
	//DEBUG_VALUE: __divdf3:quotientExponent <- $r0
	sw r22, -56, r0
.Ltmp12:
	//DEBUG_VALUE: __divdf3:quotientExponent <- [DW_OP_constu 56, DW_OP_minus] [$r22+0]
	.loc	3 92 40 is_stmt 1               // uPIMulator_frontend/sdk/syslib/divdf3.c:92:40
	lsrx r0, r2, 21
	lsr_add r1, r0, r3, 21
	sd r22, -64, d2
	lsr r0, r2, 21
.Ltmp13:
	//DEBUG_VALUE: __divdf3:q31b <- $r1
	.loc	3 93 45                         // uPIMulator_frontend/sdk/syslib/divdf3.c:93:45
	sub r2, 1963258675, r1
.Ltmp14:
	//DEBUG_VALUE: __divdf3:recip32 <- $r2
	.loc	3 103 22                        // uPIMulator_frontend/sdk/syslib/divdf3.c:103:22
	move.u d20, r2
	.loc	3 103 42 is_stmt 0              // uPIMulator_frontend/sdk/syslib/divdf3.c:103:42
	and r19, r1, 4294967295
	and r18, r0, 0
	.loc	3 103 40                        // uPIMulator_frontend/sdk/syslib/divdf3.c:103:40
	movd d0, d18
.Ltmp15:
	movd d2, d20
.Ltmp16:
	call r23, __muldi3
.Ltmp17:
	.loc	3 103 20                        // uPIMulator_frontend/sdk/syslib/divdf3.c:103:20
	neg r0, r0
.Ltmp18:
	//DEBUG_VALUE: __divdf3:correction32 <- $r0
	.loc	3 104 35 is_stmt 1              // uPIMulator_frontend/sdk/syslib/divdf3.c:104:35
	move.u d0, r0
.Ltmp19:
	.loc	3 104 33 is_stmt 0              // uPIMulator_frontend/sdk/syslib/divdf3.c:104:33
	movd d2, d20
	call r23, __muldi3
.Ltmp20:
	.loc	3 104 48                        // uPIMulator_frontend/sdk/syslib/divdf3.c:104:48
	lsrx r2, r0, 31
	lsr_add r3, r2, r1, 31
	lsr r2, r0, 31
.Ltmp21:
	//DEBUG_VALUE: __divdf3:recip32 <- [DW_OP_LLVM_convert 64 7, DW_OP_LLVM_convert 32 7, DW_OP_stack_value] $d2
	.loc	3 105 22 is_stmt 1              // uPIMulator_frontend/sdk/syslib/divdf3.c:105:22
	and r21, r3, 4294967295
	and r20, r2, 0
	.loc	3 105 40 is_stmt 0              // uPIMulator_frontend/sdk/syslib/divdf3.c:105:40
	movd d0, d20
	movd d2, d18
.Ltmp22:
	call r23, __muldi3
.Ltmp23:
	.loc	3 105 20                        // uPIMulator_frontend/sdk/syslib/divdf3.c:105:20
	neg r0, r0
.Ltmp24:
	//DEBUG_VALUE: __divdf3:correction32 <- $r0
	.loc	3 106 35 is_stmt 1              // uPIMulator_frontend/sdk/syslib/divdf3.c:106:35
	move.u d2, r0
	.loc	3 106 33 is_stmt 0              // uPIMulator_frontend/sdk/syslib/divdf3.c:106:33
	movd d0, d20
.Ltmp25:
	call r23, __muldi3
.Ltmp26:
	.loc	3 106 48                        // uPIMulator_frontend/sdk/syslib/divdf3.c:106:48
	lsrx r2, r0, 31
	lsr_add r3, r2, r1, 31
	lsr r2, r0, 31
.Ltmp27:
	//DEBUG_VALUE: __divdf3:recip32 <- [DW_OP_LLVM_convert 64 7, DW_OP_LLVM_convert 32 7, DW_OP_stack_value] $d2
	.loc	3 107 22 is_stmt 1              // uPIMulator_frontend/sdk/syslib/divdf3.c:107:22
	and r21, r3, 4294967295
	and r20, r2, 0
	.loc	3 107 40 is_stmt 0              // uPIMulator_frontend/sdk/syslib/divdf3.c:107:40
	movd d0, d20
	movd d2, d18
.Ltmp28:
	call r23, __muldi3
.Ltmp29:
	.loc	3 107 20                        // uPIMulator_frontend/sdk/syslib/divdf3.c:107:20
	neg r0, r0
.Ltmp30:
	//DEBUG_VALUE: __divdf3:correction32 <- $r0
	.loc	3 108 35 is_stmt 1              // uPIMulator_frontend/sdk/syslib/divdf3.c:108:35
	move.u d2, r0
	.loc	3 108 33 is_stmt 0              // uPIMulator_frontend/sdk/syslib/divdf3.c:108:33
	movd d0, d20
.Ltmp31:
	call r23, __muldi3
.Ltmp32:
	.loc	3 108 48                        // uPIMulator_frontend/sdk/syslib/divdf3.c:108:48
	lsrx r2, r0, 31
	lsr_add r3, r2, r1, 31
	lsr r2, r0, 31
.Ltmp33:
	//DEBUG_VALUE: __divdf3:recip32 <- $r3
	.loc	3 114 12 is_stmt 1              // uPIMulator_frontend/sdk/syslib/divdf3.c:114:12
	add r0, r3, -1
.Ltmp34:
	//DEBUG_VALUE: __divdf3:recip32 <- $r0
	.loc	3 118 29                        // uPIMulator_frontend/sdk/syslib/divdf3.c:118:29
	lsl r14, r15, 11
.Ltmp35:
	//DEBUG_VALUE: __divdf3:q63blo <- $r14
	.loc	3 120 20                        // uPIMulator_frontend/sdk/syslib/divdf3.c:120:20
	move.u d20, r0
	.loc	3 120 38 is_stmt 0              // uPIMulator_frontend/sdk/syslib/divdf3.c:120:38
	movd d0, d18
.Ltmp36:
	movd d2, d20
	call r23, __muldi3
.Ltmp37:
	movd d18, d0
	.loc	3 120 68                        // uPIMulator_frontend/sdk/syslib/divdf3.c:120:68
	move.u d2, r14
	.loc	3 120 66                        // uPIMulator_frontend/sdk/syslib/divdf3.c:120:66
	movd d0, d20
	call r23, __muldi3
.Ltmp38:
	.loc	3 120 75                        // uPIMulator_frontend/sdk/syslib/divdf3.c:120:75
	move.u d0, r0
	.loc	3 120 45                        // uPIMulator_frontend/sdk/syslib/divdf3.c:120:45
	add r1, r19, r1
	addc r0, r18, r0
	move.s d2, 0
	sd r22, -48, d2
	.loc	3 120 18                        // uPIMulator_frontend/sdk/syslib/divdf3.c:120:18
	sub r15, r3, r1
	subc r14, r2, r0
.Ltmp39:
	//DEBUG_VALUE: __divdf3:correction <- $d14
	.loc	3 121 31 is_stmt 1              // uPIMulator_frontend/sdk/syslib/divdf3.c:121:31
	move.u d0, r14
.Ltmp40:
	//DEBUG_VALUE: __divdf3:cLo <- [DW_OP_LLVM_convert 64 7, DW_OP_LLVM_convert 32 7, DW_OP_stack_value] $d14
	//DEBUG_VALUE: __divdf3:cHi <- [DW_OP_LLVM_convert 64 7, DW_OP_LLVM_convert 32 7, DW_OP_stack_value] $d0
	.loc	3 123 36                        // uPIMulator_frontend/sdk/syslib/divdf3.c:123:36
	movd d2, d20
	call r23, __muldi3
.Ltmp41:
	movd d18, d0
	.loc	3 123 65 is_stmt 0              // uPIMulator_frontend/sdk/syslib/divdf3.c:123:65
	and r1, r15, 4294967295
.Ltmp42:
	and r0, r14, 0
	.loc	3 123 63                        // uPIMulator_frontend/sdk/syslib/divdf3.c:123:63
	movd d2, d20
	call r23, __muldi3
.Ltmp43:
	.loc	3 123 69                        // uPIMulator_frontend/sdk/syslib/divdf3.c:123:69
	move.u d0, r0
.Ltmp44:
	//DEBUG_VALUE: __divdf3:reciprocal <- undef
	.loc	3 123 42                        // uPIMulator_frontend/sdk/syslib/divdf3.c:123:42
	add r1, r19, r1
	addc r0, r18, r0
	.loc	3 130 16 is_stmt 1              // uPIMulator_frontend/sdk/syslib/divdf3.c:130:16
	add r15, r1, 4294967294
.Ltmp45:
	addc r14, r0, 4294967295
.Ltmp46:
	//DEBUG_VALUE: __divdf3:reciprocal <- $d14
	.loc	3 0 16 is_stmt 0                // uPIMulator_frontend/sdk/syslib/divdf3.c:0:16
	ld d16, r22, -24
.Ltmp47:
	//DEBUG_VALUE: __divdf3:aSignificand <- [DW_OP_constu 4503599627370496, DW_OP_or, DW_OP_stack_value] $d16
	.loc	3 145 31 is_stmt 1              // uPIMulator_frontend/sdk/syslib/divdf3.c:145:31
	lslx r0, r17, 2
	lsl_add r0, r0, r16, 2
	lsl r1, r17, 2
.Ltmp48:
	//DEBUG_VALUE: wideMultiply:b <- $d14
	//DEBUG_VALUE: wideMultiply:lo <- undef
	//DEBUG_VALUE: wideMultiply:hi <- undef
	//DEBUG_VALUE: wideMultiply:a <- [DW_OP_constu 2, DW_OP_shl, DW_OP_stack_value] $d16
	.loc	2 97 28                         // uPIMulator_frontend/sdk/syslib/fp_lib.h:97:28
	and r19, r1, 4294967292
	and r18, r0, 0
	.loc	2 97 40 is_stmt 0               // uPIMulator_frontend/sdk/syslib/fp_lib.h:97:40
	and r21, r15, 4294967295
	and r20, r14, 0
	.loc	2 97 38                         // uPIMulator_frontend/sdk/syslib/fp_lib.h:97:38
	movd d0, d20
	movd d2, d18
	call r23, __muldi3
.Ltmp49:
	sd r22, -40, d0
.Ltmp50:
	//DEBUG_VALUE: wideMultiply:r0 <- [DW_OP_constu 40, DW_OP_minus, DW_OP_deref_size 8, DW_OP_constu 4294967295, DW_OP_and, DW_OP_stack_value] $r22
	//DEBUG_VALUE: wideMultiply:plolo <- [DW_OP_constu 40, DW_OP_minus] [$r22+0]
	.loc	2 98 40 is_stmt 1               // uPIMulator_frontend/sdk/syslib/fp_lib.h:98:40
	move.u d0, r14
	sd r22, -32, d0
	.loc	2 98 38 is_stmt 0               // uPIMulator_frontend/sdk/syslib/fp_lib.h:98:38
	movd d2, d18
	call r23, __muldi3
.Ltmp51:
	movd d18, d0
.Ltmp52:
	//DEBUG_VALUE: wideMultiply:plohi <- $d18
	.loc	2 99 28 is_stmt 1               // uPIMulator_frontend/sdk/syslib/fp_lib.h:99:28
	lsrx r0, r16, 30
	lsr_add r1, r0, r17, 30
	lsr r0, r16, 30
	and r1, r1, 4290772991
	and r0, r0, 0
	or r15, r1, 4194304
.Ltmp53:
	or r14, r0, 0
	.loc	2 99 38 is_stmt 0               // uPIMulator_frontend/sdk/syslib/fp_lib.h:99:38
	movd d0, d20
	movd d2, d14
	call r23, __muldi3
.Ltmp54:
	movd d20, d0
.Ltmp55:
	//DEBUG_VALUE: wideMultiply:philo <- $d20
	.loc	2 100 38 is_stmt 1              // uPIMulator_frontend/sdk/syslib/fp_lib.h:100:38
	ld d0, r22, -32
	movd d2, d14
	call r23, __muldi3
.Ltmp56:
	//DEBUG_VALUE: wideMultiply:phihi <- $d0
	.loc	2 103 25                        // uPIMulator_frontend/sdk/syslib/fp_lib.h:103:25
	ld d2, r22, -40
.Ltmp57:
	//DEBUG_VALUE: wideMultiply:r0 <- [DW_OP_constu 4294967295, DW_OP_and, DW_OP_stack_value] $d2
	//DEBUG_VALUE: wideMultiply:plolo <- $d2
	move.u d2, r2
.Ltmp58:
	.loc	2 103 41 is_stmt 0              // uPIMulator_frontend/sdk/syslib/fp_lib.h:103:41
	and r5, r19, 4294967292
.Ltmp59:
	and r4, r18, 0
.Ltmp60:
	.loc	2 103 39                        // uPIMulator_frontend/sdk/syslib/fp_lib.h:103:39
	add r3, r3, r5
	addc r2, r2, r4
	.loc	2 103 57                        // uPIMulator_frontend/sdk/syslib/fp_lib.h:103:57
	and r5, r21, 4294967295
	and r4, r20, 0
	.loc	2 103 55                        // uPIMulator_frontend/sdk/syslib/fp_lib.h:103:55
	add r3, r3, r5
	addc r2, r2, r4
.Ltmp61:
	//DEBUG_VALUE: wideMultiply:r1 <- $d2
	.loc	2 106 11 is_stmt 1              // uPIMulator_frontend/sdk/syslib/fp_lib.h:106:11
	move.u d4, r18
	.loc	2 106 27 is_stmt 0              // uPIMulator_frontend/sdk/syslib/fp_lib.h:106:27
	move.u d6, r20
.Ltmp62:
	.loc	2 106 43                        // uPIMulator_frontend/sdk/syslib/fp_lib.h:106:43
	move.u d2, r2
.Ltmp63:
	.loc	2 106 25                        // uPIMulator_frontend/sdk/syslib/fp_lib.h:106:25
	add r1, r7, r1
.Ltmp64:
	addc r0, r6, r0
	.loc	2 106 41                        // uPIMulator_frontend/sdk/syslib/fp_lib.h:106:41
	add r1, r1, r5
	addc r0, r0, r4
	.loc	2 106 54                        // uPIMulator_frontend/sdk/syslib/fp_lib.h:106:54
	add r19, r1, r3
.Ltmp65:
	addc r18, r0, r2
.Ltmp66:
	//DEBUG_VALUE: __divdf3:quotient <- $d18
	.loc	3 161 9 is_stmt 1               // uPIMulator_frontend/sdk/syslib/divdf3.c:161:9
	lsr.u d0, r18, 21
	ld d2, r22, -48
	jneq r1, r3, .LBB0_9
.Ltmp67:
// %bb.40:
	jneq r0, r2, .LBB0_9
// %bb.41:
// %bb.4:
.Ltmp68:
	//DEBUG_VALUE: __divdf3:quotientExponent <- [DW_OP_constu 56, DW_OP_minus] [$r22+0]
	//DEBUG_VALUE: __divdf3:quotient <- $d18
	//DEBUG_VALUE: __divdf3:aSignificand <- [DW_OP_constu 4503599627370496, DW_OP_or, DW_OP_stack_value] $d16
	//DEBUG_VALUE: __divdf3:aSignificand <- [DW_OP_constu 4503599627370496, DW_OP_or, DW_OP_stack_value] $d16
	.loc	3 162 34                        // uPIMulator_frontend/sdk/syslib/divdf3.c:162:34
	move r15, 0
	lsl r14, r17, 21
.Ltmp69:
	//DEBUG_VALUE: __divdf3:bSignificand <- [DW_OP_constu 64, DW_OP_minus] [$r22+0]
	.loc	3 162 52 is_stmt 0              // uPIMulator_frontend/sdk/syslib/divdf3.c:162:52
	movd d0, d18
	ld d16, r22, -64
.Ltmp70:
	//DEBUG_VALUE: __divdf3:bSignificand <- $d16
	movd d2, d16
	call r23, __muldi3
.Ltmp71:
	.loc	3 162 41                        // uPIMulator_frontend/sdk/syslib/divdf3.c:162:41
	sub r1, r15, r1
	subc r0, r14, r0
.Ltmp72:
	//DEBUG_VALUE: __divdf3:residual <- $d0
	.loc	3 0 41                          // uPIMulator_frontend/sdk/syslib/divdf3.c:0:41
	lw r3, r22, -56
	.loc	3 163 25 is_stmt 1              // uPIMulator_frontend/sdk/syslib/divdf3.c:163:25
	add r3, r3, -1
.Ltmp73:
	//DEBUG_VALUE: __divdf3:quotientExponent <- $r3
	//DEBUG_VALUE: __divdf3:quotientExponent <- $r3
	//DEBUG_VALUE: __divdf3:bSignificand <- $d16
	//DEBUG_VALUE: __divdf3:quotientExponent <- $r3
	//DEBUG_VALUE: __divdf3:residual <- $d0
	//DEBUG_VALUE: __divdf3:writtenExponent <- undef
	.loc	3 0 25 is_stmt 0                // uPIMulator_frontend/sdk/syslib/divdf3.c:0:25
	move r2, 1024
.Ltmp74:
	.loc	3 171 9 is_stmt 1               // uPIMulator_frontend/sdk/syslib/divdf3.c:171:9
	jges r3, r2, .LBB0_10
.Ltmp75:
.LBB0_5:
	//DEBUG_VALUE: __divdf3:quotientExponent <- $r3
	//DEBUG_VALUE: __divdf3:quotient <- $d18
	//DEBUG_VALUE: __divdf3:bSignificand <- $d16
	//DEBUG_VALUE: __divdf3:residual <- $d0
	//DEBUG_VALUE: __divdf3:writtenExponent <- undef
	.loc	3 176 14                        // uPIMulator_frontend/sdk/syslib/divdf3.c:176:14
	jgts r3, -1023, .LBB0_13
.Ltmp76:
// %bb.6:
	//DEBUG_VALUE: __divdf3:quotientExponent <- $r3
	//DEBUG_VALUE: __divdf3:quotient <- $d18
	//DEBUG_VALUE: __divdf3:bSignificand <- $d16
	//DEBUG_VALUE: __divdf3:residual <- $d0
	//DEBUG_VALUE: fromRep:x <- [DW_OP_constu 16, DW_OP_minus] [$r22+0]
	//DEBUG_VALUE: fromRep:rep <- undef
	.loc	3 0 14 is_stmt 0                // uPIMulator_frontend/sdk/syslib/divdf3.c:0:14
	ld d16, r22, -16
.Ltmp77:
	//DEBUG_VALUE: fromRep:x <- $d16
	jump .LBB0_24
.Ltmp78:
.LBB0_7:
	//DEBUG_VALUE: __divdf3:bExponent <- $r5
	//DEBUG_VALUE: __divdf3:aExponent <- $r4
	//DEBUG_VALUE: __divdf3:quotientSign <- $d16
	//DEBUG_VALUE: __divdf3:bSignificand <- [DW_OP_constu 4503599627370495, DW_OP_and, DW_OP_stack_value] $d2
	//DEBUG_VALUE: __divdf3:b <- $d2
	//DEBUG_VALUE: __divdf3:aSignificand <- [DW_OP_constu 4503599627370495, DW_OP_and, DW_OP_stack_value] $d0
	//DEBUG_VALUE: __divdf3:a <- $d0
	//DEBUG_VALUE: __divdf3:scale <- 0
	.loc	3 37 37 is_stmt 1               // uPIMulator_frontend/sdk/syslib/divdf3.c:37:37
	and r7, r1, 4294967295
	and r6, r0, 2147483647
.Ltmp79:
	//DEBUG_VALUE: bAbs <- undef
	//DEBUG_VALUE: toRep:rep <- undef
	//DEBUG_VALUE: toRep:x <- undef
	//DEBUG_VALUE: aAbs <- $d6
	.loc	3 0 37 is_stmt 0                // uPIMulator_frontend/sdk/syslib/divdf3.c:0:37
	move r11, 1
	move r10, 2146435072
.Ltmp80:
	//DEBUG_VALUE: toRep:rep <- undef
	//DEBUG_VALUE: toRep:x <- undef
	.loc	3 41 13 is_stmt 1               // uPIMulator_frontend/sdk/syslib/divdf3.c:41:13
	sub zero, r7, r11
	subc zero, r6, r10, ltu, .LBB0_11
.Ltmp81:
// %bb.8:
	//DEBUG_VALUE: __divdf3:bExponent <- $r5
	//DEBUG_VALUE: __divdf3:aExponent <- $r4
	//DEBUG_VALUE: __divdf3:quotientSign <- $d16
	//DEBUG_VALUE: aAbs <- $d6
	//DEBUG_VALUE: __divdf3:bSignificand <- [DW_OP_constu 4503599627370495, DW_OP_and, DW_OP_stack_value] $d2
	//DEBUG_VALUE: __divdf3:b <- $d2
	//DEBUG_VALUE: __divdf3:aSignificand <- [DW_OP_constu 4503599627370495, DW_OP_and, DW_OP_stack_value] $d0
	//DEBUG_VALUE: __divdf3:a <- $d0
	//DEBUG_VALUE: __divdf3:scale <- 0
	.loc	3 42 37                         // uPIMulator_frontend/sdk/syslib/divdf3.c:42:37
	or r17, r1, 0
.Ltmp82:
	or r16, r0, 524288
.Ltmp83:
	//DEBUG_VALUE: toRep:rep <- undef
	//DEBUG_VALUE: toRep:x <- undef
	//DEBUG_VALUE: fromRep:rep <- undef
	//DEBUG_VALUE: fromRep:x <- $d16
	.loc	3 0 37 is_stmt 0                // uPIMulator_frontend/sdk/syslib/divdf3.c:0:37
	jump .LBB0_24
.Ltmp84:
.LBB0_9:
	//DEBUG_VALUE: __divdf3:quotientExponent <- [DW_OP_constu 56, DW_OP_minus] [$r22+0]
	//DEBUG_VALUE: __divdf3:quotient <- $d18
	//DEBUG_VALUE: __divdf3:aSignificand <- [DW_OP_constu 4503599627370496, DW_OP_or, DW_OP_stack_value] $d16
	.loc	3 165 18 is_stmt 1              // uPIMulator_frontend/sdk/syslib/divdf3.c:165:18
	lsrx r0, r18, 1
	lsr_add r19, r0, r19, 1
.Ltmp85:
	lsr r18, r18, 1
.Ltmp86:
	//DEBUG_VALUE: __divdf3:quotient <- $d18
	//DEBUG_VALUE: __divdf3:aSignificand <- [DW_OP_constu 4503599627370496, DW_OP_or, DW_OP_stack_value] $d16
	.loc	3 166 34                        // uPIMulator_frontend/sdk/syslib/divdf3.c:166:34
	move r15, 0
	lsl r14, r17, 20
.Ltmp87:
	//DEBUG_VALUE: __divdf3:bSignificand <- [DW_OP_constu 64, DW_OP_minus] [$r22+0]
	.loc	3 166 52 is_stmt 0              // uPIMulator_frontend/sdk/syslib/divdf3.c:166:52
	movd d0, d18
	ld d16, r22, -64
.Ltmp88:
	//DEBUG_VALUE: __divdf3:bSignificand <- $d16
	movd d2, d16
	call r23, __muldi3
.Ltmp89:
	.loc	3 166 41                        // uPIMulator_frontend/sdk/syslib/divdf3.c:166:41
	sub r1, r15, r1
	subc r0, r14, r0
.Ltmp90:
	//DEBUG_VALUE: __divdf3:residual <- $d0
	//DEBUG_VALUE: __divdf3:bSignificand <- $d16
	.loc	3 0 41                          // uPIMulator_frontend/sdk/syslib/divdf3.c:0:41
	lw r3, r22, -56
.Ltmp91:
	//DEBUG_VALUE: __divdf3:quotientExponent <- $r3
	//DEBUG_VALUE: __divdf3:residual <- $d0
	//DEBUG_VALUE: __divdf3:writtenExponent <- undef
	move r2, 1024
.Ltmp92:
	.loc	3 171 9 is_stmt 1               // uPIMulator_frontend/sdk/syslib/divdf3.c:171:9
	jlts r3, r2, .LBB0_5
.Ltmp93:
.LBB0_10:
	//DEBUG_VALUE: __divdf3:quotientExponent <- $r3
	//DEBUG_VALUE: __divdf3:quotient <- $d18
	//DEBUG_VALUE: __divdf3:bSignificand <- $d16
	//DEBUG_VALUE: __divdf3:residual <- $d0
	.loc	3 0 9 is_stmt 0                 // uPIMulator_frontend/sdk/syslib/divdf3.c:0:9
	ld d16, r22, -16
.Ltmp94:
.LBB0_23:
	or r17, r17, 0
	or r16, r16, 2146435072
.Ltmp95:
	//DEBUG_VALUE: fromRep:rep <- undef
	//DEBUG_VALUE: fromRep:x <- $d16
	jump .LBB0_24
.Ltmp96:
.LBB0_11:
	//DEBUG_VALUE: __divdf3:bExponent <- $r5
	//DEBUG_VALUE: __divdf3:aExponent <- $r4
	//DEBUG_VALUE: __divdf3:quotientSign <- $d16
	//DEBUG_VALUE: aAbs <- $d6
	//DEBUG_VALUE: __divdf3:bSignificand <- [DW_OP_constu 4503599627370495, DW_OP_and, DW_OP_stack_value] $d2
	//DEBUG_VALUE: __divdf3:b <- $d2
	//DEBUG_VALUE: __divdf3:aSignificand <- [DW_OP_constu 4503599627370495, DW_OP_and, DW_OP_stack_value] $d0
	//DEBUG_VALUE: __divdf3:a <- $d0
	//DEBUG_VALUE: __divdf3:scale <- 0
	and r9, r3, 4294967295
	and r8, r2, 2147483647
.Ltmp97:
	//DEBUG_VALUE: bAbs <- $d8
	.loc	3 44 13 is_stmt 1               // uPIMulator_frontend/sdk/syslib/divdf3.c:44:13
	sub zero, r9, r11
	subc zero, r8, r10, ltu, .LBB0_14
.Ltmp98:
// %bb.12:
	//DEBUG_VALUE: __divdf3:bExponent <- $r5
	//DEBUG_VALUE: __divdf3:aExponent <- $r4
	//DEBUG_VALUE: __divdf3:quotientSign <- $d16
	//DEBUG_VALUE: bAbs <- $d8
	//DEBUG_VALUE: aAbs <- $d6
	//DEBUG_VALUE: __divdf3:bSignificand <- [DW_OP_constu 4503599627370495, DW_OP_and, DW_OP_stack_value] $d2
	//DEBUG_VALUE: __divdf3:b <- $d2
	//DEBUG_VALUE: __divdf3:aSignificand <- [DW_OP_constu 4503599627370495, DW_OP_and, DW_OP_stack_value] $d0
	//DEBUG_VALUE: __divdf3:a <- $d0
	//DEBUG_VALUE: __divdf3:scale <- 0
	.loc	3 45 37                         // uPIMulator_frontend/sdk/syslib/divdf3.c:45:37
	or r17, r3, 0
.Ltmp99:
	or r16, r2, 524288
.Ltmp100:
	//DEBUG_VALUE: toRep:rep <- undef
	//DEBUG_VALUE: toRep:x <- undef
	//DEBUG_VALUE: fromRep:rep <- undef
	//DEBUG_VALUE: fromRep:x <- $d16
	.loc	3 0 37 is_stmt 0                // uPIMulator_frontend/sdk/syslib/divdf3.c:0:37
	jump .LBB0_24
.Ltmp101:
.LBB0_13:
	//DEBUG_VALUE: __divdf3:quotientExponent <- $r3
	//DEBUG_VALUE: __divdf3:quotient <- $d18
	//DEBUG_VALUE: __divdf3:bSignificand <- $d16
	//DEBUG_VALUE: __divdf3:residual <- $d0
	add r2, r3, 1023
.Ltmp102:
	//DEBUG_VALUE: __divdf3:writtenExponent <- $r2
	.loc	3 183 38 is_stmt 1              // uPIMulator_frontend/sdk/syslib/divdf3.c:183:38
	lslx r3, r1, 1
.Ltmp103:
	lsl_add r4, r3, r0, 1
	lsl r5, r1, 1
	//DEBUG_VALUE: __divdf3:bSignificand <- $d16
	.loc	3 183 44 is_stmt 0              // uPIMulator_frontend/sdk/syslib/divdf3.c:183:44
	sub zero, r5, r17
	subc r0, r4, r16, xgtu
.Ltmp104:
	//DEBUG_VALUE: round <- [DW_OP_LLVM_convert 1 7, DW_OP_LLVM_convert 8 7, DW_OP_stack_value] $r0
	//DEBUG_VALUE: __divdf3:quotient <- $d18
	.loc	3 185 36 is_stmt 1              // uPIMulator_frontend/sdk/syslib/divdf3.c:185:36
	and r5, r19, 4294967295
	and r4, r18, 1048575
.Ltmp105:
	//DEBUG_VALUE: absResult <- $d4
	.loc	3 187 22                        // uPIMulator_frontend/sdk/syslib/divdf3.c:187:22
	move.s d2, r2
.Ltmp106:
	.loc	3 187 45 is_stmt 0              // uPIMulator_frontend/sdk/syslib/divdf3.c:187:45
	move r7, 0
	lsl r6, r3, 20
.Ltmp107:
	//DEBUG_VALUE: absResult <- undef
	.loc	3 189 22 is_stmt 1              // uPIMulator_frontend/sdk/syslib/divdf3.c:189:22
	move.u d0, r0
.Ltmp108:
	.loc	3 187 19                        // uPIMulator_frontend/sdk/syslib/divdf3.c:187:19
	add r1, r5, r1
	addc r0, r4, r0
	.loc	3 189 19                        // uPIMulator_frontend/sdk/syslib/divdf3.c:189:19
	add r1, r1, r7
	addc r0, r0, r6
.Ltmp109:
	//DEBUG_VALUE: absResult <- $d0
	.loc	3 0 19 is_stmt 0                // uPIMulator_frontend/sdk/syslib/divdf3.c:0:19
	ld d16, r22, -16
.Ltmp110:
	.loc	3 191 49 is_stmt 1              // uPIMulator_frontend/sdk/syslib/divdf3.c:191:49
	or r17, r1, r17
	or r16, r0, r16
.Ltmp111:
	//DEBUG_VALUE: result <- undef
	//DEBUG_VALUE: fromRep:rep <- undef
	//DEBUG_VALUE: fromRep:x <- $d16
	.loc	3 0 49 is_stmt 0                // uPIMulator_frontend/sdk/syslib/divdf3.c:0:49
	jump .LBB0_24
.Ltmp112:
.LBB0_14:
	//DEBUG_VALUE: __divdf3:bExponent <- $r5
	//DEBUG_VALUE: __divdf3:aExponent <- $r4
	//DEBUG_VALUE: __divdf3:quotientSign <- $d16
	//DEBUG_VALUE: bAbs <- $d8
	//DEBUG_VALUE: aAbs <- $d6
	//DEBUG_VALUE: __divdf3:bSignificand <- [DW_OP_constu 4503599627370495, DW_OP_and, DW_OP_stack_value] $d2
	//DEBUG_VALUE: __divdf3:b <- $d2
	//DEBUG_VALUE: __divdf3:aSignificand <- [DW_OP_constu 4503599627370495, DW_OP_and, DW_OP_stack_value] $d0
	//DEBUG_VALUE: __divdf3:a <- $d0
	//DEBUG_VALUE: __divdf3:scale <- 0
	move r11, 0
	move r10, 2146435072
.Ltmp113:
	.loc	3 47 13 is_stmt 1               // uPIMulator_frontend/sdk/syslib/divdf3.c:47:13
	jneq r7, r11, .LBB0_17
.Ltmp114:
// %bb.42:
	jneq r6, r10, .LBB0_17
// %bb.43:
// %bb.15:
.Ltmp115:
	//DEBUG_VALUE: __divdf3:bExponent <- $r5
	//DEBUG_VALUE: __divdf3:aExponent <- $r4
	//DEBUG_VALUE: __divdf3:quotientSign <- $d16
	//DEBUG_VALUE: bAbs <- $d8
	//DEBUG_VALUE: aAbs <- $d6
	//DEBUG_VALUE: __divdf3:bSignificand <- [DW_OP_constu 4503599627370495, DW_OP_and, DW_OP_stack_value] $d2
	//DEBUG_VALUE: __divdf3:b <- $d2
	//DEBUG_VALUE: __divdf3:aSignificand <- [DW_OP_constu 4503599627370495, DW_OP_and, DW_OP_stack_value] $d0
	//DEBUG_VALUE: __divdf3:a <- $d0
	//DEBUG_VALUE: __divdf3:scale <- 0
	.loc	3 49 17                         // uPIMulator_frontend/sdk/syslib/divdf3.c:49:17
	jneq r9, r11, .LBB0_23
.Ltmp116:
// %bb.44:
	jneq r8, r10, .LBB0_23
.Ltmp117:
// %bb.45:
.LBB0_16:
	//DEBUG_VALUE: __divdf3:bExponent <- $r5
	//DEBUG_VALUE: __divdf3:aExponent <- $r4
	//DEBUG_VALUE: __divdf3:quotientSign <- $d16
	//DEBUG_VALUE: bAbs <- $d8
	//DEBUG_VALUE: aAbs <- $d6
	//DEBUG_VALUE: __divdf3:bSignificand <- [DW_OP_constu 4503599627370495, DW_OP_and, DW_OP_stack_value] $d2
	//DEBUG_VALUE: __divdf3:b <- $d2
	//DEBUG_VALUE: __divdf3:aSignificand <- [DW_OP_constu 4503599627370495, DW_OP_and, DW_OP_stack_value] $d0
	//DEBUG_VALUE: __divdf3:a <- $d0
	//DEBUG_VALUE: __divdf3:scale <- 0
	.loc	3 0 17 is_stmt 0                // uPIMulator_frontend/sdk/syslib/divdf3.c:0:17
	move r17, 0
.Ltmp118:
	move r16, 2146959360
	jump .LBB0_24
.Ltmp119:
.LBB0_17:
	//DEBUG_VALUE: __divdf3:bExponent <- $r5
	//DEBUG_VALUE: __divdf3:aExponent <- $r4
	//DEBUG_VALUE: __divdf3:quotientSign <- $d16
	//DEBUG_VALUE: bAbs <- $d8
	//DEBUG_VALUE: aAbs <- $d6
	//DEBUG_VALUE: __divdf3:bSignificand <- [DW_OP_constu 4503599627370495, DW_OP_and, DW_OP_stack_value] $d2
	//DEBUG_VALUE: __divdf3:b <- $d2
	//DEBUG_VALUE: __divdf3:aSignificand <- [DW_OP_constu 4503599627370495, DW_OP_and, DW_OP_stack_value] $d0
	//DEBUG_VALUE: __divdf3:a <- $d0
	//DEBUG_VALUE: __divdf3:scale <- 0
	.loc	3 57 13 is_stmt 1               // uPIMulator_frontend/sdk/syslib/divdf3.c:57:13
	jneq r9, r11, .LBB0_18
.Ltmp120:
// %bb.46:
	jneq r8, r10, .LBB0_18
.Ltmp121:
// %bb.47:
.LBB0_24:
	.loc	3 0 0 is_stmt 0                 // uPIMulator_frontend/sdk/syslib/divdf3.c:0:0
	movd d0, d16
	ld d20, r22, -96
	ld d18, r22, -88
	ld d16, r22, -80
	ld d14, r22, -72
	ld d22, r22, -8
	jump r23
.LBB0_18:
.Ltmp122:
	//DEBUG_VALUE: __divdf3:bExponent <- $r5
	//DEBUG_VALUE: __divdf3:aExponent <- $r4
	//DEBUG_VALUE: __divdf3:quotientSign <- $d16
	//DEBUG_VALUE: bAbs <- $d8
	//DEBUG_VALUE: aAbs <- $d6
	//DEBUG_VALUE: __divdf3:bSignificand <- [DW_OP_constu 4503599627370495, DW_OP_and, DW_OP_stack_value] $d2
	//DEBUG_VALUE: __divdf3:b <- $d2
	//DEBUG_VALUE: __divdf3:aSignificand <- [DW_OP_constu 4503599627370495, DW_OP_and, DW_OP_stack_value] $d0
	//DEBUG_VALUE: __divdf3:a <- $d0
	//DEBUG_VALUE: __divdf3:scale <- 0
	move.s d10, 0
.Ltmp123:
	.loc	3 60 13 is_stmt 1               // uPIMulator_frontend/sdk/syslib/divdf3.c:60:13
	jneq r7, r11, .LBB0_49
.Ltmp124:
// %bb.48:
	jeq r6, r10, .LBB0_25
.LBB0_49:
// %bb.19:
.Ltmp125:
	//DEBUG_VALUE: __divdf3:bExponent <- $r5
	//DEBUG_VALUE: __divdf3:aExponent <- $r4
	//DEBUG_VALUE: __divdf3:quotientSign <- $d16
	//DEBUG_VALUE: bAbs <- $d8
	//DEBUG_VALUE: aAbs <- $d6
	//DEBUG_VALUE: __divdf3:bSignificand <- [DW_OP_constu 4503599627370495, DW_OP_and, DW_OP_stack_value] $d2
	//DEBUG_VALUE: __divdf3:b <- $d2
	//DEBUG_VALUE: __divdf3:aSignificand <- [DW_OP_constu 4503599627370495, DW_OP_and, DW_OP_stack_value] $d0
	//DEBUG_VALUE: __divdf3:a <- $d0
	//DEBUG_VALUE: __divdf3:scale <- 0
	.loc	3 69 13                         // uPIMulator_frontend/sdk/syslib/divdf3.c:69:13
	jneq r9, r11, .LBB0_51
.Ltmp126:
// %bb.50:
	jeq r8, r10, .LBB0_23
.LBB0_51:
// %bb.20:
.Ltmp127:
	//DEBUG_VALUE: __divdf3:bExponent <- $r5
	//DEBUG_VALUE: __divdf3:aExponent <- $r4
	//DEBUG_VALUE: __divdf3:quotientSign <- $d16
	//DEBUG_VALUE: bAbs <- $d8
	//DEBUG_VALUE: aAbs <- $d6
	//DEBUG_VALUE: __divdf3:bSignificand <- [DW_OP_constu 4503599627370495, DW_OP_and, DW_OP_stack_value] $d2
	//DEBUG_VALUE: __divdf3:b <- $d2
	//DEBUG_VALUE: __divdf3:aSignificand <- [DW_OP_constu 4503599627370495, DW_OP_and, DW_OP_stack_value] $d0
	//DEBUG_VALUE: __divdf3:a <- $d0
	//DEBUG_VALUE: __divdf3:scale <- 0
	.loc	3 75 13                         // uPIMulator_frontend/sdk/syslib/divdf3.c:75:13
	lsr.u d12, r6, 20
	move.s d10, 0
	move r6, 0
.Ltmp128:
	jneq r13, r11, .LBB0_32
.Ltmp129:
// %bb.52:
	jneq r12, r10, .LBB0_32
// %bb.53:
// %bb.21:
.Ltmp130:
	//DEBUG_VALUE: __divdf3:bExponent <- $r5
	//DEBUG_VALUE: __divdf3:aExponent <- $r4
	//DEBUG_VALUE: __divdf3:quotientSign <- $d16
	//DEBUG_VALUE: bAbs <- $d8
	//DEBUG_VALUE: __divdf3:bSignificand <- [DW_OP_constu 4503599627370495, DW_OP_and, DW_OP_stack_value] $d2
	//DEBUG_VALUE: __divdf3:b <- $d2
	//DEBUG_VALUE: __divdf3:aSignificand <- [DW_OP_constu 4503599627370495, DW_OP_and, DW_OP_stack_value] $d0
	//DEBUG_VALUE: __divdf3:a <- $d0
	//DEBUG_VALUE: __divdf3:scale <- 0
	//DEBUG_VALUE: normalize:significand <- undef
	//DEBUG_VALUE: rep_clz:a <- [DW_OP_constu 4503599627370495, DW_OP_and, DW_OP_stack_value] $d0
	.loc	2 80 9                          // uPIMulator_frontend/sdk/syslib/fp_lib.h:80:9
	move.u d6, r18
	jneq r7, r11, .LBB0_27
.Ltmp131:
// %bb.54:
	jneq r6, r10, .LBB0_27
.Ltmp132:
// %bb.55:
// %bb.22:
	//DEBUG_VALUE: __divdf3:bExponent <- $r5
	//DEBUG_VALUE: __divdf3:aExponent <- $r4
	//DEBUG_VALUE: __divdf3:quotientSign <- $d16
	//DEBUG_VALUE: bAbs <- $d8
	//DEBUG_VALUE: __divdf3:bSignificand <- [DW_OP_constu 4503599627370495, DW_OP_and, DW_OP_stack_value] $d2
	//DEBUG_VALUE: __divdf3:b <- $d2
	//DEBUG_VALUE: rep_clz:a <- [DW_OP_constu 4503599627370495, DW_OP_and, DW_OP_stack_value] $d0
	//DEBUG_VALUE: __divdf3:aSignificand <- [DW_OP_constu 4503599627370495, DW_OP_and, DW_OP_stack_value] $d0
	//DEBUG_VALUE: __divdf3:a <- $d0
	//DEBUG_VALUE: __divdf3:scale <- 0
	.loc	2 0 9 is_stmt 0                 // uPIMulator_frontend/sdk/syslib/fp_lib.h:0:9
	clz r0, r1
.Ltmp133:
	or r0, r0, 32, true, .LBB0_28
.Ltmp134:
.LBB0_25:
	//DEBUG_VALUE: __divdf3:bExponent <- $r5
	//DEBUG_VALUE: __divdf3:aExponent <- $r4
	//DEBUG_VALUE: __divdf3:quotientSign <- $d16
	//DEBUG_VALUE: bAbs <- $d8
	//DEBUG_VALUE: aAbs <- $d6
	//DEBUG_VALUE: __divdf3:bSignificand <- [DW_OP_constu 4503599627370495, DW_OP_and, DW_OP_stack_value] $d2
	//DEBUG_VALUE: __divdf3:b <- $d2
	//DEBUG_VALUE: __divdf3:aSignificand <- [DW_OP_constu 4503599627370495, DW_OP_and, DW_OP_stack_value] $d0
	//DEBUG_VALUE: __divdf3:a <- $d0
	//DEBUG_VALUE: __divdf3:scale <- 0
	jneq r9, r11, .LBB0_24
.Ltmp135:
// %bb.56:
	jneq r8, r10, .LBB0_24
// %bb.57:
	jump .LBB0_16
.LBB0_27:
.Ltmp136:
	//DEBUG_VALUE: __divdf3:bExponent <- $r5
	//DEBUG_VALUE: __divdf3:aExponent <- $r4
	//DEBUG_VALUE: __divdf3:quotientSign <- $d16
	//DEBUG_VALUE: bAbs <- $d8
	//DEBUG_VALUE: __divdf3:bSignificand <- [DW_OP_constu 4503599627370495, DW_OP_and, DW_OP_stack_value] $d2
	//DEBUG_VALUE: __divdf3:b <- $d2
	//DEBUG_VALUE: rep_clz:a <- [DW_OP_constu 4503599627370495, DW_OP_and, DW_OP_stack_value] $d0
	//DEBUG_VALUE: __divdf3:aSignificand <- [DW_OP_constu 4503599627370495, DW_OP_and, DW_OP_stack_value] $d0
	//DEBUG_VALUE: __divdf3:a <- $d0
	//DEBUG_VALUE: __divdf3:scale <- 0
	clz r0, r18
.Ltmp137:
.LBB0_28:
	//DEBUG_VALUE: __divdf3:bExponent <- $r5
	//DEBUG_VALUE: __divdf3:aExponent <- $r4
	//DEBUG_VALUE: __divdf3:quotientSign <- $d16
	//DEBUG_VALUE: bAbs <- $d8
	//DEBUG_VALUE: __divdf3:bSignificand <- [DW_OP_constu 4503599627370495, DW_OP_and, DW_OP_stack_value] $d2
	//DEBUG_VALUE: __divdf3:b <- $d2
	//DEBUG_VALUE: __divdf3:scale <- 0
	//DEBUG_VALUE: rep_clz:a <- 4503599627370496
	.loc	2 251 45 is_stmt 1              // uPIMulator_frontend/sdk/syslib/fp_lib.h:251:45
	add r1, r0, -11
.Ltmp138:
	//DEBUG_VALUE: normalize:shift <- $r1
	.loc	2 252 18                        // uPIMulator_frontend/sdk/syslib/fp_lib.h:252:18
	lslx r6, r19, r1, sh32, .LBB0_30
.Ltmp139:
// %bb.29:
	//DEBUG_VALUE: __divdf3:bExponent <- $r5
	//DEBUG_VALUE: __divdf3:aExponent <- $r4
	//DEBUG_VALUE: normalize:shift <- $r1
	//DEBUG_VALUE: __divdf3:quotientSign <- $d16
	//DEBUG_VALUE: bAbs <- $d8
	//DEBUG_VALUE: __divdf3:bSignificand <- [DW_OP_constu 4503599627370495, DW_OP_and, DW_OP_stack_value] $d2
	//DEBUG_VALUE: __divdf3:b <- $d2
	//DEBUG_VALUE: __divdf3:scale <- 0
	lsl r7, r18, r1
	or r18, r7, r6
	lsl r19, r19, r1, true, .LBB0_31
.Ltmp140:
.LBB0_30:
	//DEBUG_VALUE: __divdf3:bExponent <- $r5
	//DEBUG_VALUE: __divdf3:aExponent <- $r4
	//DEBUG_VALUE: normalize:shift <- $r1
	//DEBUG_VALUE: __divdf3:quotientSign <- $d16
	//DEBUG_VALUE: bAbs <- $d8
	//DEBUG_VALUE: __divdf3:bSignificand <- [DW_OP_constu 4503599627370495, DW_OP_and, DW_OP_stack_value] $d2
	//DEBUG_VALUE: __divdf3:b <- $d2
	//DEBUG_VALUE: __divdf3:scale <- 0
	lsl r18, r19, r1
	move r19, 0
.Ltmp141:
.LBB0_31:
	//DEBUG_VALUE: __divdf3:bExponent <- $r5
	//DEBUG_VALUE: __divdf3:aExponent <- $r4
	//DEBUG_VALUE: normalize:shift <- $r1
	//DEBUG_VALUE: __divdf3:quotientSign <- $d16
	//DEBUG_VALUE: bAbs <- $d8
	//DEBUG_VALUE: __divdf3:bSignificand <- [DW_OP_constu 4503599627370495, DW_OP_and, DW_OP_stack_value] $d2
	//DEBUG_VALUE: __divdf3:b <- $d2
	//DEBUG_VALUE: __divdf3:scale <- 0
	.loc	2 253 14                        // uPIMulator_frontend/sdk/syslib/fp_lib.h:253:14
	sub r6, 12, r0
.Ltmp142:
	//DEBUG_VALUE: __divdf3:scale <- $r6
.LBB0_32:
	//DEBUG_VALUE: __divdf3:bExponent <- $r5
	//DEBUG_VALUE: __divdf3:aExponent <- $r4
	//DEBUG_VALUE: __divdf3:quotientSign <- $d16
	//DEBUG_VALUE: bAbs <- $d8
	//DEBUG_VALUE: __divdf3:bSignificand <- [DW_OP_constu 4503599627370495, DW_OP_and, DW_OP_stack_value] $d2
	//DEBUG_VALUE: __divdf3:b <- $d2
	//DEBUG_VALUE: __divdf3:scale <- $r6
	.loc	3 77 13                         // uPIMulator_frontend/sdk/syslib/divdf3.c:77:13
	lsr.u d0, r8, 20
	sd r22, -16, d16
	sd r22, -24, d18
	jneq r1, r11, .LBB0_3
.Ltmp143:
// %bb.58:
	jneq r0, r10, .LBB0_3
// %bb.59:
// %bb.33:
.Ltmp144:
	//DEBUG_VALUE: __divdf3:scale <- $r6
	//DEBUG_VALUE: __divdf3:bExponent <- $r5
	//DEBUG_VALUE: __divdf3:aExponent <- $r4
	//DEBUG_VALUE: __divdf3:quotientSign <- $d16
	//DEBUG_VALUE: bAbs <- $d8
	//DEBUG_VALUE: __divdf3:bSignificand <- [DW_OP_constu 4503599627370495, DW_OP_and, DW_OP_stack_value] $d2
	//DEBUG_VALUE: __divdf3:b <- $d2
	//DEBUG_VALUE: normalize:significand <- undef
	//DEBUG_VALUE: rep_clz:a <- [DW_OP_constu 4503599627370495, DW_OP_and, DW_OP_stack_value] $d2
	.loc	2 80 9                          // uPIMulator_frontend/sdk/syslib/fp_lib.h:80:9
	move.u d0, r14
	move.s d8, 0
.Ltmp145:
	jneq r1, r9, .LBB0_35
.Ltmp146:
// %bb.60:
	jneq r0, r8, .LBB0_35
.Ltmp147:
// %bb.61:
// %bb.34:
	//DEBUG_VALUE: __divdf3:scale <- $r6
	//DEBUG_VALUE: __divdf3:bExponent <- $r5
	//DEBUG_VALUE: __divdf3:aExponent <- $r4
	//DEBUG_VALUE: __divdf3:quotientSign <- $d16
	//DEBUG_VALUE: rep_clz:a <- [DW_OP_constu 4503599627370495, DW_OP_and, DW_OP_stack_value] $d2
	//DEBUG_VALUE: __divdf3:bSignificand <- [DW_OP_constu 4503599627370495, DW_OP_and, DW_OP_stack_value] $d2
	//DEBUG_VALUE: __divdf3:b <- $d2
	.loc	2 0 9 is_stmt 0                 // uPIMulator_frontend/sdk/syslib/fp_lib.h:0:9
	clz r0, r3
	or r0, r0, 32, true, .LBB0_36
.Ltmp148:
.LBB0_35:
	//DEBUG_VALUE: __divdf3:scale <- $r6
	//DEBUG_VALUE: __divdf3:bExponent <- $r5
	//DEBUG_VALUE: __divdf3:aExponent <- $r4
	//DEBUG_VALUE: __divdf3:quotientSign <- $d16
	//DEBUG_VALUE: rep_clz:a <- [DW_OP_constu 4503599627370495, DW_OP_and, DW_OP_stack_value] $d2
	//DEBUG_VALUE: __divdf3:bSignificand <- [DW_OP_constu 4503599627370495, DW_OP_and, DW_OP_stack_value] $d2
	//DEBUG_VALUE: __divdf3:b <- $d2
	clz r0, r14
.Ltmp149:
.LBB0_36:
	//DEBUG_VALUE: __divdf3:scale <- $r6
	//DEBUG_VALUE: __divdf3:bExponent <- $r5
	//DEBUG_VALUE: __divdf3:aExponent <- $r4
	//DEBUG_VALUE: __divdf3:quotientSign <- $d16
	//DEBUG_VALUE: __divdf3:bSignificand <- [DW_OP_constu 4503599627370495, DW_OP_and, DW_OP_stack_value] $d2
	//DEBUG_VALUE: __divdf3:b <- $d2
	//DEBUG_VALUE: rep_clz:a <- 4503599627370496
	.loc	2 251 45 is_stmt 1              // uPIMulator_frontend/sdk/syslib/fp_lib.h:251:45
	add r1, r0, -11
.Ltmp150:
	//DEBUG_VALUE: normalize:shift <- $r1
	.loc	2 252 18                        // uPIMulator_frontend/sdk/syslib/fp_lib.h:252:18
	lslx r2, r15, r1, sh32, .LBB0_38
.Ltmp151:
// %bb.37:
	//DEBUG_VALUE: __divdf3:scale <- $r6
	//DEBUG_VALUE: __divdf3:bExponent <- $r5
	//DEBUG_VALUE: __divdf3:aExponent <- $r4
	//DEBUG_VALUE: normalize:shift <- $r1
	//DEBUG_VALUE: __divdf3:quotientSign <- $d16
	lsl r3, r14, r1
	or r14, r3, r2
	lsl r15, r15, r1, true, .LBB0_39
.Ltmp152:
.LBB0_38:
	//DEBUG_VALUE: __divdf3:scale <- $r6
	//DEBUG_VALUE: __divdf3:bExponent <- $r5
	//DEBUG_VALUE: __divdf3:aExponent <- $r4
	//DEBUG_VALUE: normalize:shift <- $r1
	//DEBUG_VALUE: __divdf3:quotientSign <- $d16
	lsl r14, r15, r1
	move r15, 0
.Ltmp153:
.LBB0_39:
	//DEBUG_VALUE: __divdf3:scale <- $r6
	//DEBUG_VALUE: __divdf3:bExponent <- $r5
	//DEBUG_VALUE: __divdf3:aExponent <- $r4
	//DEBUG_VALUE: normalize:shift <- $r1
	//DEBUG_VALUE: __divdf3:quotientSign <- $d16
	.loc	2 253 14                        // uPIMulator_frontend/sdk/syslib/fp_lib.h:253:14
	add r0, r0, r6
.Ltmp154:
	//DEBUG_VALUE: __divdf3:scale <- $r6
	.loc	3 78 19                         // uPIMulator_frontend/sdk/syslib/divdf3.c:78:19
	add r6, r0, -12, true, .LBB0_3
.Ltmp155:
.Lfunc_end0:
	.size	__divdf3, .Lfunc_end0-__divdf3
	.cfi_endproc
	.section	.stack_sizes,"o",@progbits,.text.__divdf3
	.long	.Lfunc_begin0
	.byte	96
	.section	.text.__divdf3,"ax",@progbits
                                        // -- End function