	.text
	.file	"divsf3.c"
	.file	1 "/root" "uPIMulator_frontend/sdk/stdlib/stdint.h"
	.file	2 "/root" "uPIMulator_frontend/sdk/syslib/fp_lib.h"
	.section	.text.__divsf3,"ax",@progbits
	.globl	__divsf3                        // -- Begin function __divsf3
	.type	__divsf3,@function
__divsf3:                               // @__divsf3
.Lfunc_begin0:
	.file	3 "/root" "uPIMulator_frontend/sdk/syslib/divsf3.c"
	.loc	3 24 0                          // uPIMulator_frontend/sdk/syslib/divsf3.c:24:0
	.cfi_sections .debug_frame
	.cfi_startproc
// %bb.0:
	//DEBUG_VALUE: __divsf3:a <- $r0
	//DEBUG_VALUE: __divsf3:a <- $r0
	//DEBUG_VALUE: __divsf3:b <- $r1
	//DEBUG_VALUE: __divsf3:b <- $r1
	//DEBUG_VALUE: toRep:x <- $r0
	//DEBUG_VALUE: toRep:x <- $r0
	.cfi_def_cfa_offset -40
	.cfi_offset 23, -8
	.cfi_offset 22, -4
	sd r22, 32, d22
	add r22, r22, 40
	.cfi_offset 15, -16
	.cfi_offset 14, -12
.Ltmp0:
	sd r22, -16, d14
	.cfi_offset 17, -24
	.cfi_offset 16, -20
	sd r22, -24, d16
	.cfi_offset 19, -32
	.cfi_offset 18, -28
	sd r22, -32, d18
	.cfi_offset 21, -40
	.cfi_offset 20, -36
	sd r22, -40, d20
	//DEBUG_VALUE: toRep:rep <- $r0
	//DEBUG_VALUE: toRep:rep <- $r0
.Ltmp1:
	.loc	3 26 45 prologue_end            // uPIMulator_frontend/sdk/syslib/divsf3.c:26:45
	lsr r2, r0, 23
	.loc	3 26 64 is_stmt 0               // uPIMulator_frontend/sdk/syslib/divsf3.c:26:64
	and r2, r2, 255
.Ltmp2:
	//DEBUG_VALUE: toRep:rep <- undef
	//DEBUG_VALUE: toRep:x <- undef
	//DEBUG_VALUE: __divsf3:aExponent <- $r2
	.loc	3 27 45 is_stmt 1               // uPIMulator_frontend/sdk/syslib/divsf3.c:27:45
	lsr r3, r1, 23
	.loc	3 27 64 is_stmt 0               // uPIMulator_frontend/sdk/syslib/divsf3.c:27:64
	and r3, r3, 255
.Ltmp3:
	//DEBUG_VALUE: toRep:rep <- undef
	//DEBUG_VALUE: toRep:x <- undef
	//DEBUG_VALUE: toRep:rep <- undef
	//DEBUG_VALUE: toRep:x <- undef
	//DEBUG_VALUE: __divsf3:bExponent <- $r3
	.loc	3 28 42 is_stmt 1               // uPIMulator_frontend/sdk/syslib/divsf3.c:28:42
	xor r4, r1, r0
	.loc	3 28 54 is_stmt 0               // uPIMulator_frontend/sdk/syslib/divsf3.c:28:54
	and r14, r4, -2147483648
.Ltmp4:
	//DEBUG_VALUE: toRep:rep <- undef
	//DEBUG_VALUE: toRep:x <- undef
	//DEBUG_VALUE: __divsf3:quotientSign <- $r14
	.loc	3 30 35 is_stmt 1               // uPIMulator_frontend/sdk/syslib/divsf3.c:30:35
	and r20, r0, 8388607
.Ltmp5:
	//DEBUG_VALUE: toRep:rep <- undef
	//DEBUG_VALUE: toRep:x <- undef
	//DEBUG_VALUE: __divsf3:aSignificand <- $r20
	.loc	3 31 35                         // uPIMulator_frontend/sdk/syslib/divsf3.c:31:35
	and r4, r1, 8388607
.Ltmp6:
	//DEBUG_VALUE: __divsf3:scale <- 0
	//DEBUG_VALUE: __divsf3:bSignificand <- $r4
	.loc	3 35 19                         // uPIMulator_frontend/sdk/syslib/divsf3.c:35:19
	add r5, r2, -1
	.loc	3 35 44 is_stmt 0               // uPIMulator_frontend/sdk/syslib/divsf3.c:35:44
	jgtu r5, 253, .LBB0_6
.Ltmp7:
// %bb.1:
	//DEBUG_VALUE: __divsf3:aSignificand <- $r20
	//DEBUG_VALUE: __divsf3:quotientSign <- $r14
	//DEBUG_VALUE: __divsf3:bSignificand <- $r4
	//DEBUG_VALUE: __divsf3:bExponent <- $r3
	//DEBUG_VALUE: __divsf3:aExponent <- $r2
	//DEBUG_VALUE: __divsf3:b <- $r1
	//DEBUG_VALUE: __divsf3:a <- $r0
	//DEBUG_VALUE: __divsf3:scale <- 0
	.loc	3 0 44                          // uPIMulator_frontend/sdk/syslib/divsf3.c:0:44
	move r6, 0
	add r5, r3, -1
	.loc	3 35 44                         // uPIMulator_frontend/sdk/syslib/divsf3.c:35:44
	jgeu r5, 254, .LBB0_6
.Ltmp8:
.LBB0_2:
	//DEBUG_VALUE: __divsf3:quotientSign <- $r14
	//DEBUG_VALUE: __divsf3:bExponent <- $r3
	//DEBUG_VALUE: __divsf3:aExponent <- $r2
	//DEBUG_VALUE: __divsf3:aSignificand <- [DW_OP_constu 8388608, DW_OP_or, DW_OP_stack_value] $r20
	//DEBUG_VALUE: __divsf3:bSignificand <- $r4
	//DEBUG_VALUE: __divsf3:scale <- $r6
	.loc	3 85 18 is_stmt 1               // uPIMulator_frontend/sdk/syslib/divsf3.c:85:18
	or r15, r4, 8388608
.Ltmp9:
	//DEBUG_VALUE: __divsf3:bSignificand <- $r15
	.loc	3 86 38                         // uPIMulator_frontend/sdk/syslib/divsf3.c:86:38
	sub r0, r2, r3
	.loc	3 86 50 is_stmt 0               // uPIMulator_frontend/sdk/syslib/divsf3.c:86:50
	add r21, r6, r0
.Ltmp10:
	//DEBUG_VALUE: __divsf3:quotientExponent <- $r21
	.loc	3 92 34 is_stmt 1               // uPIMulator_frontend/sdk/syslib/divsf3.c:92:34
	lsl r0, r15, 8
.Ltmp11:
	//DEBUG_VALUE: __divsf3:q31b <- $r0
	.loc	3 0 34 is_stmt 0                // uPIMulator_frontend/sdk/syslib/divsf3.c:0:34
	move r1, 1963258675
	.loc	3 93 48 is_stmt 1               // uPIMulator_frontend/sdk/syslib/divsf3.c:93:48
	lsl_sub r1, r1, r15, 8
.Ltmp12:
	//DEBUG_VALUE: __divsf3:reciprocal <- $r1
	.loc	3 103 20                        // uPIMulator_frontend/sdk/syslib/divsf3.c:103:20
	move.u d18, r1
	.loc	3 103 43 is_stmt 0              // uPIMulator_frontend/sdk/syslib/divsf3.c:103:43
	move.u d16, r0
	.loc	3 103 41                        // uPIMulator_frontend/sdk/syslib/divsf3.c:103:41
	movd d0, d18
.Ltmp13:
	movd d2, d16
.Ltmp14:
	call r23, __muldi3
.Ltmp15:
	.loc	3 103 18                        // uPIMulator_frontend/sdk/syslib/divsf3.c:103:18
	neg r0, r0
.Ltmp16:
	//DEBUG_VALUE: __divsf3:correction <- $r0
	.loc	3 104 41 is_stmt 1              // uPIMulator_frontend/sdk/syslib/divsf3.c:104:41
	move.u d0, r0
.Ltmp17:
	.loc	3 104 39 is_stmt 0              // uPIMulator_frontend/sdk/syslib/divsf3.c:104:39
	movd d2, d18
	call r23, __muldi3
.Ltmp18:
	.loc	3 104 52                        // uPIMulator_frontend/sdk/syslib/divsf3.c:104:52
	lsrx r2, r0, 31
	lsr_add r3, r2, r1, 31
	lsr r2, r0, 31
.Ltmp19:
	//DEBUG_VALUE: __divsf3:reciprocal <- [DW_OP_LLVM_convert 64 7, DW_OP_LLVM_convert 32 7, DW_OP_stack_value] $d2
	.loc	3 105 20 is_stmt 1              // uPIMulator_frontend/sdk/syslib/divsf3.c:105:20
	and r19, r3, 4294967295
	and r18, r2, 0
	.loc	3 105 41 is_stmt 0              // uPIMulator_frontend/sdk/syslib/divsf3.c:105:41
	movd d0, d18
	movd d2, d16
.Ltmp20:
	call r23, __muldi3
.Ltmp21:
	.loc	3 105 18                        // uPIMulator_frontend/sdk/syslib/divsf3.c:105:18
	neg r0, r0
.Ltmp22:
	//DEBUG_VALUE: __divsf3:correction <- $r0
	.loc	3 106 41 is_stmt 1              // uPIMulator_frontend/sdk/syslib/divsf3.c:106:41
	move.u d2, r0
	.loc	3 106 39 is_stmt 0              // uPIMulator_frontend/sdk/syslib/divsf3.c:106:39
	movd d0, d18
.Ltmp23:
	call r23, __muldi3
.Ltmp24:
	.loc	3 106 52                        // uPIMulator_frontend/sdk/syslib/divsf3.c:106:52
	lsrx r2, r0, 31
	lsr_add r3, r2, r1, 31
	lsr r2, r0, 31
.Ltmp25:
	//DEBUG_VALUE: __divsf3:reciprocal <- [DW_OP_LLVM_convert 64 7, DW_OP_LLVM_convert 32 7, DW_OP_stack_value] $d2
	.loc	3 107 20 is_stmt 1              // uPIMulator_frontend/sdk/syslib/divsf3.c:107:20
	and r19, r3, 4294967295
	and r18, r2, 0
	.loc	3 107 41 is_stmt 0              // uPIMulator_frontend/sdk/syslib/divsf3.c:107:41
	movd d0, d18
	movd d2, d16
.Ltmp26:
	call r23, __muldi3
.Ltmp27:
	.loc	3 107 18                        // uPIMulator_frontend/sdk/syslib/divsf3.c:107:18
	neg r0, r0
.Ltmp28:
	//DEBUG_VALUE: __divsf3:correction <- $r0
	.loc	3 108 41 is_stmt 1              // uPIMulator_frontend/sdk/syslib/divsf3.c:108:41
	move.u d2, r0
	.loc	3 108 39 is_stmt 0              // uPIMulator_frontend/sdk/syslib/divsf3.c:108:39
	movd d0, d18
.Ltmp29:
	call r23, __muldi3
.Ltmp30:
	.loc	3 108 52                        // uPIMulator_frontend/sdk/syslib/divsf3.c:108:52
	lsrx r2, r0, 31
	lsr_add r3, r2, r1, 31
	lsr r2, r0, 31
.Ltmp31:
	//DEBUG_VALUE: __divsf3:reciprocal <- $r3
	.loc	3 116 16 is_stmt 1              // uPIMulator_frontend/sdk/syslib/divsf3.c:116:16
	add r0, r3, -2
.Ltmp32:
	//DEBUG_VALUE: __divsf3:reciprocal <- $r0
	.loc	3 130 22                        // uPIMulator_frontend/sdk/syslib/divsf3.c:130:22
	move.u d0, r0
.Ltmp33:
	.loc	3 130 59 is_stmt 0              // uPIMulator_frontend/sdk/syslib/divsf3.c:130:59
	lsl r2, r20, 1
	or r2, r2, 16777216
	.loc	3 130 45                        // uPIMulator_frontend/sdk/syslib/divsf3.c:130:45
	move.u d2, r2
	.loc	3 130 43                        // uPIMulator_frontend/sdk/syslib/divsf3.c:130:43
	call r23, __muldi3
.Ltmp34:
	movd d16, d0
.Ltmp35:
	//DEBUG_VALUE: __divsf3:quotient <- undef
	.loc	3 146 9 is_stmt 1               // uPIMulator_frontend/sdk/syslib/divsf3.c:146:9
	lsr.u d0, r16, 24
	jneq r1, 0, .LBB0_8
.Ltmp36:
// %bb.3:
	//DEBUG_VALUE: __divsf3:quotientExponent <- $r21
	//DEBUG_VALUE: __divsf3:aSignificand <- [DW_OP_constu 8388608, DW_OP_or, DW_OP_stack_value] $r20
	//DEBUG_VALUE: __divsf3:bSignificand <- $r15
	//DEBUG_VALUE: __divsf3:quotientSign <- $r14
	//DEBUG_VALUE: __divsf3:scale <- $r6
	//DEBUG_VALUE: __divsf3:quotient <- $r16
	.loc	3 147 34                        // uPIMulator_frontend/sdk/syslib/divsf3.c:147:34
	lsl r18, r20, 24
	.loc	3 147 52 is_stmt 0              // uPIMulator_frontend/sdk/syslib/divsf3.c:147:52
	move r0, r15
	move r1, r16
	call r23, __mulsi3
.Ltmp37:
	.loc	3 147 41                        // uPIMulator_frontend/sdk/syslib/divsf3.c:147:41
	sub r0, r18, r0
.Ltmp38:
	//DEBUG_VALUE: __divsf3:residual <- $r0
	.loc	3 148 25 is_stmt 1              // uPIMulator_frontend/sdk/syslib/divsf3.c:148:25
	add r21, r21, -1
.Ltmp39:
	//DEBUG_VALUE: __divsf3:quotientExponent <- $r21
	//DEBUG_VALUE: __divsf3:quotientExponent <- $r21
	//DEBUG_VALUE: __divsf3:quotient <- $r16
	//DEBUG_VALUE: __divsf3:residual <- $r0
	//DEBUG_VALUE: __divsf3:writtenExponent <- [DW_OP_plus_uconst 127, DW_OP_stack_value] $r21
	.loc	3 156 9                         // uPIMulator_frontend/sdk/syslib/divsf3.c:156:9
	jges r21, 128, .LBB0_16
	jump .LBB0_4
.Ltmp40:
.LBB0_6:
	//DEBUG_VALUE: __divsf3:aSignificand <- $r20
	//DEBUG_VALUE: __divsf3:quotientSign <- $r14
	//DEBUG_VALUE: __divsf3:bSignificand <- $r4
	//DEBUG_VALUE: __divsf3:bExponent <- $r3
	//DEBUG_VALUE: __divsf3:aExponent <- $r2
	//DEBUG_VALUE: __divsf3:b <- $r1
	//DEBUG_VALUE: __divsf3:a <- $r0
	//DEBUG_VALUE: __divsf3:scale <- 0
	.loc	3 37 37                         // uPIMulator_frontend/sdk/syslib/divsf3.c:37:37
	and r6, r0, 2147483647
.Ltmp41:
	//DEBUG_VALUE: bAbs <- undef
	//DEBUG_VALUE: toRep:rep <- undef
	//DEBUG_VALUE: toRep:x <- undef
	//DEBUG_VALUE: aAbs <- $r6
	.loc	3 0 37 is_stmt 0                // uPIMulator_frontend/sdk/syslib/divsf3.c:0:37
	move r7, 2139095041
.Ltmp42:
	//DEBUG_VALUE: toRep:rep <- undef
	//DEBUG_VALUE: toRep:x <- undef
	.loc	3 41 13 is_stmt 1               // uPIMulator_frontend/sdk/syslib/divsf3.c:41:13
	jltu r6, r7, .LBB0_10
.Ltmp43:
// %bb.7:
	//DEBUG_VALUE: __divsf3:aSignificand <- $r20
	//DEBUG_VALUE: __divsf3:quotientSign <- $r14
	//DEBUG_VALUE: aAbs <- $r6
	//DEBUG_VALUE: __divsf3:bSignificand <- $r4
	//DEBUG_VALUE: __divsf3:bExponent <- $r3
	//DEBUG_VALUE: __divsf3:aExponent <- $r2
	//DEBUG_VALUE: __divsf3:b <- $r1
	//DEBUG_VALUE: __divsf3:a <- $r0
	//DEBUG_VALUE: __divsf3:scale <- 0
	.loc	3 42 37                         // uPIMulator_frontend/sdk/syslib/divsf3.c:42:37
	or r0, r0, 4194304
.Ltmp44:
	//DEBUG_VALUE: toRep:rep <- undef
	//DEBUG_VALUE: toRep:x <- undef
	//DEBUG_VALUE: fromRep:rep <- undef
	//DEBUG_VALUE: fromRep:x <- $r0
	.loc	3 0 37 is_stmt 0                // uPIMulator_frontend/sdk/syslib/divsf3.c:0:37
	jump .LBB0_13
.Ltmp45:
.LBB0_8:
	//DEBUG_VALUE: __divsf3:quotientExponent <- $r21
	//DEBUG_VALUE: __divsf3:aSignificand <- [DW_OP_constu 8388608, DW_OP_or, DW_OP_stack_value] $r20
	//DEBUG_VALUE: __divsf3:bSignificand <- $r15
	//DEBUG_VALUE: __divsf3:quotientSign <- $r14
	//DEBUG_VALUE: __divsf3:scale <- $r6
	.loc	3 150 18 is_stmt 1              // uPIMulator_frontend/sdk/syslib/divsf3.c:150:18
	lsr.u d16, r16, 1
.Ltmp46:
	//DEBUG_VALUE: __divsf3:quotient <- $r17
	.loc	3 151 34                        // uPIMulator_frontend/sdk/syslib/divsf3.c:151:34
	lsl r18, r20, 23
	.loc	3 151 52 is_stmt 0              // uPIMulator_frontend/sdk/syslib/divsf3.c:151:52
	move r0, r15
	move r1, r17
	call r23, __mulsi3
.Ltmp47:
	.loc	3 151 41                        // uPIMulator_frontend/sdk/syslib/divsf3.c:151:41
	sub r0, r18, r0
.Ltmp48:
	//DEBUG_VALUE: __divsf3:residual <- $r0
	.loc	3 0 0                           // uPIMulator_frontend/sdk/syslib/divsf3.c:0:0
	move r16, r17
.Ltmp49:
	//DEBUG_VALUE: __divsf3:quotientExponent <- $r21
	//DEBUG_VALUE: __divsf3:quotient <- $r16
	//DEBUG_VALUE: __divsf3:residual <- $r0
	//DEBUG_VALUE: __divsf3:writtenExponent <- [DW_OP_plus_uconst 127, DW_OP_stack_value] $r21
	.loc	3 156 9 is_stmt 1               // uPIMulator_frontend/sdk/syslib/divsf3.c:156:9
	jlts r21, 128, .LBB0_4
.Ltmp50:
.LBB0_16:
	//DEBUG_VALUE: __divsf3:quotientSign <- $r14
	.loc	3 0 0 is_stmt 0                 // uPIMulator_frontend/sdk/syslib/divsf3.c:0:0
	or r0, r14, 2139095040
.Ltmp51:
	//DEBUG_VALUE: fromRep:rep <- undef
	//DEBUG_VALUE: fromRep:x <- $r0
	jump .LBB0_13
.Ltmp52:
.LBB0_4:
	//DEBUG_VALUE: __divsf3:writtenExponent <- [DW_OP_plus_uconst 127, DW_OP_stack_value] $r21
	//DEBUG_VALUE: __divsf3:quotientExponent <- $r21
	//DEBUG_VALUE: __divsf3:aSignificand <- [DW_OP_constu 8388608, DW_OP_or, DW_OP_stack_value] $r20
	//DEBUG_VALUE: __divsf3:quotient <- $r16
	//DEBUG_VALUE: __divsf3:bSignificand <- $r15
	//DEBUG_VALUE: __divsf3:quotientSign <- $r14
	//DEBUG_VALUE: __divsf3:scale <- $r6
	//DEBUG_VALUE: __divsf3:residual <- $r0
	.loc	3 161 14 is_stmt 1              // uPIMulator_frontend/sdk/syslib/divsf3.c:161:14
	jgts r21, -127, .LBB0_12
.Ltmp53:
.LBB0_18:
	//DEBUG_VALUE: fromRep:x <- $r14
	//DEBUG_VALUE: fromRep:rep <- undef
	//DEBUG_VALUE: fromRep:x <- $r0
	.loc	3 0 0 is_stmt 0                 // uPIMulator_frontend/sdk/syslib/divsf3.c:0:0
	move r0, r14, true, .LBB0_13
.Ltmp54:
.LBB0_10:
	//DEBUG_VALUE: __divsf3:aSignificand <- $r20
	//DEBUG_VALUE: __divsf3:quotientSign <- $r14
	//DEBUG_VALUE: aAbs <- $r6
	//DEBUG_VALUE: __divsf3:bSignificand <- $r4
	//DEBUG_VALUE: __divsf3:bExponent <- $r3
	//DEBUG_VALUE: __divsf3:aExponent <- $r2
	//DEBUG_VALUE: __divsf3:b <- $r1
	//DEBUG_VALUE: __divsf3:a <- $r0
	//DEBUG_VALUE: __divsf3:scale <- 0
	and r5, r1, 2147483647
.Ltmp55:
	//DEBUG_VALUE: bAbs <- $r5
	.loc	3 44 13 is_stmt 1               // uPIMulator_frontend/sdk/syslib/divsf3.c:44:13
	jltu r5, r7, .LBB0_14
.Ltmp56:
// %bb.11:
	//DEBUG_VALUE: __divsf3:aSignificand <- $r20
	//DEBUG_VALUE: __divsf3:quotientSign <- $r14
	//DEBUG_VALUE: aAbs <- $r6
	//DEBUG_VALUE: bAbs <- $r5
	//DEBUG_VALUE: __divsf3:bSignificand <- $r4
	//DEBUG_VALUE: __divsf3:bExponent <- $r3
	//DEBUG_VALUE: __divsf3:aExponent <- $r2
	//DEBUG_VALUE: __divsf3:b <- $r1
	//DEBUG_VALUE: __divsf3:a <- $r0
	//DEBUG_VALUE: __divsf3:scale <- 0
	.loc	3 45 37                         // uPIMulator_frontend/sdk/syslib/divsf3.c:45:37
	or r0, r1, 4194304
.Ltmp57:
	//DEBUG_VALUE: toRep:rep <- undef
	//DEBUG_VALUE: toRep:x <- undef
	//DEBUG_VALUE: fromRep:rep <- undef
	//DEBUG_VALUE: fromRep:x <- $r0
	.loc	3 0 37 is_stmt 0                // uPIMulator_frontend/sdk/syslib/divsf3.c:0:37
	jump .LBB0_13
.Ltmp58:
.LBB0_12:
	//DEBUG_VALUE: __divsf3:writtenExponent <- [DW_OP_plus_uconst 127, DW_OP_stack_value] $r21
	//DEBUG_VALUE: __divsf3:quotientExponent <- $r21
	//DEBUG_VALUE: __divsf3:aSignificand <- [DW_OP_constu 8388608, DW_OP_or, DW_OP_stack_value] $r20
	//DEBUG_VALUE: __divsf3:quotient <- $r16
	//DEBUG_VALUE: __divsf3:bSignificand <- $r15
	//DEBUG_VALUE: __divsf3:quotientSign <- $r14
	//DEBUG_VALUE: __divsf3:scale <- $r6
	//DEBUG_VALUE: __divsf3:residual <- $r0
	.loc	3 168 38 is_stmt 1              // uPIMulator_frontend/sdk/syslib/divsf3.c:168:38
	lsl r0, r0, 1
.Ltmp59:
	//DEBUG_VALUE: __divsf3:bSignificand <- $r15
	.loc	3 168 44 is_stmt 0              // uPIMulator_frontend/sdk/syslib/divsf3.c:168:44
	sub r0, r0, r15, gtu
.Ltmp60:
	//DEBUG_VALUE: round <- [DW_OP_LLVM_convert 1 7, DW_OP_LLVM_convert 8 7, DW_OP_stack_value] $r0
	.loc	3 170 36 is_stmt 1              // uPIMulator_frontend/sdk/syslib/divsf3.c:170:36
	and r1, r16, 8388607
.Ltmp61:
	//DEBUG_VALUE: absResult <- $r1
	.loc	3 172 45                        // uPIMulator_frontend/sdk/syslib/divsf3.c:172:45
	lsl_add r1, r1, r21, 23
.Ltmp62:
	.loc	3 172 19 is_stmt 0              // uPIMulator_frontend/sdk/syslib/divsf3.c:172:19
	add r0, r1, r0
.Ltmp63:
	//DEBUG_VALUE: absResult <- undef
	.loc	3 174 19 is_stmt 1              // uPIMulator_frontend/sdk/syslib/divsf3.c:174:19
	add r0, r0, 1065353216
.Ltmp64:
	//DEBUG_VALUE: absResult <- $r0
	.loc	3 176 34                        // uPIMulator_frontend/sdk/syslib/divsf3.c:176:34
	or r0, r0, r14
.Ltmp65:
	//DEBUG_VALUE: fromRep:rep <- undef
	//DEBUG_VALUE: fromRep:x <- $r0
.LBB0_13:
	.loc	3 0 0 is_stmt 0                 // uPIMulator_frontend/sdk/syslib/divsf3.c:0:0
	ld d20, r22, -40
	ld d18, r22, -32
	ld d16, r22, -24
	ld d14, r22, -16
	ld d22, r22, -8
	jump r23
.LBB0_14:
.Ltmp66:
	//DEBUG_VALUE: __divsf3:aSignificand <- $r20
	//DEBUG_VALUE: __divsf3:quotientSign <- $r14
	//DEBUG_VALUE: aAbs <- $r6
	//DEBUG_VALUE: bAbs <- $r5
	//DEBUG_VALUE: __divsf3:bSignificand <- $r4
	//DEBUG_VALUE: __divsf3:bExponent <- $r3
	//DEBUG_VALUE: __divsf3:aExponent <- $r2
	//DEBUG_VALUE: __divsf3:b <- $r1
	//DEBUG_VALUE: __divsf3:a <- $r0
	//DEBUG_VALUE: __divsf3:scale <- 0
	move r1, 2139095040
.Ltmp67:
	.loc	3 47 13 is_stmt 1               // uPIMulator_frontend/sdk/syslib/divsf3.c:47:13
	jneq r6, r1, .LBB0_17
.Ltmp68:
// %bb.15:
	//DEBUG_VALUE: __divsf3:aSignificand <- $r20
	//DEBUG_VALUE: __divsf3:quotientSign <- $r14
	//DEBUG_VALUE: aAbs <- $r6
	//DEBUG_VALUE: bAbs <- $r5
	//DEBUG_VALUE: __divsf3:bSignificand <- $r4
	//DEBUG_VALUE: __divsf3:bExponent <- $r3
	//DEBUG_VALUE: __divsf3:aExponent <- $r2
	//DEBUG_VALUE: __divsf3:a <- $r0
	//DEBUG_VALUE: __divsf3:scale <- 0
	.loc	3 0 13 is_stmt 0                // uPIMulator_frontend/sdk/syslib/divsf3.c:0:13
	move r0, 2143289344
.Ltmp69:
	.loc	3 49 17 is_stmt 1               // uPIMulator_frontend/sdk/syslib/divsf3.c:49:17
	jeq r5, r1, .LBB0_13
	jump .LBB0_16
.Ltmp70:
.LBB0_17:
	//DEBUG_VALUE: __divsf3:aSignificand <- $r20
	//DEBUG_VALUE: __divsf3:quotientSign <- $r14
	//DEBUG_VALUE: aAbs <- $r6
	//DEBUG_VALUE: bAbs <- $r5
	//DEBUG_VALUE: __divsf3:bSignificand <- $r4
	//DEBUG_VALUE: __divsf3:bExponent <- $r3
	//DEBUG_VALUE: __divsf3:aExponent <- $r2
	//DEBUG_VALUE: __divsf3:a <- $r0
	//DEBUG_VALUE: __divsf3:scale <- 0
	.loc	3 57 13                         // uPIMulator_frontend/sdk/syslib/divsf3.c:57:13
	jeq r5, r1, .LBB0_18
.Ltmp71:
// %bb.19:
	//DEBUG_VALUE: __divsf3:aSignificand <- $r20
	//DEBUG_VALUE: __divsf3:quotientSign <- $r14
	//DEBUG_VALUE: aAbs <- $r6
	//DEBUG_VALUE: bAbs <- $r5
	//DEBUG_VALUE: __divsf3:bSignificand <- $r4
	//DEBUG_VALUE: __divsf3:bExponent <- $r3
	//DEBUG_VALUE: __divsf3:aExponent <- $r2
	//DEBUG_VALUE: __divsf3:a <- $r0
	//DEBUG_VALUE: __divsf3:scale <- 0
	.loc	3 60 13                         // uPIMulator_frontend/sdk/syslib/divsf3.c:60:13
	jeq r6, 0, .LBB0_24
.Ltmp72:
// %bb.20:
	//DEBUG_VALUE: __divsf3:aSignificand <- $r20
	//DEBUG_VALUE: __divsf3:quotientSign <- $r14
	//DEBUG_VALUE: aAbs <- $r6
	//DEBUG_VALUE: bAbs <- $r5
	//DEBUG_VALUE: __divsf3:bSignificand <- $r4
	//DEBUG_VALUE: __divsf3:bExponent <- $r3
	//DEBUG_VALUE: __divsf3:aExponent <- $r2
	//DEBUG_VALUE: __divsf3:a <- $r0
	//DEBUG_VALUE: __divsf3:scale <- 0
	.loc	3 69 13                         // uPIMulator_frontend/sdk/syslib/divsf3.c:69:13
	jeq r5, 0, .LBB0_16
.Ltmp73:
// %bb.21:
	//DEBUG_VALUE: __divsf3:aSignificand <- $r20
	//DEBUG_VALUE: __divsf3:quotientSign <- $r14
	//DEBUG_VALUE: aAbs <- $r6
	//DEBUG_VALUE: bAbs <- $r5
	//DEBUG_VALUE: __divsf3:bSignificand <- $r4
	//DEBUG_VALUE: __divsf3:bExponent <- $r3
	//DEBUG_VALUE: __divsf3:aExponent <- $r2
	//DEBUG_VALUE: __divsf3:a <- $r0
	//DEBUG_VALUE: __divsf3:scale <- 0
	.loc	3 75 13                         // uPIMulator_frontend/sdk/syslib/divsf3.c:75:13
	clz r1, r20
	add r0, r1, -8
.Ltmp74:
	lsr r7, r6, 23, nz, .LBB0_28
.Ltmp75:
// %bb.22:
	//DEBUG_VALUE: __divsf3:aSignificand <- $r20
	//DEBUG_VALUE: __divsf3:quotientSign <- $r14
	//DEBUG_VALUE: aAbs <- $r6
	//DEBUG_VALUE: bAbs <- $r5
	//DEBUG_VALUE: __divsf3:bSignificand <- $r4
	//DEBUG_VALUE: __divsf3:bExponent <- $r3
	//DEBUG_VALUE: __divsf3:aExponent <- $r2
	//DEBUG_VALUE: __divsf3:scale <- 0
	sub r6, 9, r1
.Ltmp76:
	jneq r7, 0, .LBB0_29
.Ltmp77:
.LBB0_23:
	//DEBUG_VALUE: __divsf3:aSignificand <- $r20
	//DEBUG_VALUE: __divsf3:quotientSign <- $r14
	//DEBUG_VALUE: bAbs <- $r5
	//DEBUG_VALUE: __divsf3:bSignificand <- $r4
	//DEBUG_VALUE: __divsf3:bExponent <- $r3
	//DEBUG_VALUE: __divsf3:aExponent <- $r2
	//DEBUG_VALUE: __divsf3:scale <- 0
	.loc	3 0 0 is_stmt 0                 // uPIMulator_frontend/sdk/syslib/divsf3.c:0:0
	lsl r20, r20, r0
.Ltmp78:
	//DEBUG_VALUE: __divsf3:scale <- $r6
	.loc	3 77 13 is_stmt 1               // uPIMulator_frontend/sdk/syslib/divsf3.c:77:13
	lsr r0, r5, 23
	jneq r0, 0, .LBB0_2
	jump .LBB0_30
.Ltmp79:
.LBB0_24:
	//DEBUG_VALUE: __divsf3:aSignificand <- $r20
	//DEBUG_VALUE: __divsf3:quotientSign <- $r14
	//DEBUG_VALUE: aAbs <- $r6
	//DEBUG_VALUE: bAbs <- $r5
	//DEBUG_VALUE: __divsf3:bSignificand <- $r4
	//DEBUG_VALUE: __divsf3:bExponent <- $r3
	//DEBUG_VALUE: __divsf3:aExponent <- $r2
	//DEBUG_VALUE: __divsf3:a <- $r0
	//DEBUG_VALUE: __divsf3:scale <- 0
	.loc	3 62 17                         // uPIMulator_frontend/sdk/syslib/divsf3.c:62:17
	jneq r5, 0, .LBB0_18
.Ltmp80:
// %bb.25:
	//DEBUG_VALUE: __divsf3:aSignificand <- $r20
	//DEBUG_VALUE: __divsf3:quotientSign <- $r14
	//DEBUG_VALUE: aAbs <- $r6
	//DEBUG_VALUE: bAbs <- $r5
	//DEBUG_VALUE: __divsf3:bSignificand <- $r4
	//DEBUG_VALUE: __divsf3:bExponent <- $r3
	//DEBUG_VALUE: __divsf3:aExponent <- $r2
	//DEBUG_VALUE: __divsf3:a <- $r0
	//DEBUG_VALUE: __divsf3:scale <- 0
	.loc	3 0 17 is_stmt 0                // uPIMulator_frontend/sdk/syslib/divsf3.c:0:17
	move r14, 2143289344
.Ltmp81:
	jump .LBB0_18
.Ltmp82:
.LBB0_28:
	//DEBUG_VALUE: __divsf3:aSignificand <- $r20
	//DEBUG_VALUE: __divsf3:quotientSign <- $r14
	//DEBUG_VALUE: aAbs <- $r6
	//DEBUG_VALUE: bAbs <- $r5
	//DEBUG_VALUE: __divsf3:bSignificand <- $r4
	//DEBUG_VALUE: __divsf3:bExponent <- $r3
	//DEBUG_VALUE: __divsf3:aExponent <- $r2
	//DEBUG_VALUE: __divsf3:scale <- 0
	move r0, 0
	.loc	3 75 13 is_stmt 1               // uPIMulator_frontend/sdk/syslib/divsf3.c:75:13
	sub r6, 9, r1
.Ltmp83:
	jeq r7, 0, .LBB0_23
.Ltmp84:
.LBB0_29:
	//DEBUG_VALUE: __divsf3:aSignificand <- $r20
	//DEBUG_VALUE: __divsf3:quotientSign <- $r14
	//DEBUG_VALUE: bAbs <- $r5
	//DEBUG_VALUE: __divsf3:bSignificand <- $r4
	//DEBUG_VALUE: __divsf3:bExponent <- $r3
	//DEBUG_VALUE: __divsf3:aExponent <- $r2
	//DEBUG_VALUE: __divsf3:scale <- 0
	.loc	3 0 13 is_stmt 0                // uPIMulator_frontend/sdk/syslib/divsf3.c:0:13
	move r6, 0
	lsl r20, r20, r0
.Ltmp85:
	//DEBUG_VALUE: __divsf3:scale <- $r6
	.loc	3 77 13 is_stmt 1               // uPIMulator_frontend/sdk/syslib/divsf3.c:77:13
	lsr r0, r5, 23, nz, .LBB0_2
.Ltmp86:
.LBB0_30:
	//DEBUG_VALUE: __divsf3:quotientSign <- $r14
	//DEBUG_VALUE: __divsf3:scale <- $r6
	//DEBUG_VALUE: bAbs <- $r5
	//DEBUG_VALUE: __divsf3:bSignificand <- $r4
	//DEBUG_VALUE: __divsf3:bExponent <- $r3
	//DEBUG_VALUE: __divsf3:aExponent <- $r2
	//DEBUG_VALUE: normalize:significand <- undef
	//DEBUG_VALUE: rep_clz:a <- $r4
	.loc	2 52 12                         // uPIMulator_frontend/sdk/syslib/fp_lib.h:52:12
	clz r0, r4
.Ltmp87:
	//DEBUG_VALUE: rep_clz:a <- 8388608
	.loc	2 251 45                        // uPIMulator_frontend/sdk/syslib/fp_lib.h:251:45
	add r1, r0, -8
.Ltmp88:
	//DEBUG_VALUE: normalize:shift <- $r1
	.loc	2 252 18                        // uPIMulator_frontend/sdk/syslib/fp_lib.h:252:18
	lsl r4, r4, r1
.Ltmp89:
	.loc	2 253 14                        // uPIMulator_frontend/sdk/syslib/fp_lib.h:253:14
	add r0, r0, r6
.Ltmp90:
	//DEBUG_VALUE: __divsf3:scale <- $r6
	.loc	3 78 19                         // uPIMulator_frontend/sdk/syslib/divsf3.c:78:19
	add r6, r0, -9, true, .LBB0_2
.Ltmp91:
.Lfunc_end0:
	.size	__divsf3, .Lfunc_end0-__divsf3
	.cfi_endproc
	.section	.stack_sizes,"o",@progbits,.text.__divsf3
	.long	.Lfunc_begin0
	.byte	40
	.section	.text.__divsf3,"ax",@progbits
                                        // -- End function