	.text
	.file	"fixsfdi.c"
	.section	.text.__fixsfdi,"ax",@progbits
	.globl	__fixsfdi                       // -- Begin function __fixsfdi
	.type	__fixsfdi,@function
__fixsfdi:                              // @__fixsfdi
.Lfunc_begin0:
	.file	1 "/root" "uPIMulator_frontend/sdk/syslib/fixsfdi.c"
	.loc	1 24 0                          // uPIMulator_frontend/sdk/syslib/fixsfdi.c:24:0
	.cfi_sections .debug_frame
	.cfi_startproc
// %bb.0:
	//DEBUG_VALUE: __fixsfdi:a <- $r0
	.cfi_def_cfa_offset -16
	.cfi_offset 23, -8
	.cfi_offset 22, -4
	sd r22, 8, d22
	add r22, r22, 16
	.cfi_offset 15, -16
	.cfi_offset 14, -12
	sd r22, -16, d14
	move r14, r0
	move r1, 0
.Ltmp0:
	//DEBUG_VALUE: __fixsfdi:a <- $r14
	.loc	1 25 11 prologue_end            // uPIMulator_frontend/sdk/syslib/fixsfdi.c:25:11
	call r23, __ltsf2
.Ltmp1:
	.loc	1 25 9 is_stmt 0                // uPIMulator_frontend/sdk/syslib/fixsfdi.c:25:9
	jgts r0, -1, .LBB0_2
.Ltmp2:
// %bb.1:
	//DEBUG_VALUE: __fixsfdi:a <- $r14
	.loc	1 26 17 is_stmt 1               // uPIMulator_frontend/sdk/syslib/fixsfdi.c:26:17
	xor r0, r14, -2147483648
	call r23, __fixunssfdi
.Ltmp3:
	.loc	1 0 17 is_stmt 0                // uPIMulator_frontend/sdk/syslib/fixsfdi.c:0:17
	move.s d2, 0
	.loc	1 26 16                         // uPIMulator_frontend/sdk/syslib/fixsfdi.c:26:16
	sub r1, r3, r1
	subc r0, r2, r0
.Ltmp4:
	.loc	1 29 1 is_stmt 1                // uPIMulator_frontend/sdk/syslib/fixsfdi.c:29:1
	ld d14, r22, -16
.Ltmp5:
	ld d22, r22, -8
	jump r23
.LBB0_2:
.Ltmp6:
	//DEBUG_VALUE: __fixsfdi:a <- $r14
	.loc	1 28 12                         // uPIMulator_frontend/sdk/syslib/fixsfdi.c:28:12
	move r0, r14
	call r23, __fixunssfdi
.Ltmp7:
	.loc	1 29 1                          // uPIMulator_frontend/sdk/syslib/fixsfdi.c:29:1
	ld d14, r22, -16
.Ltmp8:
	ld d22, r22, -8
	jump r23
.Ltmp9:
.Lfunc_end0:
	.size	__fixsfdi, .Lfunc_end0-__fixsfdi
	.cfi_endproc
	.section	.stack_sizes,"o",@progbits,.text.__fixsfdi
	.long	.Lfunc_begin0
	.byte	16
	.section	.text.__fixsfdi,"ax",@progbits
                                        // -- End function
	.file	2 "/root" "uPIMulator_frontend/sdk/syslib/int_types.h"