	.text
	.file	"fixunsdfdi.c"
	.file	1 "/root" "uPIMulator_frontend/sdk/syslib/int_types.h"
	.section	.text.__fixunsdfdi,"ax",@progbits
	.globl	__fixunsdfdi                    // -- Begin function __fixunsdfdi
	.type	__fixunsdfdi,@function
__fixunsdfdi:                           // @__fixunsdfdi
.Lfunc_begin0:
	.file	2 "/root" "uPIMulator_frontend/sdk/syslib/fixunsdfdi.c"
	.loc	2 21 0                          // uPIMulator_frontend/sdk/syslib/fixunsdfdi.c:21:0
	.cfi_sections .debug_frame
	.cfi_startproc
// %bb.0:
	//DEBUG_VALUE: __fixunsdfdi:a <- $d0
	.cfi_def_cfa_offset -24
	.cfi_offset 23, -8
	.cfi_offset 22, -4
	sd r22, 16, d22
	add r22, r22, 24
	.cfi_offset 15, -16
	.cfi_offset 14, -12
	sd r22, -16, d14
	.cfi_offset 17, -24
	.cfi_offset 16, -20
	sd r22, -24, d16
	movd d14, d0
	move.s d16, 0
.Ltmp0:
	//DEBUG_VALUE: __fixunsdfdi:a <- $d14
	.loc	2 22 11 prologue_end            // uPIMulator_frontend/sdk/syslib/fixunsdfdi.c:22:11
	movd d2, d16
	call r23, __ledf2
.Ltmp1:
	.loc	2 22 9 is_stmt 0                // uPIMulator_frontend/sdk/syslib/fixunsdfdi.c:22:9
	jlts r0, 1, .LBB0_2
.Ltmp2:
// %bb.1:
	//DEBUG_VALUE: __fixunsdfdi:a <- $d14
	.loc	2 0 9                           // uPIMulator_frontend/sdk/syslib/fixunsdfdi.c:0:9
	move r3, 0
	move r2, 1039138816
	.loc	2 24 21 is_stmt 1               // uPIMulator_frontend/sdk/syslib/fixunsdfdi.c:24:21
	movd d0, d14
	call r23, __muldf3
.Ltmp3:
	.loc	2 24 19 is_stmt 0               // uPIMulator_frontend/sdk/syslib/fixunsdfdi.c:24:19
	call r23, __fixunsdfsi
.Ltmp4:
	move r16, r0
.Ltmp5:
	//DEBUG_VALUE: __fixunsdfdi:high <- $r16
	.loc	2 25 22 is_stmt 1               // uPIMulator_frontend/sdk/syslib/fixunsdfdi.c:25:22
	call r23, __floatunsidf
.Ltmp6:
	.loc	2 0 22 is_stmt 0                // uPIMulator_frontend/sdk/syslib/fixunsdfdi.c:0:22
	move r3, 0
	move r2, 3253731328
	.loc	2 25 35                         // uPIMulator_frontend/sdk/syslib/fixunsdfdi.c:25:35
	call r23, __muldf3
.Ltmp7:
	movd d2, d0
	.loc	2 25 20                         // uPIMulator_frontend/sdk/syslib/fixunsdfdi.c:25:20
	movd d0, d14
	call r23, __adddf3
.Ltmp8:
	.loc	2 25 18                         // uPIMulator_frontend/sdk/syslib/fixunsdfdi.c:25:18
	call r23, __fixunsdfsi
.Ltmp9:
	//DEBUG_VALUE: __fixunsdfdi:low <- $r0
	.loc	2 26 13 is_stmt 1               // uPIMulator_frontend/sdk/syslib/fixunsdfdi.c:26:13
	move.s d2, r16
	.loc	2 26 26 is_stmt 0               // uPIMulator_frontend/sdk/syslib/fixunsdfdi.c:26:26
	move r5, 0
	move r4, r3
	.loc	2 26 35                         // uPIMulator_frontend/sdk/syslib/fixunsdfdi.c:26:35
	move.u d0, r0
.Ltmp10:
	.loc	2 26 33                         // uPIMulator_frontend/sdk/syslib/fixunsdfdi.c:26:33
	or r17, r5, r1
	or r16, r4, r0
.Ltmp11:
.LBB0_2:
	//DEBUG_VALUE: __fixunsdfdi:a <- $d14
	.loc	2 27 1 is_stmt 1                // uPIMulator_frontend/sdk/syslib/fixunsdfdi.c:27:1
	movd d0, d16
	ld d16, r22, -24
	ld d14, r22, -16
.Ltmp12:
	ld d22, r22, -8
	jump r23
.Ltmp13:
.Lfunc_end0:
	.size	__fixunsdfdi, .Lfunc_end0-__fixunsdfdi
	.cfi_endproc
	.section	.stack_sizes,"o",@progbits,.text.__fixunsdfdi
	.long	.Lfunc_begin0
	.byte	24
	.section	.text.__fixunsdfdi,"ax",@progbits
                                        // -- End function