	.text
	.file	"floatdidf.c"
	.file	1 "/root" "uPIMulator_frontend/sdk/syslib/floatdidf.c"
	.file	2 "/root" "uPIMulator_frontend/sdk/stdlib/stdint.h"
	.section	.text.__floatdidf,"ax",@progbits
	.globl	__floatdidf                     // -- Begin function __floatdidf
	.type	__floatdidf,@function
__floatdidf:                            // @__floatdidf
.Lfunc_begin0:
	.loc	1 32 0                          // uPIMulator_frontend/sdk/syslib/floatdidf.c:32:0
	.cfi_sections .debug_frame
	.cfi_startproc
// %bb.0:
	//DEBUG_VALUE: __floatdidf:a <- $d0
	.cfi_def_cfa_offset -16
	.cfi_offset 23, -8
	.cfi_offset 22, -4
	sd r22, 8, d22
	add r22, r22, 16
	.cfi_offset 15, -16
	.cfi_offset 14, -12
	sd r22, -16, d14
	movd d14, d0
.Ltmp0:
	//DEBUG_VALUE: __floatdidf:low <- 4841369599423283200
	//DEBUG_VALUE: __floatdidf:a <- $d14
	.loc	1 41 25 prologue_end            // uPIMulator_frontend/sdk/syslib/floatdidf.c:41:25
	call r23, __floatsidf
.Ltmp1:
	.loc	1 0 25 is_stmt 0                // uPIMulator_frontend/sdk/syslib/floatdidf.c:0:25
	move r3, 0
	move r2, 1106247680
	.loc	1 41 44                         // uPIMulator_frontend/sdk/syslib/floatdidf.c:41:44
	call r23, __muldf3
.Ltmp2:
	//DEBUG_VALUE: __floatdidf:high <- undef
	.loc	1 42 16 is_stmt 1               // uPIMulator_frontend/sdk/syslib/floatdidf.c:42:16
	and r3, r15, 4294967295
	and r2, r14, 0
	.loc	1 42 11 is_stmt 0               // uPIMulator_frontend/sdk/syslib/floatdidf.c:42:11
	or r15, r3, 0
.Ltmp3:
	or r14, r2, 1127219200
.Ltmp4:
	//DEBUG_VALUE: __floatdidf:low <- $d14
	.loc	1 0 11                          // uPIMulator_frontend/sdk/syslib/floatdidf.c:0:11
	move r3, 0
	move r2, 3274702848
	.loc	1 44 33 is_stmt 1               // uPIMulator_frontend/sdk/syslib/floatdidf.c:44:33
	call r23, __adddf3
.Ltmp5:
	.loc	1 44 43 is_stmt 0               // uPIMulator_frontend/sdk/syslib/floatdidf.c:44:43
	movd d2, d14
	call r23, __adddf3
.Ltmp6:
	//DEBUG_VALUE: __floatdidf:result <- undef
	.loc	1 45 5 is_stmt 1                // uPIMulator_frontend/sdk/syslib/floatdidf.c:45:5
	ld d14, r22, -16
.Ltmp7:
	ld d22, r22, -8
	jump r23
.Ltmp8:
.Lfunc_end0:
	.size	__floatdidf, .Lfunc_end0-__floatdidf
	.cfi_endproc
	.section	.stack_sizes,"o",@progbits,.text.__floatdidf
	.long	.Lfunc_begin0
	.byte	16
	.section	.text.__floatdidf,"ax",@progbits
                                        // -- End function
	.file	3 "/root" "uPIMulator_frontend/sdk/syslib/int_types.h"