	.text
	.file	"floatundidf.c"
	.file	1 "/root" "uPIMulator_frontend/sdk/syslib/floatundidf.c"
	.section	.text.__floatundidf,"ax",@progbits
	.globl	__floatundidf                   // -- Begin function __floatundidf
	.type	__floatundidf,@function
__floatundidf:                          // @__floatundidf
.Lfunc_begin0:
	.loc	1 32 0                          // uPIMulator_frontend/sdk/syslib/floatundidf.c:32:0
	.cfi_sections .debug_frame
	.cfi_startproc
// %bb.0:
	//DEBUG_VALUE: __floatundidf:a <- $d0
	//DEBUG_VALUE: __floatundidf:a <- $d0
	.cfi_def_cfa_offset -16
	.cfi_offset 23, -8
	.cfi_offset 22, -4
	sd r22, 8, d22
	add r22, r22, 16
	.cfi_offset 15, -16
	.cfi_offset 14, -12
.Ltmp0:
	sd r22, -16, d14
.Ltmp1:
	//DEBUG_VALUE: __floatundidf:high <- 4985484787499139072
	//DEBUG_VALUE: __floatundidf:low <- 4841369599423283200
	.loc	1 46 17 prologue_end            // uPIMulator_frontend/sdk/syslib/floatundidf.c:46:17
	move.u d2, r0
	.loc	1 46 12 is_stmt 0               // uPIMulator_frontend/sdk/syslib/floatundidf.c:46:12
	or r5, r3, 0
	or r4, r2, 1160773632
.Ltmp2:
	//DEBUG_VALUE: __floatundidf:high <- $d4
	.loc	1 47 16 is_stmt 1               // uPIMulator_frontend/sdk/syslib/floatundidf.c:47:16
	and r1, r1, 4294967295
.Ltmp3:
	and r0, r0, 0
	.loc	1 47 11 is_stmt 0               // uPIMulator_frontend/sdk/syslib/floatundidf.c:47:11
	or r15, r1, 0
	or r14, r0, 1127219200
.Ltmp4:
	//DEBUG_VALUE: __floatundidf:low <- $d14
	.loc	1 0 11                          // uPIMulator_frontend/sdk/syslib/floatundidf.c:0:11
	move r3, 1048576
	move r2, 3308257280
	.loc	1 49 35 is_stmt 1               // uPIMulator_frontend/sdk/syslib/floatundidf.c:49:35
	movd d0, d4
	call r23, __adddf3
.Ltmp5:
	.loc	1 49 57 is_stmt 0               // uPIMulator_frontend/sdk/syslib/floatundidf.c:49:57
	movd d2, d14
	call r23, __adddf3
.Ltmp6:
	//DEBUG_VALUE: __floatundidf:result <- undef
	.loc	1 50 5 is_stmt 1                // uPIMulator_frontend/sdk/syslib/floatundidf.c:50:5
	ld d14, r22, -16
.Ltmp7:
	ld d22, r22, -8
	jump r23
.Ltmp8:
.Lfunc_end0:
	.size	__floatundidf, .Lfunc_end0-__floatundidf
	.cfi_endproc
	.section	.stack_sizes,"o",@progbits,.text.__floatundidf
	.long	.Lfunc_begin0
	.byte	16
	.section	.text.__floatundidf,"ax",@progbits
                                        // -- End function
	.file	2 "/root" "uPIMulator_frontend/sdk/syslib/int_types.h"
	.file	3 "/root" "uPIMulator_frontend/sdk/stdlib/stdint.h"