	.text
	.file	"fsb_allocator.c"
	.file	1 "/root" "uPIMulator_frontend/sdk/stdlib/stdint.h"
	.file	2 "/root" "uPIMulator_frontend/sdk/syslib/fsb_allocator.c"
	.file	3 "/root" "uPIMulator_frontend/sdk/syslib/fsb_allocator.h"
	.section	.text.fsb_alloc,"ax",@progbits
	.globl	fsb_alloc                       // -- Begin function fsb_alloc
	.type	fsb_alloc,@function
fsb_alloc:                              // @fsb_alloc
.Lfunc_begin0:
	.loc	2 18 0                          // uPIMulator_frontend/sdk/syslib/fsb_allocator.c:18:0
	.cfi_sections .debug_frame
	.cfi_startproc
// %bb.0:
	//DEBUG_VALUE: fsb_alloc:block_size <- $r0
	//DEBUG_VALUE: fsb_alloc:nb_of_blocks <- $r1
	.cfi_def_cfa_offset -16
	.cfi_offset 23, -8
	.cfi_offset 22, -4
	sd r22, 8, d22
	add r22, r22, 16
	.cfi_offset 15, -16
	.cfi_offset 14, -12
	sd r22, -16, d14
	move r15, r1
.Ltmp0:
	//DEBUG_VALUE: fsb_alloc:nb_of_blocks <- $r15
	//DEBUG_VALUE: fsb_alloc:block_size <- $r0
	.loc	2 19 9 prologue_end             // uPIMulator_frontend/sdk/syslib/fsb_allocator.c:19:9
	jgeu r0, -7, .LBB0_9
.Ltmp1:
// %bb.1:
	//DEBUG_VALUE: fsb_alloc:nb_of_blocks <- $r15
	//DEBUG_VALUE: fsb_alloc:block_size <- $r0
	.loc	2 24 18                         // uPIMulator_frontend/sdk/syslib/fsb_allocator.c:24:18
	jeq r0, 0, .LBB0_2
.Ltmp2:
// %bb.3:
	//DEBUG_VALUE: fsb_alloc:nb_of_blocks <- $r15
	//DEBUG_VALUE: fsb_alloc:block_size <- $r0
	.loc	2 0 18 is_stmt 0                // uPIMulator_frontend/sdk/syslib/fsb_allocator.c:0:18
	add r0, r0, 7
.Ltmp3:
	and r14, r0, -8, true, .LBB0_4
.Ltmp4:
.LBB0_2:
	//DEBUG_VALUE: fsb_alloc:nb_of_blocks <- $r15
	//DEBUG_VALUE: fsb_alloc:block_size <- $r0
	move r14, 8
.Ltmp5:
.LBB0_4:
	//DEBUG_VALUE: fsb_alloc:nb_of_blocks <- $r15
	//DEBUG_VALUE: fsb_alloc:block_size <- $r14
	.loc	2 26 56 is_stmt 1               // uPIMulator_frontend/sdk/syslib/fsb_allocator.c:26:56
	move r0, r14
	move r1, r15
	call r23, __mulsi3
.Ltmp6:
	.loc	2 26 71 is_stmt 0               // uPIMulator_frontend/sdk/syslib/fsb_allocator.c:26:71
	or r0, r0, 4
.Ltmp7:
	//DEBUG_VALUE: fsb_alloc:memory_space_to_allocate <- $r0
	.loc	2 27 20 is_stmt 1               // uPIMulator_frontend/sdk/syslib/fsb_allocator.c:27:20
	call r23, mem_alloc
.Ltmp8:
	//DEBUG_VALUE: fsb_alloc:first_block <- $r0
	//DEBUG_VALUE: fsb_alloc:memory <- $r0
	.loc	2 0 0 is_stmt 0                 // uPIMulator_frontend/sdk/syslib/fsb_allocator.c:0:0
	move r2, r0
.Ltmp9:
	//DEBUG_VALUE: each_block <- 0
	.loc	2 31 65 is_stmt 1               // uPIMulator_frontend/sdk/syslib/fsb_allocator.c:31:65
	add r1, r15, -1, z, .LBB0_8
.Ltmp10:
// %bb.5:
	//DEBUG_VALUE: fsb_alloc:nb_of_blocks <- $r15
	//DEBUG_VALUE: fsb_alloc:block_size <- $r14
	//DEBUG_VALUE: fsb_alloc:memory <- $r0
	//DEBUG_VALUE: fsb_alloc:first_block <- $r0
	//DEBUG_VALUE: fsb_alloc:memory_space_to_allocate <- $r0
	//DEBUG_VALUE: each_block <- 0
	.loc	2 31 5 is_stmt 0                // uPIMulator_frontend/sdk/syslib/fsb_allocator.c:31:5
	add r3, r14, r0
	move r2, 0
.Ltmp11:
.LBB0_6:                                // =>This Inner Loop Header: Depth=1
	//DEBUG_VALUE: fsb_alloc:nb_of_blocks <- $r15
	//DEBUG_VALUE: fsb_alloc:block_size <- $r14
	//DEBUG_VALUE: fsb_alloc:first_block <- $r0
	//DEBUG_VALUE: fsb_alloc:memory_space_to_allocate <- $r0
	//DEBUG_VALUE: fsb_alloc:memory <- undef
	//DEBUG_VALUE: each_block <- undef
	//DEBUG_VALUE: next_block_address <- undef
	.loc	2 33 11 is_stmt 1               // uPIMulator_frontend/sdk/syslib/fsb_allocator.c:33:11
	add r4, r3, r2
	.loc	2 33 35 is_stmt 0               // uPIMulator_frontend/sdk/syslib/fsb_allocator.c:33:35
	add r5, r0, r2
	sw r5, 0, r4
.Ltmp12:
	//DEBUG_VALUE: each_block <- [DW_OP_plus_uconst 1, DW_OP_stack_value] undef
	//DEBUG_VALUE: fsb_alloc:memory <- undef
	.loc	2 31 50 is_stmt 1               // uPIMulator_frontend/sdk/syslib/fsb_allocator.c:31:50
	add r2, r2, r14
	add r1, r1, -1, nz, .LBB0_6
.Ltmp13:
// %bb.7:
	//DEBUG_VALUE: fsb_alloc:nb_of_blocks <- $r15
	//DEBUG_VALUE: fsb_alloc:block_size <- $r14
	//DEBUG_VALUE: fsb_alloc:first_block <- $r0
	//DEBUG_VALUE: fsb_alloc:memory_space_to_allocate <- $r0
	.loc	2 29 32                         // uPIMulator_frontend/sdk/syslib/fsb_allocator.c:29:32
	add r2, r0, r2
.Ltmp14:
.LBB0_8:
	//DEBUG_VALUE: fsb_alloc:nb_of_blocks <- $r15
	//DEBUG_VALUE: fsb_alloc:block_size <- $r14
	//DEBUG_VALUE: fsb_alloc:first_block <- $r0
	//DEBUG_VALUE: fsb_alloc:memory_space_to_allocate <- $r0
	//DEBUG_VALUE: fsb_alloc:first_block <- $r0
	.loc	2 37 31                         // uPIMulator_frontend/sdk/syslib/fsb_allocator.c:37:31
	sw r2, 0, 0
	.loc	2 38 12                         // uPIMulator_frontend/sdk/syslib/fsb_allocator.c:38:12
	add r1, r2, r14
.Ltmp15:
	//DEBUG_VALUE: fsb_alloc:free_ptr <- $r1
	//DEBUG_VALUE: fsb_alloc:memory <- $r1
	.loc	2 41 33                         // uPIMulator_frontend/sdk/syslib/fsb_allocator.c:41:33
	sw r1, 0, r0
	.loc	2 43 5                          // uPIMulator_frontend/sdk/syslib/fsb_allocator.c:43:5
	move r0, r1
.Ltmp16:
	ld d14, r22, -16
.Ltmp17:
	ld d22, r22, -8
	jump r23
.Ltmp18:
.LBB0_9:
	//DEBUG_VALUE: fsb_alloc:nb_of_blocks <- $r15
	//DEBUG_VALUE: fsb_alloc:block_size <- $r0
	.loc	2 20 9                          // uPIMulator_frontend/sdk/syslib/fsb_allocator.c:20:9
	// inline asm
	fault 1
	// inline asm
.Ltmp19:
.Lfunc_end0:
	.size	fsb_alloc, .Lfunc_end0-fsb_alloc
	.cfi_endproc
	.section	.stack_sizes,"o",@progbits,.text.fsb_alloc
	.long	.Lfunc_begin0
	.byte	16
	.section	.text.fsb_alloc,"ax",@progbits
                                        // -- End function
	.section	.text.fsb_get,"ax",@progbits
	.globl	fsb_get                         // -- Begin function fsb_get
	.type	fsb_get,@function
fsb_get:                                // @fsb_get
.Lfunc_begin1:
	.loc	2 49 0                          // uPIMulator_frontend/sdk/syslib/fsb_allocator.c:49:0
	.cfi_startproc
// %bb.0:
	//DEBUG_VALUE: fsb_get:allocator <- $r0
	.cfi_def_cfa_offset 0
	.loc	2 51 5 prologue_end             // uPIMulator_frontend/sdk/syslib/fsb_allocator.c:51:5
	// inline asm
.Ltmp20:
	acquire zero, __atomic_bit___fsb_lock, nz, .Ltmp20
	// inline asm
	move r1, r0
.Ltmp21:
	//DEBUG_VALUE: fsb_get:allocator <- $r1
	.loc	2 52 5                          // uPIMulator_frontend/sdk/syslib/fsb_allocator.c:52:5
	// inline asm
	lw r0, r1, 0
	// inline asm
.Ltmp22:
	//DEBUG_VALUE: fsb_get:result <- $r0
	.loc	2 54 9                          // uPIMulator_frontend/sdk/syslib/fsb_allocator.c:54:9
	jeq r0, 0, .LBB1_1
.Ltmp23:
// %bb.2:
	//DEBUG_VALUE: fsb_get:allocator <- $r1
	//DEBUG_VALUE: fsb_get:result <- $r0
	.loc	2 59 18                         // uPIMulator_frontend/sdk/syslib/fsb_allocator.c:59:18
	lw r2, r0, 0
.Ltmp24:
	//DEBUG_VALUE: fsb_get:next <- $r2
	.loc	2 61 5                          // uPIMulator_frontend/sdk/syslib/fsb_allocator.c:61:5
	// inline asm
	sw r1, 0, r2
	// inline asm
	.loc	2 62 5                          // uPIMulator_frontend/sdk/syslib/fsb_allocator.c:62:5
	// inline asm
.Ltmp25:
	release zero, __atomic_bit___fsb_lock, nz, .Ltmp25+1
	// inline asm
	.loc	2 65 1                          // uPIMulator_frontend/sdk/syslib/fsb_allocator.c:65:1
	jump r23
.Ltmp26:
.LBB1_1:
	//DEBUG_VALUE: fsb_get:allocator <- $r1
	//DEBUG_VALUE: fsb_get:result <- $r0
	.loc	2 55 9                          // uPIMulator_frontend/sdk/syslib/fsb_allocator.c:55:9
	// inline asm
.Ltmp27:
	release zero, __atomic_bit___fsb_lock, nz, .Ltmp27+1
	// inline asm
	move r0, 0
.Ltmp28:
	.loc	2 65 1                          // uPIMulator_frontend/sdk/syslib/fsb_allocator.c:65:1
	jump r23
.Ltmp29:
.Lfunc_end1:
	.size	fsb_get, .Lfunc_end1-fsb_get
	.cfi_endproc
	.section	.stack_sizes,"o",@progbits,.text.fsb_get
	.long	.Lfunc_begin1
	.byte	0
	.section	.text.fsb_get,"ax",@progbits
                                        // -- End function
	.section	.text.fsb_free,"ax",@progbits
	.globl	fsb_free                        // -- Begin function fsb_free
	.type	fsb_free,@function
fsb_free:                               // @fsb_free
.Lfunc_begin2:
	.loc	2 70 0                          // uPIMulator_frontend/sdk/syslib/fsb_allocator.c:70:0
	.cfi_startproc
// %bb.0:
	//DEBUG_VALUE: fsb_free:allocator <- $r0
	//DEBUG_VALUE: fsb_free:allocator <- $r0
	//DEBUG_VALUE: fsb_free:ptr <- $r1
	//DEBUG_VALUE: fsb_free:ptr <- $r1
	.cfi_def_cfa_offset 0
	.loc	2 72 5 prologue_end             // uPIMulator_frontend/sdk/syslib/fsb_allocator.c:72:5
	// inline asm
.Ltmp30:
	acquire zero, __atomic_bit___fsb_lock, nz, .Ltmp30
	// inline asm
	.loc	2 73 5                          // uPIMulator_frontend/sdk/syslib/fsb_allocator.c:73:5
	// inline asm
	lw r2, r0, 0
	// inline asm
.Ltmp31:
	//DEBUG_VALUE: fsb_free:next_free <- $r2
	.loc	2 75 21                         // uPIMulator_frontend/sdk/syslib/fsb_allocator.c:75:21
	sw r1, 0, r2
	.loc	2 77 5                          // uPIMulator_frontend/sdk/syslib/fsb_allocator.c:77:5
	// inline asm
	sw r0, 0, r1
	// inline asm
	.loc	2 78 5                          // uPIMulator_frontend/sdk/syslib/fsb_allocator.c:78:5
	// inline asm
.Ltmp32:
	release zero, __atomic_bit___fsb_lock, nz, .Ltmp32+1
	// inline asm
	.loc	2 79 1                          // uPIMulator_frontend/sdk/syslib/fsb_allocator.c:79:1
	jump r23
.Ltmp33:
.Lfunc_end2:
	.size	fsb_free, .Lfunc_end2-fsb_free
	.cfi_endproc
	.section	.stack_sizes,"o",@progbits,.text.fsb_free
	.long	.Lfunc_begin2
	.byte	0
	.section	.text.fsb_free,"ax",@progbits
                                        // -- End function
	.type	__atomic_bit___fsb_lock,@object // @__atomic_bit___fsb_lock
	.section	.atomic,"aw",@progbits
	.globl	__atomic_bit___fsb_lock
__atomic_bit___fsb_lock:
	.byte	0                               // 0x0
	.size	__atomic_bit___fsb_lock, 1
