	.text
	.file	"listener.c"
	.file	1 "/root" "uPIMulator_frontend/sdk/stdlib/stdint.h"
	.section	.text.__sys_internal_listener_loop,"ax",@progbits
	.globl	__sys_internal_listener_loop    // -- Begin function __sys_internal_listener_loop
	.type	__sys_internal_listener_loop,@function
__sys_internal_listener_loop:           // @__sys_internal_listener_loop
.Lfunc_begin0:
	.file	2 "/root" "uPIMulator_frontend/sdk/syslib/listener.c"
	.loc	2 47 0                          // uPIMulator_frontend/sdk/syslib/listener.c:47:0
	.cfi_sections .debug_frame
	.cfi_startproc
// %bb.0:
	//DEBUG_VALUE: __sys_internal_listener_loop:request <- $r0
	//DEBUG_VALUE: __sys_internal_listener_loop:request_size <- $r1
	.cfi_def_cfa_offset -32
	.cfi_offset 23, -8
	.cfi_offset 22, -4
	sd r22, 24, d22
	add r22, r22, 32
	.cfi_offset 15, -16
	.cfi_offset 14, -12
.Ltmp0:
	sd r22, -16, d14
	.cfi_offset 17, -24
	.cfi_offset 16, -20
	sd r22, -24, d16
	.cfi_offset 19, -32
	.cfi_offset 18, -28
	sd r22, -32, d18
	.loc	2 30 27 prologue_end            // uPIMulator_frontend/sdk/syslib/listener.c:30:27
	lhu r2, id4, __sys_fifo_table_ptr
	.loc	2 30 12 is_stmt 0               // uPIMulator_frontend/sdk/syslib/listener.c:30:12
	lw r14, r2, 0
.Ltmp1:
	//DEBUG_VALUE: fifo_sys_fetch_info:fid <- 0
	//DEBUG_VALUE: __sys_internal_listener_loop:self_fifo_info <- $r14
	.loc	2 23 12 is_stmt 1               // uPIMulator_frontend/sdk/syslib/listener.c:23:12
	lw r15, zero, __sys_fifo_sys_table
.Ltmp2:
	//DEBUG_VALUE: __sys_internal_listener_loop:from_host_fifo_info <- $r15
	move r2, __sys_fifo_sys_table
.Ltmp3:
	//DEBUG_VALUE: fifo_sys_fetch_info:fid <- 1
	.loc	2 23 12 is_stmt 0               // uPIMulator_frontend/sdk/syslib/listener.c:23:12
	lw r16, r2, 4
.Ltmp4:
	//DEBUG_VALUE: __sys_internal_listener_loop:to_host_fifo_info <- $r16
	.loc	2 0 12                          // uPIMulator_frontend/sdk/syslib/listener.c:0:12
	move r17, r1
.Ltmp5:
	//DEBUG_VALUE: __sys_internal_listener_loop:request_size <- $r17
	move r18, r0
.Ltmp6:
	//DEBUG_VALUE: __sys_internal_listener_loop:request <- $r18
	.file	3 "/root" "uPIMulator_frontend/sdk/syslib/defs.h"
	.loc	3 35 12 is_stmt 1               // uPIMulator_frontend/sdk/syslib/defs.h:35:12
	move r19, id
.Ltmp7:
	//DEBUG_VALUE: fifo_fetch_info:recipient <- $r19
	//DEBUG_VALUE: __sys_internal_listener_loop:id <- $r19
.LBB0_1:                                // =>This Loop Header: Depth=1
                                        //     Child Loop BB0_2 Depth 2
	//DEBUG_VALUE: __sys_internal_listener_loop:id <- $r19
	//DEBUG_VALUE: __sys_internal_listener_loop:request <- $r18
	//DEBUG_VALUE: __sys_internal_listener_loop:request_size <- $r17
	//DEBUG_VALUE: __sys_internal_listener_loop:to_host_fifo_info <- $r16
	//DEBUG_VALUE: __sys_internal_listener_loop:from_host_fifo_info <- $r15
	//DEBUG_VALUE: __sys_internal_listener_loop:self_fifo_info <- $r14
	.loc	2 58 13                         // uPIMulator_frontend/sdk/syslib/listener.c:58:13
	move r0, r14
	move r1, r18
	move r2, r17
	call r23, fetch_request
.Ltmp8:
	.loc	2 58 13 is_stmt 0               // uPIMulator_frontend/sdk/syslib/listener.c:58:13
	jeq r0, 0, .LBB0_4
.Ltmp9:
.LBB0_2:                                //   Parent Loop BB0_1 Depth=1
                                        // =>  This Inner Loop Header: Depth=2
	//DEBUG_VALUE: __sys_internal_listener_loop:id <- $r19
	//DEBUG_VALUE: __sys_internal_listener_loop:request <- $r18
	//DEBUG_VALUE: __sys_internal_listener_loop:request_size <- $r17
	//DEBUG_VALUE: __sys_internal_listener_loop:to_host_fifo_info <- $r16
	//DEBUG_VALUE: __sys_internal_listener_loop:from_host_fifo_info <- $r15
	//DEBUG_VALUE: __sys_internal_listener_loop:self_fifo_info <- $r14
	.loc	2 59 20 is_stmt 1               // uPIMulator_frontend/sdk/syslib/listener.c:59:20
	move r0, r16
	move r1, r17
	call r23, fifo_is_full
.Ltmp10:
	.loc	2 59 13 is_stmt 0               // uPIMulator_frontend/sdk/syslib/listener.c:59:13
	jnz r0, .LBB0_2
.Ltmp11:
// %bb.3:                               //   in Loop: Header=BB0_1 Depth=1
	//DEBUG_VALUE: __sys_internal_listener_loop:id <- $r19
	//DEBUG_VALUE: __sys_internal_listener_loop:request <- $r18
	//DEBUG_VALUE: __sys_internal_listener_loop:request_size <- $r17
	//DEBUG_VALUE: __sys_internal_listener_loop:to_host_fifo_info <- $r16
	//DEBUG_VALUE: __sys_internal_listener_loop:from_host_fifo_info <- $r15
	//DEBUG_VALUE: __sys_internal_listener_loop:self_fifo_info <- $r14
	.loc	2 64 13 is_stmt 1               // uPIMulator_frontend/sdk/syslib/listener.c:64:13
	move r0, r16
	move r1, r18
	move r2, r17
	call r23, fifo_produce
.Ltmp12:
.LBB0_4:                                //   in Loop: Header=BB0_1 Depth=1
	//DEBUG_VALUE: __sys_internal_listener_loop:id <- $r19
	//DEBUG_VALUE: __sys_internal_listener_loop:request <- $r18
	//DEBUG_VALUE: __sys_internal_listener_loop:request_size <- $r17
	//DEBUG_VALUE: __sys_internal_listener_loop:to_host_fifo_info <- $r16
	//DEBUG_VALUE: __sys_internal_listener_loop:from_host_fifo_info <- $r15
	//DEBUG_VALUE: __sys_internal_listener_loop:self_fifo_info <- $r14
	.loc	2 66 13                         // uPIMulator_frontend/sdk/syslib/listener.c:66:13
	move r0, r15
	move r1, r18
	move r2, r17
	call r23, fetch_request
.Ltmp13:
	.loc	2 66 13 is_stmt 0               // uPIMulator_frontend/sdk/syslib/listener.c:66:13
	jeq r0, 0, .LBB0_1
.Ltmp14:
// %bb.5:                               //   in Loop: Header=BB0_1 Depth=1
	//DEBUG_VALUE: __sys_internal_listener_loop:id <- $r19
	//DEBUG_VALUE: __sys_internal_listener_loop:request <- $r18
	//DEBUG_VALUE: __sys_internal_listener_loop:request_size <- $r17
	//DEBUG_VALUE: __sys_internal_listener_loop:to_host_fifo_info <- $r16
	//DEBUG_VALUE: __sys_internal_listener_loop:from_host_fifo_info <- $r15
	//DEBUG_VALUE: __sys_internal_listener_loop:self_fifo_info <- $r14
	.loc	2 67 51 is_stmt 1               // uPIMulator_frontend/sdk/syslib/listener.c:67:51
	lw r1, r18, 0
.Ltmp15:
	//DEBUG_VALUE: fetch_recipient:id <- $r1
	.loc	2 36 15                         // uPIMulator_frontend/sdk/syslib/listener.c:36:15
	lsr r0, r1, 24
.Ltmp16:
	//DEBUG_VALUE: recipient <- $r0
	.loc	2 70 17                         // uPIMulator_frontend/sdk/syslib/listener.c:70:17
	jeq r0, r19, .LBB0_7
.Ltmp17:
// %bb.6:                               //   in Loop: Header=BB0_1 Depth=1
	//DEBUG_VALUE: __sys_internal_listener_loop:id <- $r19
	//DEBUG_VALUE: __sys_internal_listener_loop:request <- $r18
	//DEBUG_VALUE: __sys_internal_listener_loop:request_size <- $r17
	//DEBUG_VALUE: __sys_internal_listener_loop:to_host_fifo_info <- $r16
	//DEBUG_VALUE: __sys_internal_listener_loop:from_host_fifo_info <- $r15
	//DEBUG_VALUE: __sys_internal_listener_loop:self_fifo_info <- $r14
	//DEBUG_VALUE: recipient <- $r0
	//DEBUG_VALUE: fetch_request_id:id <- $r1
	.loc	2 42 15                         // uPIMulator_frontend/sdk/syslib/listener.c:42:15
	and r1, r1, 16777215
.Ltmp18:
	.loc	2 73 24                         // uPIMulator_frontend/sdk/syslib/listener.c:73:24
	sw r18, 0, r1
	.loc	2 76 13                         // uPIMulator_frontend/sdk/syslib/listener.c:76:13
	move r1, r18
	move r2, r17
	call r23, internal_actor_send
.Ltmp19:
	.loc	2 0 13 is_stmt 0                // uPIMulator_frontend/sdk/syslib/listener.c:0:13
	jump .LBB0_1
.Ltmp20:
.LBB0_7:
	//DEBUG_VALUE: __sys_internal_listener_loop:id <- $r19
	//DEBUG_VALUE: __sys_internal_listener_loop:request <- $r18
	//DEBUG_VALUE: __sys_internal_listener_loop:request_size <- $r17
	//DEBUG_VALUE: __sys_internal_listener_loop:to_host_fifo_info <- $r16
	//DEBUG_VALUE: __sys_internal_listener_loop:from_host_fifo_info <- $r15
	//DEBUG_VALUE: __sys_internal_listener_loop:self_fifo_info <- $r14
	.loc	2 82 1 is_stmt 1                // uPIMulator_frontend/sdk/syslib/listener.c:82:1
	ld d18, r22, -32
.Ltmp21:
	ld d16, r22, -24
.Ltmp22:
	ld d14, r22, -16
.Ltmp23:
	ld d22, r22, -8
	jump r23
.Ltmp24:
.Lfunc_end0:
	.size	__sys_internal_listener_loop, .Lfunc_end0-__sys_internal_listener_loop
	.cfi_endproc
	.file	4 "/root" "uPIMulator_frontend/sdk/syslib/sysdef.h"
	.section	.stack_sizes,"o",@progbits,.text.__sys_internal_listener_loop
	.long	.Lfunc_begin0
	.byte	32
	.section	.text.__sys_internal_listener_loop,"ax",@progbits
                                        // -- End function