	.text
	.file	"moddi3.c"
	.section	.text.__moddi3,"ax",@progbits
	.globl	__moddi3                        // -- Begin function __moddi3
	.type	__moddi3,@function
__moddi3:                               // @__moddi3
.Lfunc_begin0:
	.file	1 "/root" "uPIMulator_frontend/sdk/syslib/moddi3.c"
	.loc	1 17 0                          // uPIMulator_frontend/sdk/syslib/moddi3.c:17:0
	.cfi_sections .debug_frame
	.cfi_startproc
// %bb.0:
	//DEBUG_VALUE: __moddi3:dividend <- $d0
	//DEBUG_VALUE: __moddi3:divider <- $d2
	.cfi_def_cfa_offset -16
	.cfi_offset 23, -8
	.cfi_offset 22, -4
	sd r22, 8, d22
	add r22, r22, 16
	.cfi_offset 15, -16
	.cfi_offset 14, -12
	sd r22, -16, d14
	move.s d4, 0
	//DEBUG_VALUE: __moddi3:divider <- $d2
	//DEBUG_VALUE: __moddi3:dividend <- $d0
.Ltmp0:
	.loc	1 18 9 prologue_end             // uPIMulator_frontend/sdk/syslib/moddi3.c:18:9
	sub zero, r1, r5
	subc zero, r0, r4, lts, .LBB0_4
.Ltmp1:
// %bb.1:
	//DEBUG_VALUE: __moddi3:divider <- $d2
	//DEBUG_VALUE: __moddi3:dividend <- $d0
	.loc	1 19 13                         // uPIMulator_frontend/sdk/syslib/moddi3.c:19:13
	sub zero, r3, r5
	subc zero, r2, r4, ges, .LBB0_2
.Ltmp2:
// %bb.3:
	//DEBUG_VALUE: __moddi3:divider <- $d2
	//DEBUG_VALUE: __moddi3:dividend <- $d0
	.loc	1 0 13 is_stmt 0                // uPIMulator_frontend/sdk/syslib/moddi3.c:0:13
	move.s d4, 0
.Ltmp3:
	.loc	1 22 39 is_stmt 1               // uPIMulator_frontend/sdk/syslib/moddi3.c:22:39
	sub r3, r5, r3
.Ltmp4:
	subc r2, r4, r2
.Ltmp5:
.LBB0_2:
	//DEBUG_VALUE: __moddi3:dividend <- $d0
	.loc	1 0 39 is_stmt 0                // uPIMulator_frontend/sdk/syslib/moddi3.c:0:39
	move r4, 1
	call r23, __udiv64
.Ltmp6:
	.loc	1 31 1 is_stmt 1                // uPIMulator_frontend/sdk/syslib/moddi3.c:31:1
	ld d14, r22, -16
	ld d22, r22, -8
	jump r23
.Ltmp7:
.LBB0_4:
	//DEBUG_VALUE: __moddi3:divider <- $d2
	//DEBUG_VALUE: __moddi3:dividend <- $d0
	.loc	1 0 0 is_stmt 0                 // uPIMulator_frontend/sdk/syslib/moddi3.c:0:0
	sub r1, r5, r1
.Ltmp8:
	subc r0, r4, r0
.Ltmp9:
	.loc	1 24 16 is_stmt 1               // uPIMulator_frontend/sdk/syslib/moddi3.c:24:16
	sub zero, r3, r5
	subc zero, r2, r4, lts, .LBB0_6
.Ltmp10:
// %bb.5:
	//DEBUG_VALUE: __moddi3:divider <- $d2
	.loc	1 0 16 is_stmt 0                // uPIMulator_frontend/sdk/syslib/moddi3.c:0:16
	move r4, 1
.Ltmp11:
	.loc	1 26 17 is_stmt 1               // uPIMulator_frontend/sdk/syslib/moddi3.c:26:17
	call r23, __udiv64
.Ltmp12:
	.loc	1 0 17 is_stmt 0                // uPIMulator_frontend/sdk/syslib/moddi3.c:0:17
	move.s d2, 0
.Ltmp13:
	.loc	1 26 16                         // uPIMulator_frontend/sdk/syslib/moddi3.c:26:16
	sub r1, r3, r1
	subc r0, r2, r0
.Ltmp14:
	.loc	1 31 1 is_stmt 1                // uPIMulator_frontend/sdk/syslib/moddi3.c:31:1
	ld d14, r22, -16
	ld d22, r22, -8
	jump r23
.LBB0_6:
.Ltmp15:
	//DEBUG_VALUE: __moddi3:divider <- $d2
	.loc	1 0 1 is_stmt 0                 // uPIMulator_frontend/sdk/syslib/moddi3.c:0:1
	move.s d14, 0
.Ltmp16:
	.loc	1 29 37 is_stmt 1               // uPIMulator_frontend/sdk/syslib/moddi3.c:29:37
	sub r3, r15, r3
.Ltmp17:
	subc r2, r14, r2
	move r4, 1
	.loc	1 29 17 is_stmt 0               // uPIMulator_frontend/sdk/syslib/moddi3.c:29:17
	call r23, __udiv64
.Ltmp18:
	.loc	1 29 16                         // uPIMulator_frontend/sdk/syslib/moddi3.c:29:16
	sub r1, r15, r1
	subc r0, r14, r0
.Ltmp19:
	.loc	1 31 1 is_stmt 1                // uPIMulator_frontend/sdk/syslib/moddi3.c:31:1
	ld d14, r22, -16
	ld d22, r22, -8
	jump r23
.Ltmp20:
.Lfunc_end0:
	.size	__moddi3, .Lfunc_end0-__moddi3
	.cfi_endproc
	.section	.stack_sizes,"o",@progbits,.text.__moddi3
	.long	.Lfunc_begin0
	.byte	16
	.section	.text.__moddi3,"ax",@progbits
                                        // -- End function
	.file	2 "/root" "uPIMulator_frontend/sdk/stdlib/stdint.h"