	.text
	.file	"mul64.c"
	.file	1 "/root" "uPIMulator_frontend/sdk/stdlib/stdint.h"
	.section	.text.__muldi3,"ax",@progbits
	.globl	__muldi3                        // -- Begin function __muldi3
	.type	__muldi3,@function
__muldi3:                               // @__muldi3
.Lfunc_begin0:
	.file	2 "/root" "uPIMulator_frontend/sdk/syslib/mul64.c"
	.loc	2 133 0                         // uPIMulator_frontend/sdk/syslib/mul64.c:133:0
	.cfi_sections .debug_frame
	.cfi_startproc
// %bb.0:
	//DEBUG_VALUE: __muldi3:x <- $d0
	//DEBUG_VALUE: __muldi3:x <- $d0
	//DEBUG_VALUE: __muldi3:y <- $d2
	//DEBUG_VALUE: __muldi3:y <- $d2
	//DEBUG_VALUE: _mul00:a <- $r1
	//DEBUG_VALUE: _mul00:b <- $r3
	.cfi_def_cfa_offset 0
	.cfi_offset 15, 8
	.cfi_offset 14, 12
	sd r22, 8, d14
	.cfi_offset 17, 0
	.cfi_offset 16, 4
	sd r22, 0, d16
.Ltmp0:
	//DEBUG_VALUE: __muldi3:xl <- $r1
	//DEBUG_VALUE: __muldi3:xh <- $r0
	//DEBUG_VALUE: __muldi3:yl <- $r3
	//DEBUG_VALUE: __muldi3:yh <- $r2
	.loc	2 40 5 prologue_end             // uPIMulator_frontend/sdk/syslib/mul64.c:40:5
	// inline asm
	mul_ul_ul r4, r1, r3
	// inline asm
.Ltmp1:
	//DEBUG_VALUE: _mul00:r <- $r4
	.loc	2 144 10                        // uPIMulator_frontend/sdk/syslib/mul64.c:144:10
	and r4, r4, 65535
.Ltmp2:
	//DEBUG_VALUE: _mul01:b <- $r3
	//DEBUG_VALUE: _mul01:a <- $r1
	//DEBUG_VALUE: __muldi3:rl <- [DW_OP_LLVM_convert 32 7, DW_OP_LLVM_convert 64 7, DW_OP_stack_value] $r4
	//DEBUG_VALUE: __muldi3:p0 <- [DW_OP_LLVM_convert 32 7, DW_OP_LLVM_convert 64 7, DW_OP_stack_value] $r4
	.loc	2 52 5                          // uPIMulator_frontend/sdk/syslib/mul64.c:52:5
	// inline asm
	mul_ul_uh r5, r1, r3
	// inline asm
.Ltmp3:
	//DEBUG_VALUE: _mul01:r <- $r5
	.loc	2 145 10                        // uPIMulator_frontend/sdk/syslib/mul64.c:145:10
	and r5, r5, 65535
.Ltmp4:
	//DEBUG_VALUE: _mul01:b <- $r1
	//DEBUG_VALUE: _mul01:a <- $r3
	.loc	2 52 5                          // uPIMulator_frontend/sdk/syslib/mul64.c:52:5
	// inline asm
	mul_ul_uh r6, r3, r1
	// inline asm
.Ltmp5:
	//DEBUG_VALUE: _mul01:r <- $r6
	.loc	2 145 28                        // uPIMulator_frontend/sdk/syslib/mul64.c:145:28
	and r6, r6, 65535
	.loc	2 145 26 is_stmt 0              // uPIMulator_frontend/sdk/syslib/mul64.c:145:26
	add r5, r6, r5
.Ltmp6:
	//DEBUG_VALUE: __muldi3:p1 <- $r5
	.loc	2 146 8 is_stmt 1               // uPIMulator_frontend/sdk/syslib/mul64.c:146:8
	lsl_add r4, r4, r5, 8
.Ltmp7:
	move.u d6, r4
.Ltmp8:
	//DEBUG_VALUE: __muldi3:rl <- $d6
	.loc	2 147 10                        // uPIMulator_frontend/sdk/syslib/mul64.c:147:10
	lsr r4, r3, 16
.Ltmp9:
	//DEBUG_VALUE: _mul00:a <- $r1
	//DEBUG_VALUE: _mul00:b <- $r4
	.loc	2 40 5                          // uPIMulator_frontend/sdk/syslib/mul64.c:40:5
	// inline asm
	mul_ul_ul r5, r1, r4
	// inline asm
.Ltmp10:
	//DEBUG_VALUE: _mul00:r <- $r5
	.loc	2 147 10                        // uPIMulator_frontend/sdk/syslib/mul64.c:147:10
	and r8, r5, 65535
	.loc	2 147 28 is_stmt 0              // uPIMulator_frontend/sdk/syslib/mul64.c:147:28
	lsr r5, r1, 16
.Ltmp11:
	//DEBUG_VALUE: _mul00:a <- $r3
	//DEBUG_VALUE: _mul00:b <- $r5
	.loc	2 40 5 is_stmt 1                // uPIMulator_frontend/sdk/syslib/mul64.c:40:5
	// inline asm
	mul_ul_ul r9, r3, r5
	// inline asm
.Ltmp12:
	//DEBUG_VALUE: _mul00:r <- $r9
	.loc	2 147 28                        // uPIMulator_frontend/sdk/syslib/mul64.c:147:28
	and r9, r9, 65535
	.loc	2 147 26 is_stmt 0              // uPIMulator_frontend/sdk/syslib/mul64.c:147:26
	add r8, r9, r8
.Ltmp13:
	//DEBUG_VALUE: _mul11:b <- $r3
	//DEBUG_VALUE: _mul11:a <- $r1
	.loc	2 67 5 is_stmt 1                // uPIMulator_frontend/sdk/syslib/mul64.c:67:5
	// inline asm
	mul_uh_uh r9, r1, r3
	// inline asm
.Ltmp14:
	//DEBUG_VALUE: _mul11:r <- $r9
	.loc	2 147 46                        // uPIMulator_frontend/sdk/syslib/mul64.c:147:46
	and r9, r9, 65535
	.loc	2 147 44 is_stmt 0              // uPIMulator_frontend/sdk/syslib/mul64.c:147:44
	add r8, r8, r9
.Ltmp15:
	//DEBUG_VALUE: __muldi3:p2 <- $r8
	.loc	2 148 12 is_stmt 1              // uPIMulator_frontend/sdk/syslib/mul64.c:148:12
	move.u d8, r8
.Ltmp16:
	.loc	2 148 25 is_stmt 0              // uPIMulator_frontend/sdk/syslib/mul64.c:148:25
	lslx r10, r9, 16
	lsl_add r10, r10, r8, 16
	lsl r11, r9, 16
	.loc	2 148 8                         // uPIMulator_frontend/sdk/syslib/mul64.c:148:8
	add r7, r11, r7
.Ltmp17:
	addc r6, r10, r6
.Ltmp18:
	//DEBUG_VALUE: _mul01:b <- $r4
	//DEBUG_VALUE: _mul01:a <- $r1
	//DEBUG_VALUE: __muldi3:rl <- $d6
	.loc	2 52 5 is_stmt 1                // uPIMulator_frontend/sdk/syslib/mul64.c:52:5
	// inline asm
	mul_ul_uh r8, r1, r4
	// inline asm
.Ltmp19:
	//DEBUG_VALUE: _mul01:r <- $r8
	.loc	2 149 10                        // uPIMulator_frontend/sdk/syslib/mul64.c:149:10
	and r8, r8, 65535
.Ltmp20:
	//DEBUG_VALUE: _mul01:b <- $r5
	//DEBUG_VALUE: _mul01:a <- $r3
	.loc	2 52 5                          // uPIMulator_frontend/sdk/syslib/mul64.c:52:5
	// inline asm
	mul_ul_uh r9, r3, r5
	// inline asm
.Ltmp21:
	//DEBUG_VALUE: _mul01:r <- $r9
	.loc	2 149 28                        // uPIMulator_frontend/sdk/syslib/mul64.c:149:28
	and r9, r9, 65535
	.loc	2 149 26 is_stmt 0              // uPIMulator_frontend/sdk/syslib/mul64.c:149:26
	add r8, r9, r8
.Ltmp22:
	//DEBUG_VALUE: _mul12:r <- $r4
	//DEBUG_VALUE: _mul12:b <- $r3
	//DEBUG_VALUE: _mul12:a <- $r1
	.loc	2 79 5 is_stmt 1                // uPIMulator_frontend/sdk/syslib/mul64.c:79:5
	// inline asm
	mul_uh_ul r9, r1, r4
	// inline asm
.Ltmp23:
	//DEBUG_VALUE: _mul12:r <- $r9
	.loc	2 149 46                        // uPIMulator_frontend/sdk/syslib/mul64.c:149:46
	and r9, r9, 65535
.Ltmp24:
	.loc	2 149 44 is_stmt 0              // uPIMulator_frontend/sdk/syslib/mul64.c:149:44
	add r8, r8, r9
.Ltmp25:
	//DEBUG_VALUE: _mul12:r <- $r5
	//DEBUG_VALUE: _mul12:b <- $r1
	//DEBUG_VALUE: _mul12:a <- $r3
	.loc	2 79 5 is_stmt 1                // uPIMulator_frontend/sdk/syslib/mul64.c:79:5
	// inline asm
	mul_uh_ul r9, r3, r5
	// inline asm
.Ltmp26:
	//DEBUG_VALUE: _mul12:r <- $r9
	.loc	2 149 64                        // uPIMulator_frontend/sdk/syslib/mul64.c:149:64
	and r9, r9, 65535
.Ltmp27:
	.loc	2 149 62 is_stmt 0              // uPIMulator_frontend/sdk/syslib/mul64.c:149:62
	add r8, r8, r9
.Ltmp28:
	//DEBUG_VALUE: __muldi3:p3 <- $r8
	.loc	2 150 12 is_stmt 1              // uPIMulator_frontend/sdk/syslib/mul64.c:150:12
	move.u d10, r8
	.loc	2 150 25 is_stmt 0              // uPIMulator_frontend/sdk/syslib/mul64.c:150:25
	lslx r8, r11, 24
.Ltmp29:
	lsl_add r8, r8, r10, 24
	lsl r9, r11, 24
.Ltmp30:
	.loc	2 40 5 is_stmt 1                // uPIMulator_frontend/sdk/syslib/mul64.c:40:5
	// inline asm
	mul_ul_ul r10, r1, r2
	// inline asm
.Ltmp31:
	//DEBUG_VALUE: _mul00:r <- $r10
	.loc	2 151 10                        // uPIMulator_frontend/sdk/syslib/mul64.c:151:10
	and r10, r10, 65535
.Ltmp32:
	//DEBUG_VALUE: _mul00:b <- $r0
	//DEBUG_VALUE: _mul00:a <- $r3
	.loc	2 40 5                          // uPIMulator_frontend/sdk/syslib/mul64.c:40:5
	// inline asm
	mul_ul_ul r11, r3, r0
	// inline asm
.Ltmp33:
	//DEBUG_VALUE: _mul00:r <- $r11
	.loc	2 151 28                        // uPIMulator_frontend/sdk/syslib/mul64.c:151:28
	and r11, r11, 65535
	.loc	2 151 26 is_stmt 0              // uPIMulator_frontend/sdk/syslib/mul64.c:151:26
	add r10, r11, r10
.Ltmp34:
	//DEBUG_VALUE: _mul11:b <- $r4
	//DEBUG_VALUE: _mul11:a <- $r1
	.loc	2 67 5 is_stmt 1                // uPIMulator_frontend/sdk/syslib/mul64.c:67:5
	// inline asm
	mul_uh_uh r11, r1, r4
	// inline asm
.Ltmp35:
	//DEBUG_VALUE: _mul11:r <- $r11
	.loc	2 151 46                        // uPIMulator_frontend/sdk/syslib/mul64.c:151:46
	and r11, r11, 65535
	.loc	2 151 44 is_stmt 0              // uPIMulator_frontend/sdk/syslib/mul64.c:151:44
	add r10, r10, r11
.Ltmp36:
	//DEBUG_VALUE: _mul11:b <- $r5
	//DEBUG_VALUE: _mul11:a <- $r3
	.loc	2 67 5 is_stmt 1                // uPIMulator_frontend/sdk/syslib/mul64.c:67:5
	// inline asm
	mul_uh_uh r11, r3, r5
	// inline asm
.Ltmp37:
	//DEBUG_VALUE: _mul11:r <- $r11
	.loc	2 151 64                        // uPIMulator_frontend/sdk/syslib/mul64.c:151:64
	and r11, r11, 65535
	.loc	2 151 62 is_stmt 0              // uPIMulator_frontend/sdk/syslib/mul64.c:151:62
	add r10, r10, r11
.Ltmp38:
	//DEBUG_VALUE: _mul00:b <- $r4
	//DEBUG_VALUE: _mul00:a <- $r5
	.loc	2 40 5 is_stmt 1                // uPIMulator_frontend/sdk/syslib/mul64.c:40:5
	// inline asm
	mul_ul_ul r11, r5, r4
	// inline asm
.Ltmp39:
	//DEBUG_VALUE: _mul00:r <- $r11
	.loc	2 151 82                        // uPIMulator_frontend/sdk/syslib/mul64.c:151:82
	and r11, r11, 65535
	.loc	2 151 80 is_stmt 0              // uPIMulator_frontend/sdk/syslib/mul64.c:151:80
	add r10, r10, r11
.Ltmp40:
	//DEBUG_VALUE: _mul01:b <- $r2
	//DEBUG_VALUE: _mul01:a <- $r1
	//DEBUG_VALUE: __muldi3:rh <- $r10
	//DEBUG_VALUE: __muldi3:p4 <- $r10
	.loc	2 52 5 is_stmt 1                // uPIMulator_frontend/sdk/syslib/mul64.c:52:5
	// inline asm
	mul_ul_uh r11, r1, r2
	// inline asm
.Ltmp41:
	//DEBUG_VALUE: _mul01:r <- $r11
	.loc	2 153 10                        // uPIMulator_frontend/sdk/syslib/mul64.c:153:10
	and r11, r11, 65535
.Ltmp42:
	//DEBUG_VALUE: _mul01:b <- $r0
	//DEBUG_VALUE: _mul01:a <- $r3
	.loc	2 52 5                          // uPIMulator_frontend/sdk/syslib/mul64.c:52:5
	// inline asm
	mul_ul_uh r12, r3, r0
	// inline asm
.Ltmp43:
	//DEBUG_VALUE: _mul01:r <- $r12
	.loc	2 153 28                        // uPIMulator_frontend/sdk/syslib/mul64.c:153:28
	and r12, r12, 65535
	.loc	2 153 26 is_stmt 0              // uPIMulator_frontend/sdk/syslib/mul64.c:153:26
	add r11, r12, r11
.Ltmp44:
	//DEBUG_VALUE: _mul01:b <- $r1
	//DEBUG_VALUE: _mul01:a <- $r2
	.loc	2 52 5 is_stmt 1                // uPIMulator_frontend/sdk/syslib/mul64.c:52:5
	// inline asm
	mul_ul_uh r12, r2, r1
	// inline asm
.Ltmp45:
	//DEBUG_VALUE: _mul01:r <- $r12
	.loc	2 153 46                        // uPIMulator_frontend/sdk/syslib/mul64.c:153:46
	and r12, r12, 65535
	.loc	2 153 44 is_stmt 0              // uPIMulator_frontend/sdk/syslib/mul64.c:153:44
	add r11, r11, r12
.Ltmp46:
	//DEBUG_VALUE: _mul01:b <- $r3
	//DEBUG_VALUE: _mul01:a <- $r0
	.loc	2 52 5 is_stmt 1                // uPIMulator_frontend/sdk/syslib/mul64.c:52:5
	// inline asm
	mul_ul_uh r12, r0, r3
	// inline asm
.Ltmp47:
	//DEBUG_VALUE: _mul01:r <- $r12
	.loc	2 153 64                        // uPIMulator_frontend/sdk/syslib/mul64.c:153:64
	and r12, r12, 65535
	.loc	2 153 62 is_stmt 0              // uPIMulator_frontend/sdk/syslib/mul64.c:153:62
	add r11, r11, r12
.Ltmp48:
	//DEBUG_VALUE: _mul01:b <- $r4
	//DEBUG_VALUE: _mul01:a <- $r5
	.loc	2 52 5 is_stmt 1                // uPIMulator_frontend/sdk/syslib/mul64.c:52:5
	// inline asm
	mul_ul_uh r12, r5, r4
	// inline asm
.Ltmp49:
	//DEBUG_VALUE: _mul01:r <- $r12
	.loc	2 153 82                        // uPIMulator_frontend/sdk/syslib/mul64.c:153:82
	and r12, r12, 65535
	.loc	2 153 80 is_stmt 0              // uPIMulator_frontend/sdk/syslib/mul64.c:153:80
	add r11, r11, r12
.Ltmp50:
	//DEBUG_VALUE: _mul01:b <- $r5
	//DEBUG_VALUE: _mul01:a <- $r4
	.loc	2 52 5 is_stmt 1                // uPIMulator_frontend/sdk/syslib/mul64.c:52:5
	// inline asm
	mul_ul_uh r12, r4, r5
	// inline asm
.Ltmp51:
	//DEBUG_VALUE: _mul01:r <- $r12
	.loc	2 153 100                       // uPIMulator_frontend/sdk/syslib/mul64.c:153:100
	and r12, r12, 65535
	.loc	2 153 98 is_stmt 0              // uPIMulator_frontend/sdk/syslib/mul64.c:153:98
	add r11, r11, r12
.Ltmp52:
	//DEBUG_VALUE: __muldi3:p5 <- $r11
	.loc	2 154 8 is_stmt 1               // uPIMulator_frontend/sdk/syslib/mul64.c:154:8
	lsl_add r10, r10, r11, 8
.Ltmp53:
	//DEBUG_VALUE: __muldi3:rh <- $r10
	.loc	2 155 10                        // uPIMulator_frontend/sdk/syslib/mul64.c:155:10
	lsr.u d12, r2, 16
.Ltmp54:
	//DEBUG_VALUE: _mul00:a <- $r1
	//DEBUG_VALUE: _mul00:b <- $r13
	.loc	2 40 5                          // uPIMulator_frontend/sdk/syslib/mul64.c:40:5
	// inline asm
	mul_ul_ul r11, r1, r13
	// inline asm
.Ltmp55:
	//DEBUG_VALUE: _mul00:r <- $r11
	.loc	2 155 10                        // uPIMulator_frontend/sdk/syslib/mul64.c:155:10
	and r11, r11, 65535
	.loc	2 155 28 is_stmt 0              // uPIMulator_frontend/sdk/syslib/mul64.c:155:28
	lsr.u d14, r0, 16
.Ltmp56:
	//DEBUG_VALUE: _mul00:a <- $r3
	//DEBUG_VALUE: _mul00:b <- $r15
	.loc	2 40 5 is_stmt 1                // uPIMulator_frontend/sdk/syslib/mul64.c:40:5
	// inline asm
	mul_ul_ul r16, r3, r15
	// inline asm
.Ltmp57:
	//DEBUG_VALUE: _mul00:r <- $r16
	.loc	2 155 28                        // uPIMulator_frontend/sdk/syslib/mul64.c:155:28
	and r16, r16, 65535
	.loc	2 155 26 is_stmt 0              // uPIMulator_frontend/sdk/syslib/mul64.c:155:26
	add r11, r16, r11
.Ltmp58:
	//DEBUG_VALUE: _mul11:b <- $r2
	//DEBUG_VALUE: _mul11:a <- $r1
	.loc	2 67 5 is_stmt 1                // uPIMulator_frontend/sdk/syslib/mul64.c:67:5
	// inline asm
	mul_uh_uh r16, r1, r2
	// inline asm
.Ltmp59:
	//DEBUG_VALUE: _mul11:r <- $r16
	.loc	2 155 46                        // uPIMulator_frontend/sdk/syslib/mul64.c:155:46
	and r16, r16, 65535
	.loc	2 155 44 is_stmt 0              // uPIMulator_frontend/sdk/syslib/mul64.c:155:44
	add r11, r11, r16
.Ltmp60:
	//DEBUG_VALUE: _mul11:b <- $r0
	//DEBUG_VALUE: _mul11:a <- $r3
	.loc	2 67 5 is_stmt 1                // uPIMulator_frontend/sdk/syslib/mul64.c:67:5
	// inline asm
	mul_uh_uh r16, r3, r0
	// inline asm
.Ltmp61:
	//DEBUG_VALUE: _mul11:r <- $r16
	.loc	2 155 62                        // uPIMulator_frontend/sdk/syslib/mul64.c:155:62
	add r11, r11, r16
.Ltmp62:
	//DEBUG_VALUE: _mul00:b <- $r5
	//DEBUG_VALUE: _mul00:a <- $r2
	.loc	2 40 5                          // uPIMulator_frontend/sdk/syslib/mul64.c:40:5
	// inline asm
	mul_ul_ul r16, r2, r5
	// inline asm
.Ltmp63:
	//DEBUG_VALUE: _mul00:r <- $r16
	.loc	2 155 80                        // uPIMulator_frontend/sdk/syslib/mul64.c:155:80
	add r11, r11, r16
.Ltmp64:
	//DEBUG_VALUE: _mul00:b <- $r4
	//DEBUG_VALUE: _mul00:a <- $r0
	.loc	2 40 5                          // uPIMulator_frontend/sdk/syslib/mul64.c:40:5
	// inline asm
	mul_ul_ul r16, r0, r4
	// inline asm
.Ltmp65:
	//DEBUG_VALUE: _mul00:r <- $r16
	.loc	2 155 98                        // uPIMulator_frontend/sdk/syslib/mul64.c:155:98
	add r11, r11, r16
.Ltmp66:
	//DEBUG_VALUE: _mul11:b <- $r4
	//DEBUG_VALUE: _mul11:a <- $r5
	.loc	2 67 5                          // uPIMulator_frontend/sdk/syslib/mul64.c:67:5
	// inline asm
	mul_uh_uh r16, r5, r4
	// inline asm
.Ltmp67:
	//DEBUG_VALUE: _mul11:r <- $r16
	.loc	2 156 9                         // uPIMulator_frontend/sdk/syslib/mul64.c:156:9
	add r11, r11, r16
.Ltmp68:
	//DEBUG_VALUE: __muldi3:p6 <- undef
	.loc	2 157 8                         // uPIMulator_frontend/sdk/syslib/mul64.c:157:8
	lsl_add r10, r10, r11, 16
.Ltmp69:
	//DEBUG_VALUE: _mul01:b <- $r13
	//DEBUG_VALUE: _mul01:a <- $r1
	//DEBUG_VALUE: __muldi3:rh <- $r10
	.loc	2 52 5                          // uPIMulator_frontend/sdk/syslib/mul64.c:52:5
	// inline asm
	mul_ul_uh r11, r1, r13
	// inline asm
.Ltmp70:
	//DEBUG_VALUE: _mul01:r <- $r11
	.loc	2 158 10                        // uPIMulator_frontend/sdk/syslib/mul64.c:158:10
	and r11, r11, 65535
.Ltmp71:
	//DEBUG_VALUE: _mul01:b <- $r15
	//DEBUG_VALUE: _mul01:a <- $r3
	.loc	2 52 5                          // uPIMulator_frontend/sdk/syslib/mul64.c:52:5
	// inline asm
	mul_ul_uh r16, r3, r15
	// inline asm
.Ltmp72:
	//DEBUG_VALUE: _mul01:r <- $r16
	.loc	2 158 28                        // uPIMulator_frontend/sdk/syslib/mul64.c:158:28
	and r16, r16, 65535
	.loc	2 158 26 is_stmt 0              // uPIMulator_frontend/sdk/syslib/mul64.c:158:26
	add r11, r16, r11
.Ltmp73:
	//DEBUG_VALUE: _mul12:r <- $r13
	//DEBUG_VALUE: _mul12:b <- $r2
	//DEBUG_VALUE: _mul12:a <- $r1
	.loc	2 79 5 is_stmt 1                // uPIMulator_frontend/sdk/syslib/mul64.c:79:5
	// inline asm
	mul_uh_ul r12, r1, r13
	// inline asm
.Ltmp74:
	//DEBUG_VALUE: _mul12:r <- $r12
	.loc	2 158 46                        // uPIMulator_frontend/sdk/syslib/mul64.c:158:46
	and r12, r12, 65535
.Ltmp75:
	.loc	2 158 44 is_stmt 0              // uPIMulator_frontend/sdk/syslib/mul64.c:158:44
	add r11, r11, r12
.Ltmp76:
	//DEBUG_VALUE: _mul12:r <- $r15
	//DEBUG_VALUE: _mul12:b <- $r0
	//DEBUG_VALUE: _mul12:a <- $r3
	.loc	2 79 5 is_stmt 1                // uPIMulator_frontend/sdk/syslib/mul64.c:79:5
	// inline asm
	mul_uh_ul r12, r3, r15
	// inline asm
.Ltmp77:
	//DEBUG_VALUE: _mul12:r <- $r12
	.loc	2 158 64                        // uPIMulator_frontend/sdk/syslib/mul64.c:158:64
	and r12, r12, 65535
.Ltmp78:
	.loc	2 158 62 is_stmt 0              // uPIMulator_frontend/sdk/syslib/mul64.c:158:62
	add r11, r11, r12
.Ltmp79:
	//DEBUG_VALUE: _mul12:r <- $r5
	//DEBUG_VALUE: _mul12:b <- $r1
	//DEBUG_VALUE: _mul12:a <- $r2
	.loc	2 79 5 is_stmt 1                // uPIMulator_frontend/sdk/syslib/mul64.c:79:5
	// inline asm
	mul_uh_ul r12, r2, r5
	// inline asm
.Ltmp80:
	//DEBUG_VALUE: _mul12:r <- $r12
	.loc	2 158 80                        // uPIMulator_frontend/sdk/syslib/mul64.c:158:80
	add r11, r11, r12
.Ltmp81:
	//DEBUG_VALUE: _mul12:r <- $r4
	//DEBUG_VALUE: _mul12:b <- $r3
	//DEBUG_VALUE: _mul12:a <- $r0
	.loc	2 79 5                          // uPIMulator_frontend/sdk/syslib/mul64.c:79:5
	// inline asm
	mul_uh_ul r12, r0, r4
	// inline asm
.Ltmp82:
	//DEBUG_VALUE: _mul12:r <- $r12
	.loc	2 158 98                        // uPIMulator_frontend/sdk/syslib/mul64.c:158:98
	add r11, r11, r12
.Ltmp83:
	//DEBUG_VALUE: _mul01:b <- $r5
	//DEBUG_VALUE: _mul01:a <- $r2
	.loc	2 52 5                          // uPIMulator_frontend/sdk/syslib/mul64.c:52:5
	// inline asm
	mul_ul_uh r2, r2, r5
	// inline asm
.Ltmp84:
	//DEBUG_VALUE: _mul01:r <- $r2
	.loc	2 159 9                         // uPIMulator_frontend/sdk/syslib/mul64.c:159:9
	add r2, r11, r2
.Ltmp85:
	//DEBUG_VALUE: _mul01:b <- $r4
	//DEBUG_VALUE: _mul01:a <- $r0
	.loc	2 52 5                          // uPIMulator_frontend/sdk/syslib/mul64.c:52:5
	// inline asm
	mul_ul_uh r0, r0, r4
	// inline asm
.Ltmp86:
	//DEBUG_VALUE: _mul01:r <- $r0
	.loc	2 159 27                        // uPIMulator_frontend/sdk/syslib/mul64.c:159:27
	add r0, r2, r0
.Ltmp87:
	//DEBUG_VALUE: __muldi3:p7 <- undef
	.loc	2 160 8                         // uPIMulator_frontend/sdk/syslib/mul64.c:160:8
	lsl_add r0, r10, r0, 24
.Ltmp88:
	//DEBUG_VALUE: __muldi3:rh <- $r0
	.loc	2 162 19                        // uPIMulator_frontend/sdk/syslib/mul64.c:162:19
	move.s d0, r0
.Ltmp89:
	.loc	2 162 33 is_stmt 0              // uPIMulator_frontend/sdk/syslib/mul64.c:162:33
	move r3, 0
.Ltmp90:
	.loc	2 150 8 is_stmt 1               // uPIMulator_frontend/sdk/syslib/mul64.c:150:8
	add r5, r7, r9
.Ltmp91:
	addc r4, r6, r8
.Ltmp92:
	//DEBUG_VALUE: _mul00:b <- undef
	//DEBUG_VALUE: _mul00:a <- undef
	//DEBUG_VALUE: __muldi3:rl <- $d4
	.loc	2 162 33                        // uPIMulator_frontend/sdk/syslib/mul64.c:162:33
	move r2, r1
	.loc	2 162 15 is_stmt 0              // uPIMulator_frontend/sdk/syslib/mul64.c:162:15
	add r1, r5, r3
	addc r0, r4, r2
	.loc	2 162 5                         // uPIMulator_frontend/sdk/syslib/mul64.c:162:5
	ld d16, r22, 0
	ld d14, r22, 8
.Ltmp93:
	jump r23
.Ltmp94:
.Lfunc_end0:
	.size	__muldi3, .Lfunc_end0-__muldi3
	.cfi_endproc
	.section	.stack_sizes,"o",@progbits,.text.__muldi3
	.long	.Lfunc_begin0
	.byte	16
	.section	.text.__muldi3,"ax",@progbits
                                        // -- End function