	.text
	.file	"muldf3.c"
	.file	1 "/root" "uPIMulator_frontend/sdk/stdlib/stdint.h"
	.file	2 "/root" "uPIMulator_frontend/sdk/syslib/fp_lib.h"
	.section	.text.__muldf3,"ax",@progbits
	.globl	__muldf3                        // -- Begin function __muldf3
	.type	__muldf3,@function
__muldf3:                               // @__muldf3
.Lfunc_begin0:
	.file	3 "/root" "uPIMulator_frontend/sdk/syslib/muldf3.c"
	.loc	3 20 0                          // uPIMulator_frontend/sdk/syslib/muldf3.c:20:0
	.cfi_sections .debug_frame
	.cfi_startproc
// %bb.0:
	//DEBUG_VALUE: __muldf3:a <- $d0
	//DEBUG_VALUE: __muldf3:a <- $d0
	//DEBUG_VALUE: __muldf3:b <- $d2
	//DEBUG_VALUE: __muldf3:b <- $d2
	//DEBUG_VALUE: __mulXf3__:a <- $d0
	//DEBUG_VALUE: __mulXf3__:a <- $d0
	//DEBUG_VALUE: __mulXf3__:b <- $d2
	//DEBUG_VALUE: __mulXf3__:b <- $d2
	//DEBUG_VALUE: toRep:x <- $d0
	//DEBUG_VALUE: toRep:x <- $d0
	.cfi_def_cfa_offset -72
	.cfi_offset 23, -8
	.cfi_offset 22, -4
	sd r22, 64, d22
	add r22, r22, 72
	.cfi_offset 15, -48
	.cfi_offset 14, -44
.Ltmp0:
	sd r22, -48, d14
	.cfi_offset 17, -56
	.cfi_offset 16, -52
	sd r22, -56, d16
	.cfi_offset 19, -64
	.cfi_offset 18, -60
	sd r22, -64, d18
	.cfi_offset 21, -72
	.cfi_offset 20, -68
	sd r22, -72, d20
	//DEBUG_VALUE: toRep:rep <- $d0
	//DEBUG_VALUE: toRep:rep <- $d0
.Ltmp1:
	.file	4 "/root" "uPIMulator_frontend/sdk/syslib/fp_mul_impl.inc"
	.loc	4 18 45 prologue_end            // uPIMulator_frontend/sdk/syslib/fp_mul_impl.inc:18:45
	lsr.u d4, r0, 20
	.loc	4 18 36 is_stmt 0               // uPIMulator_frontend/sdk/syslib/fp_mul_impl.inc:18:36
	and r10, r5, 2047
.Ltmp2:
	//DEBUG_VALUE: toRep:rep <- undef
	//DEBUG_VALUE: toRep:x <- undef
	//DEBUG_VALUE: __mulXf3__:aExponent <- $r10
	.loc	4 19 45 is_stmt 1               // uPIMulator_frontend/sdk/syslib/fp_mul_impl.inc:19:45
	lsr.u d4, r2, 20
	.loc	4 19 36 is_stmt 0               // uPIMulator_frontend/sdk/syslib/fp_mul_impl.inc:19:36
	and r11, r5, 2047
.Ltmp3:
	//DEBUG_VALUE: toRep:rep <- undef
	//DEBUG_VALUE: toRep:x <- undef
	//DEBUG_VALUE: toRep:rep <- undef
	//DEBUG_VALUE: toRep:x <- undef
	//DEBUG_VALUE: __mulXf3__:bExponent <- $r11
	.loc	4 20 41 is_stmt 1               // uPIMulator_frontend/sdk/syslib/fp_mul_impl.inc:20:41
	xor r5, r3, r1
	xor r4, r2, r0
	.loc	4 20 53 is_stmt 0               // uPIMulator_frontend/sdk/syslib/fp_mul_impl.inc:20:53
	and r13, r5, 0
	and r12, r4, 2147483648
.Ltmp4:
	//DEBUG_VALUE: toRep:rep <- undef
	//DEBUG_VALUE: toRep:x <- undef
	//DEBUG_VALUE: __mulXf3__:productSign <- $d12
	.loc	4 22 35 is_stmt 1               // uPIMulator_frontend/sdk/syslib/fp_mul_impl.inc:22:35
	and r21, r1, 4294967295
	and r20, r0, 1048575
.Ltmp5:
	//DEBUG_VALUE: toRep:rep <- undef
	//DEBUG_VALUE: toRep:x <- undef
	//DEBUG_VALUE: __mulXf3__:aSignificand <- [DW_OP_constu 4503599627370495, DW_OP_and, DW_OP_stack_value] $d0
	.loc	4 23 35                         // uPIMulator_frontend/sdk/syslib/fp_mul_impl.inc:23:35
	and r15, r3, 4294967295
	and r14, r2, 1048575
.Ltmp6:
	//DEBUG_VALUE: __mulXf3__:scale <- 0
	//DEBUG_VALUE: __mulXf3__:bSignificand <- [DW_OP_constu 4503599627370495, DW_OP_and, DW_OP_stack_value] $d2
	.loc	4 27 18                         // uPIMulator_frontend/sdk/syslib/fp_mul_impl.inc:27:18
	add r4, r10, -1
	.loc	4 27 40 is_stmt 0               // uPIMulator_frontend/sdk/syslib/fp_mul_impl.inc:27:40
	lsr r4, r4, 1
	jgtu r4, 1022, .LBB0_9
.Ltmp7:
// %bb.1:
	//DEBUG_VALUE: __mulXf3__:bExponent <- $r11
	//DEBUG_VALUE: __mulXf3__:aExponent <- $r10
	//DEBUG_VALUE: __mulXf3__:productSign <- $d12
	//DEBUG_VALUE: __mulXf3__:bSignificand <- [DW_OP_constu 4503599627370495, DW_OP_and, DW_OP_stack_value] $d2
	//DEBUG_VALUE: __mulXf3__:b <- $d2
	//DEBUG_VALUE: __muldf3:b <- $d2
	//DEBUG_VALUE: __mulXf3__:aSignificand <- [DW_OP_constu 4503599627370495, DW_OP_and, DW_OP_stack_value] $d0
	//DEBUG_VALUE: __mulXf3__:a <- $d0
	//DEBUG_VALUE: __muldf3:a <- $d0
	//DEBUG_VALUE: __mulXf3__:scale <- 0
	.loc	4 0 40                          // uPIMulator_frontend/sdk/syslib/fp_mul_impl.inc:0:40
	add r4, r11, -1
	move r5, 0
	.loc	4 27 40                         // uPIMulator_frontend/sdk/syslib/fp_mul_impl.inc:27:40
	lsr r4, r4, 1
	jgeu r4, 1023, .LBB0_9
.Ltmp8:
// %bb.2:
	//DEBUG_VALUE: __mulXf3__:bExponent <- $r11
	//DEBUG_VALUE: __mulXf3__:aExponent <- $r10
	//DEBUG_VALUE: __mulXf3__:productSign <- $d12
	//DEBUG_VALUE: __mulXf3__:bSignificand <- [DW_OP_constu 4503599627370495, DW_OP_and, DW_OP_stack_value] $d2
	//DEBUG_VALUE: __mulXf3__:b <- $d2
	//DEBUG_VALUE: __muldf3:b <- $d2
	//DEBUG_VALUE: __mulXf3__:aSignificand <- [DW_OP_constu 4503599627370495, DW_OP_and, DW_OP_stack_value] $d0
	//DEBUG_VALUE: __mulXf3__:a <- $d0
	//DEBUG_VALUE: __muldf3:a <- $d0
	//DEBUG_VALUE: __mulXf3__:scale <- 0
	sw r22, -16, r5
	sw r22, -20, r11
	sw r22, -24, r10
	sd r22, -32, d12
.Ltmp9:
.LBB0_3:
	//DEBUG_VALUE: __mulXf3__:bExponent <- $r11
	//DEBUG_VALUE: __mulXf3__:aExponent <- $r10
	//DEBUG_VALUE: __mulXf3__:productSign <- $d12
	//DEBUG_VALUE: __mulXf3__:aSignificand <- [DW_OP_constu 4503599627370496, DW_OP_or, DW_OP_stack_value] $d20
	//DEBUG_VALUE: __mulXf3__:bSignificand <- [DW_OP_constu 4503599627370496, DW_OP_or, DW_OP_stack_value] $d14
	//DEBUG_VALUE: __mulXf3__:scale <- [DW_OP_constu 16, DW_OP_minus] [$r22+0]
	.loc	4 75 45 is_stmt 1               // uPIMulator_frontend/sdk/syslib/fp_mul_impl.inc:75:45
	lslx r0, r15, 11
	lsl_add r0, r0, r14, 11
	lsl r1, r15, 11
.Ltmp10:
	//DEBUG_VALUE: wideMultiply:lo <- undef
	//DEBUG_VALUE: wideMultiply:hi <- undef
	//DEBUG_VALUE: wideMultiply:a <- [DW_OP_constu 4503599627370496, DW_OP_or, DW_OP_stack_value] $d20
	//DEBUG_VALUE: wideMultiply:b <- [DW_OP_constu 9223372036854775808, DW_OP_or, DW_OP_stack_value] $d0
	.loc	2 97 28                         // uPIMulator_frontend/sdk/syslib/fp_lib.h:97:28
	and r17, r21, 4294967295
	and r16, r20, 0
	.loc	2 97 40 is_stmt 0               // uPIMulator_frontend/sdk/syslib/fp_lib.h:97:40
	and r19, r1, 4294965248
	and r18, r0, 0
	.loc	2 97 38                         // uPIMulator_frontend/sdk/syslib/fp_lib.h:97:38
	movd d0, d18
.Ltmp11:
	movd d2, d16
	call r23, __muldi3
.Ltmp12:
	sd r22, -40, d0
.Ltmp13:
	//DEBUG_VALUE: wideMultiply:plolo <- [DW_OP_constu 40, DW_OP_minus] [$r22+0]
	.loc	2 98 40 is_stmt 1               // uPIMulator_frontend/sdk/syslib/fp_lib.h:98:40
	lsrx r0, r14, 21
	lsr_add r1, r0, r15, 21
	lsr r0, r14, 21
	and r1, r1, 2147483647
	and r0, r0, 0
	or r15, r1, 2147483648
.Ltmp14:
	or r14, r0, 0
	.loc	2 98 38 is_stmt 0               // uPIMulator_frontend/sdk/syslib/fp_lib.h:98:38
	movd d0, d14
	movd d2, d16
	call r23, __muldi3
.Ltmp15:
	movd d16, d0
.Ltmp16:
	//DEBUG_VALUE: wideMultiply:plohi <- $d16
	.loc	2 99 28 is_stmt 1               // uPIMulator_frontend/sdk/syslib/fp_lib.h:99:28
	move.u d0, r20
	or r21, r1, 1048576
.Ltmp17:
	or r20, r0, 0
	.loc	2 99 38 is_stmt 0               // uPIMulator_frontend/sdk/syslib/fp_lib.h:99:38
	movd d0, d18
	movd d2, d20
	call r23, __muldi3
.Ltmp18:
	movd d18, d0
.Ltmp19:
	//DEBUG_VALUE: wideMultiply:philo <- $d18
	.loc	2 100 38 is_stmt 1              // uPIMulator_frontend/sdk/syslib/fp_lib.h:100:38
	movd d0, d14
	movd d2, d20
	call r23, __muldi3
.Ltmp20:
	//DEBUG_VALUE: wideMultiply:phihi <- $d0
	.loc	2 0 38 is_stmt 0                // uPIMulator_frontend/sdk/syslib/fp_lib.h:0:38
	ld d8, r22, -40
.Ltmp21:
	//DEBUG_VALUE: wideMultiply:plolo <- $d8
	.loc	2 103 25 is_stmt 1              // uPIMulator_frontend/sdk/syslib/fp_lib.h:103:25
	move.u d2, r8
	.loc	2 103 41 is_stmt 0              // uPIMulator_frontend/sdk/syslib/fp_lib.h:103:41
	and r5, r17, 4294967295
	and r4, r16, 0
	.loc	2 103 57                        // uPIMulator_frontend/sdk/syslib/fp_lib.h:103:57
	and r7, r19, 4294965248
	and r6, r18, 0
	.loc	2 103 39                        // uPIMulator_frontend/sdk/syslib/fp_lib.h:103:39
	add r3, r7, r3
	addc r2, r6, r2
	.loc	2 103 55                        // uPIMulator_frontend/sdk/syslib/fp_lib.h:103:55
	add r5, r3, r5
	addc r4, r2, r4
.Ltmp22:
	//DEBUG_VALUE: wideMultiply:r1 <- $d4
	.loc	2 104 20 is_stmt 1              // uPIMulator_frontend/sdk/syslib/fp_lib.h:104:20
	move r7, 0
	.loc	2 102 25                        // uPIMulator_frontend/sdk/syslib/fp_lib.h:102:25
	and r3, r9, 4294965248
	and r2, r8, 0
.Ltmp23:
	//DEBUG_VALUE: wideMultiply:r0 <- $d2
	.loc	2 104 20                        // uPIMulator_frontend/sdk/syslib/fp_lib.h:104:20
	move r6, r5
	.loc	2 104 14 is_stmt 0              // uPIMulator_frontend/sdk/syslib/fp_lib.h:104:14
	or r3, r7, r3
.Ltmp24:
	or r2, r6, r2
	.loc	2 106 11 is_stmt 1              // uPIMulator_frontend/sdk/syslib/fp_lib.h:106:11
	move.u d8, r16
.Ltmp25:
	.loc	2 106 27 is_stmt 0              // uPIMulator_frontend/sdk/syslib/fp_lib.h:106:27
	move.u d10, r18
.Ltmp26:
	.loc	2 106 43                        // uPIMulator_frontend/sdk/syslib/fp_lib.h:106:43
	move.u d4, r4
.Ltmp27:
	.loc	2 106 25                        // uPIMulator_frontend/sdk/syslib/fp_lib.h:106:25
	add r1, r11, r1
.Ltmp28:
	addc r0, r10, r0
	.loc	2 106 41                        // uPIMulator_frontend/sdk/syslib/fp_lib.h:106:41
	add r1, r1, r9
	addc r0, r0, r8
	.loc	2 106 54                        // uPIMulator_frontend/sdk/syslib/fp_lib.h:106:54
	add r1, r1, r5
	addc r0, r0, r4
.Ltmp29:
	.loc	4 78 37 is_stmt 1               // uPIMulator_frontend/sdk/syslib/fp_mul_impl.inc:78:37
	lw r4, r22, -24
	lw r5, r22, -20
	add r4, r4, r5
	.loc	4 78 49 is_stmt 0               // uPIMulator_frontend/sdk/syslib/fp_mul_impl.inc:78:49
	lw r5, r22, -16
.Ltmp30:
	//DEBUG_VALUE: __mulXf3__:scale <- $r5
	add r4, r4, r5
.Ltmp31:
	.loc	4 81 19 is_stmt 1               // uPIMulator_frontend/sdk/syslib/fp_mul_impl.inc:81:19
	and r9, r1, 0
	and r8, r0, 1048576
	move.s d10, 0
.Ltmp32:
	.loc	4 78 64                         // uPIMulator_frontend/sdk/syslib/fp_mul_impl.inc:78:64
	add r5, r4, -1023
.Ltmp33:
	//DEBUG_VALUE: __mulXf3__:productHi <- $d0
	//DEBUG_VALUE: __mulXf3__:productExponent <- $r5
	.loc	4 81 9                          // uPIMulator_frontend/sdk/syslib/fp_mul_impl.inc:81:9
	jneq r9, r11, .LBB0_11
.Ltmp34:
// %bb.55:
	jneq r8, r10, .LBB0_11
// %bb.56:
// %bb.4:
.Ltmp35:
	//DEBUG_VALUE: __mulXf3__:productExponent <- $r5
	//DEBUG_VALUE: __mulXf3__:productSign <- $d12
	//DEBUG_VALUE: __mulXf3__:productHi <- $d0
	//DEBUG_VALUE: wideLeftShift:hi <- undef
	//DEBUG_VALUE: wideLeftShift:lo <- undef
	//DEBUG_VALUE: wideLeftShift:count <- 1
	.loc	2 259 24                        // uPIMulator_frontend/sdk/syslib/fp_lib.h:259:24
	lsr.u d6, r6, 31
	lslx r4, r1, 1
	lsl_add r8, r4, r0, 1
	lsl r9, r1, 1
	or r1, r9, r7
.Ltmp36:
	or r0, r8, r6
	.loc	2 260 15                        // uPIMulator_frontend/sdk/syslib/fp_lib.h:260:15
	lslx r4, r3, 1
	lsl_add r2, r4, r2, 1
	lsl r3, r3, 1
	ld d12, r22, -32
.Ltmp37:
	//DEBUG_VALUE: __mulXf3__:productExponent <- $r5
	.loc	2 0 15 is_stmt 0                // uPIMulator_frontend/sdk/syslib/fp_lib.h:0:15
	move r4, 2047
.Ltmp38:
	.loc	4 85 9 is_stmt 1                // uPIMulator_frontend/sdk/syslib/fp_mul_impl.inc:85:9
	jges r5, r4, .LBB0_17
	jump .LBB0_5
.Ltmp39:
.LBB0_9:
	//DEBUG_VALUE: __mulXf3__:bExponent <- $r11
	//DEBUG_VALUE: __mulXf3__:aExponent <- $r10
	//DEBUG_VALUE: __mulXf3__:productSign <- $d12
	//DEBUG_VALUE: __mulXf3__:bSignificand <- [DW_OP_constu 4503599627370495, DW_OP_and, DW_OP_stack_value] $d2
	//DEBUG_VALUE: __mulXf3__:b <- $d2
	//DEBUG_VALUE: __muldf3:b <- $d2
	//DEBUG_VALUE: __mulXf3__:aSignificand <- [DW_OP_constu 4503599627370495, DW_OP_and, DW_OP_stack_value] $d0
	//DEBUG_VALUE: __mulXf3__:a <- $d0
	//DEBUG_VALUE: __muldf3:a <- $d0
	//DEBUG_VALUE: __mulXf3__:scale <- 0
	.loc	4 29 37                         // uPIMulator_frontend/sdk/syslib/fp_mul_impl.inc:29:37
	and r7, r1, 4294967295
	and r6, r0, 2147483647
.Ltmp40:
	//DEBUG_VALUE: bAbs <- undef
	//DEBUG_VALUE: toRep:rep <- undef
	//DEBUG_VALUE: toRep:x <- undef
	//DEBUG_VALUE: aAbs <- $d6
	.loc	4 0 37 is_stmt 0                // uPIMulator_frontend/sdk/syslib/fp_mul_impl.inc:0:37
	move r9, 1
	move r8, 2146435072
.Ltmp41:
	//DEBUG_VALUE: toRep:rep <- undef
	//DEBUG_VALUE: toRep:x <- undef
	.loc	4 33 13 is_stmt 1               // uPIMulator_frontend/sdk/syslib/fp_mul_impl.inc:33:13
	sub zero, r7, r9
	subc zero, r6, r8, ltu, .LBB0_13
.Ltmp42:
// %bb.10:
	//DEBUG_VALUE: __mulXf3__:bExponent <- $r11
	//DEBUG_VALUE: __mulXf3__:aExponent <- $r10
	//DEBUG_VALUE: __mulXf3__:productSign <- $d12
	//DEBUG_VALUE: aAbs <- $d6
	//DEBUG_VALUE: __mulXf3__:bSignificand <- [DW_OP_constu 4503599627370495, DW_OP_and, DW_OP_stack_value] $d2
	//DEBUG_VALUE: __mulXf3__:b <- $d2
	//DEBUG_VALUE: __muldf3:b <- $d2
	//DEBUG_VALUE: __mulXf3__:aSignificand <- [DW_OP_constu 4503599627370495, DW_OP_and, DW_OP_stack_value] $d0
	//DEBUG_VALUE: __mulXf3__:a <- $d0
	//DEBUG_VALUE: __muldf3:a <- $d0
	//DEBUG_VALUE: __mulXf3__:scale <- 0
	.loc	4 33 52 is_stmt 0               // uPIMulator_frontend/sdk/syslib/fp_mul_impl.inc:33:52
	or r13, r1, 0
.Ltmp43:
	or r12, r0, 524288
.Ltmp44:
	//DEBUG_VALUE: toRep:rep <- undef
	//DEBUG_VALUE: toRep:x <- undef
	//DEBUG_VALUE: fromRep:rep <- undef
	//DEBUG_VALUE: fromRep:x <- $d12
	.loc	4 0 52                          // uPIMulator_frontend/sdk/syslib/fp_mul_impl.inc:0:52
	jump .LBB0_40
.Ltmp45:
.LBB0_11:
	//DEBUG_VALUE: __mulXf3__:productExponent <- $r5
	//DEBUG_VALUE: __mulXf3__:productSign <- $d12
	//DEBUG_VALUE: __mulXf3__:productHi <- $d0
	.loc	4 81 49 is_stmt 1               // uPIMulator_frontend/sdk/syslib/fp_mul_impl.inc:81:49
	add r5, r5, 1
.Ltmp46:
	//DEBUG_VALUE: __mulXf3__:productExponent <- $r5
	.loc	4 0 49 is_stmt 0                // uPIMulator_frontend/sdk/syslib/fp_mul_impl.inc:0:49
	ld d12, r22, -32
.Ltmp47:
	//DEBUG_VALUE: __mulXf3__:productExponent <- $r5
	move r4, 2047
.Ltmp48:
	.loc	4 85 9 is_stmt 1                // uPIMulator_frontend/sdk/syslib/fp_mul_impl.inc:85:9
	jges r5, r4, .LBB0_17
.Ltmp49:
.LBB0_5:
	//DEBUG_VALUE: __mulXf3__:productExponent <- $r5
	.loc	4 87 9                          // uPIMulator_frontend/sdk/syslib/fp_mul_impl.inc:87:9
	jles r5, 0, .LBB0_20
.Ltmp50:
// %bb.6:
	//DEBUG_VALUE: __mulXf3__:productExponent <- $r5
	//DEBUG_VALUE: __mulXf3__:productHi <- $d0
	.loc	4 103 19                        // uPIMulator_frontend/sdk/syslib/fp_mul_impl.inc:103:19
	and r1, r1, 4294967295
.Ltmp51:
	and r0, r0, 1048575
	.loc	4 104 22                        // uPIMulator_frontend/sdk/syslib/fp_mul_impl.inc:104:22
	move.s d4, r5
.Ltmp52:
	.loc	4 104 45 is_stmt 0              // uPIMulator_frontend/sdk/syslib/fp_mul_impl.inc:104:45
	move r7, 0
	lsl r6, r5, 20
	.loc	4 104 19                        // uPIMulator_frontend/sdk/syslib/fp_mul_impl.inc:104:19
	or r7, r7, r1
	or r6, r6, r0
.Ltmp53:
	//DEBUG_VALUE: __mulXf3__:productHi <- $d6
.LBB0_7:
	//DEBUG_VALUE: __mulXf3__:productHi <- $d6
	.loc	4 0 19                          // uPIMulator_frontend/sdk/syslib/fp_mul_impl.inc:0:19
	move r1, 1
	move r0, 2147483648
.Ltmp54:
	//DEBUG_VALUE: __mulXf3__:productLo <- $d2
	//DEBUG_VALUE: __mulXf3__:productHi <- undef
	.loc	4 108 15 is_stmt 1              // uPIMulator_frontend/sdk/syslib/fp_mul_impl.inc:108:15
	or r13, r7, r13
	or r12, r6, r12
	.loc	4 113 9                         // uPIMulator_frontend/sdk/syslib/fp_mul_impl.inc:113:9
	sub zero, r3, r1
	subc zero, r2, r0, ltu, .LBB0_18
.Ltmp55:
// %bb.8:
	//DEBUG_VALUE: __mulXf3__:productLo <- $d2
	.loc	4 113 39 is_stmt 0              // uPIMulator_frontend/sdk/syslib/fp_mul_impl.inc:113:39
	add r13, r13, 1
	addc r12, r12, 0
.Ltmp56:
	//DEBUG_VALUE: __mulXf3__:productLo <- undef
	//DEBUG_VALUE: __mulXf3__:productHi <- $d12
	//DEBUG_VALUE: fromRep:x <- $d12
	//DEBUG_VALUE: fromRep:rep <- undef
	.loc	4 0 39                          // uPIMulator_frontend/sdk/syslib/fp_mul_impl.inc:0:39
	jump .LBB0_40
.Ltmp57:
.LBB0_13:
	//DEBUG_VALUE: __mulXf3__:bExponent <- $r11
	//DEBUG_VALUE: __mulXf3__:aExponent <- $r10
	//DEBUG_VALUE: __mulXf3__:productSign <- $d12
	//DEBUG_VALUE: aAbs <- $d6
	//DEBUG_VALUE: __mulXf3__:bSignificand <- [DW_OP_constu 4503599627370495, DW_OP_and, DW_OP_stack_value] $d2
	//DEBUG_VALUE: __mulXf3__:b <- $d2
	//DEBUG_VALUE: __muldf3:b <- $d2
	//DEBUG_VALUE: __mulXf3__:aSignificand <- [DW_OP_constu 4503599627370495, DW_OP_and, DW_OP_stack_value] $d0
	//DEBUG_VALUE: __mulXf3__:a <- $d0
	//DEBUG_VALUE: __muldf3:a <- $d0
	//DEBUG_VALUE: __mulXf3__:scale <- 0
	and r5, r3, 4294967295
	and r4, r2, 2147483647
.Ltmp58:
	//DEBUG_VALUE: bAbs <- $d4
	.loc	4 35 13 is_stmt 1               // uPIMulator_frontend/sdk/syslib/fp_mul_impl.inc:35:13
	sub zero, r5, r9
	subc zero, r4, r8, ltu, .LBB0_15
.Ltmp59:
// %bb.14:
	//DEBUG_VALUE: __mulXf3__:bExponent <- $r11
	//DEBUG_VALUE: __mulXf3__:aExponent <- $r10
	//DEBUG_VALUE: __mulXf3__:productSign <- $d12
	//DEBUG_VALUE: aAbs <- $d6
	//DEBUG_VALUE: bAbs <- $d4
	//DEBUG_VALUE: __mulXf3__:bSignificand <- [DW_OP_constu 4503599627370495, DW_OP_and, DW_OP_stack_value] $d2
	//DEBUG_VALUE: __mulXf3__:b <- $d2
	//DEBUG_VALUE: __muldf3:b <- $d2
	//DEBUG_VALUE: __mulXf3__:aSignificand <- [DW_OP_constu 4503599627370495, DW_OP_and, DW_OP_stack_value] $d0
	//DEBUG_VALUE: __mulXf3__:a <- $d0
	//DEBUG_VALUE: __muldf3:a <- $d0
	//DEBUG_VALUE: __mulXf3__:scale <- 0
	.loc	4 35 52 is_stmt 0               // uPIMulator_frontend/sdk/syslib/fp_mul_impl.inc:35:52
	or r13, r3, 0
.Ltmp60:
	or r12, r2, 524288
.Ltmp61:
	//DEBUG_VALUE: toRep:rep <- undef
	//DEBUG_VALUE: toRep:x <- undef
	//DEBUG_VALUE: fromRep:rep <- undef
	//DEBUG_VALUE: fromRep:x <- $d12
	.loc	4 0 52                          // uPIMulator_frontend/sdk/syslib/fp_mul_impl.inc:0:52
	jump .LBB0_40
.Ltmp62:
.LBB0_15:
	//DEBUG_VALUE: __mulXf3__:bExponent <- $r11
	//DEBUG_VALUE: __mulXf3__:aExponent <- $r10
	//DEBUG_VALUE: __mulXf3__:productSign <- $d12
	//DEBUG_VALUE: aAbs <- $d6
	//DEBUG_VALUE: bAbs <- $d4
	//DEBUG_VALUE: __mulXf3__:bSignificand <- [DW_OP_constu 4503599627370495, DW_OP_and, DW_OP_stack_value] $d2
	//DEBUG_VALUE: __mulXf3__:b <- $d2
	//DEBUG_VALUE: __muldf3:b <- $d2
	//DEBUG_VALUE: __mulXf3__:aSignificand <- [DW_OP_constu 4503599627370495, DW_OP_and, DW_OP_stack_value] $d0
	//DEBUG_VALUE: __mulXf3__:a <- $d0
	//DEBUG_VALUE: __muldf3:a <- $d0
	//DEBUG_VALUE: __mulXf3__:scale <- 0
	move r9, 0
	move r8, 2146435072
	.loc	4 37 13 is_stmt 1               // uPIMulator_frontend/sdk/syslib/fp_mul_impl.inc:37:13
	jneq r7, r9, .LBB0_26
.Ltmp63:
// %bb.57:
	jneq r6, r8, .LBB0_26
// %bb.58:
// %bb.16:
.Ltmp64:
	//DEBUG_VALUE: __mulXf3__:bExponent <- $r11
	//DEBUG_VALUE: __mulXf3__:aExponent <- $r10
	//DEBUG_VALUE: __mulXf3__:productSign <- $d12
	//DEBUG_VALUE: aAbs <- $d6
	//DEBUG_VALUE: bAbs <- $d4
	//DEBUG_VALUE: __mulXf3__:bSignificand <- [DW_OP_constu 4503599627370495, DW_OP_and, DW_OP_stack_value] $d2
	//DEBUG_VALUE: __mulXf3__:b <- $d2
	//DEBUG_VALUE: __muldf3:b <- $d2
	//DEBUG_VALUE: __mulXf3__:aSignificand <- [DW_OP_constu 4503599627370495, DW_OP_and, DW_OP_stack_value] $d0
	//DEBUG_VALUE: __mulXf3__:a <- $d0
	//DEBUG_VALUE: __muldf3:a <- $d0
	//DEBUG_VALUE: __mulXf3__:scale <- 0
	.loc	4 0 13 is_stmt 0                // uPIMulator_frontend/sdk/syslib/fp_mul_impl.inc:0:13
	move.s d0, 0
.Ltmp65:
	.loc	4 39 17 is_stmt 1               // uPIMulator_frontend/sdk/syslib/fp_mul_impl.inc:39:17
	jneq r5, r1, .LBB0_60
.Ltmp66:
// %bb.59:
	jeq r4, r0, .LBB0_39
.Ltmp67:
.LBB0_60:
.LBB0_17:
	.loc	4 0 0 is_stmt 0                 // uPIMulator_frontend/sdk/syslib/fp_mul_impl.inc:0:0
	or r13, r13, 0
	or r12, r12, 2146435072
.Ltmp68:
	//DEBUG_VALUE: fromRep:rep <- undef
	//DEBUG_VALUE: fromRep:x <- $d12
.LBB0_40:
	.loc	3 21 5 is_stmt 1                // uPIMulator_frontend/sdk/syslib/muldf3.c:21:5
	movd d0, d12
	ld d20, r22, -72
	ld d18, r22, -64
	ld d16, r22, -56
	ld d14, r22, -48
	ld d22, r22, -8
	jump r23
.LBB0_18:
.Ltmp69:
	//DEBUG_VALUE: __mulXf3__:productLo <- $d2
	//DEBUG_VALUE: __mulXf3__:productLo <- $d2
	.loc	3 0 5 is_stmt 0                 // uPIMulator_frontend/sdk/syslib/muldf3.c:0:5
	move r1, 0
	move r0, 2147483648
.Ltmp70:
	.loc	4 114 9 is_stmt 1               // uPIMulator_frontend/sdk/syslib/fp_mul_impl.inc:114:9
	jneq r3, r1, .LBB0_40
.Ltmp71:
// %bb.61:
	jneq r2, r0, .LBB0_40
// %bb.62:
// %bb.19:
.Ltmp72:
	//DEBUG_VALUE: __mulXf3__:productLo <- $d2
	//DEBUG_VALUE: __mulXf3__:productHi <- undef
	.loc	4 114 54 is_stmt 0              // uPIMulator_frontend/sdk/syslib/fp_mul_impl.inc:114:54
	and r1, r7, 1
	and r0, r6, 0
	.loc	4 114 41                        // uPIMulator_frontend/sdk/syslib/fp_mul_impl.inc:114:41
	add r13, r13, r1
	addc r12, r12, r0
.Ltmp73:
	//DEBUG_VALUE: __mulXf3__:productHi <- $d12
	//DEBUG_VALUE: fromRep:x <- $d12
	//DEBUG_VALUE: fromRep:rep <- undef
	.loc	4 0 41                          // uPIMulator_frontend/sdk/syslib/fp_mul_impl.inc:0:41
	jump .LBB0_40
.Ltmp74:
.LBB0_20:
	//DEBUG_VALUE: __mulXf3__:productExponent <- $r5
	.loc	4 94 45 is_stmt 1               // uPIMulator_frontend/sdk/syslib/fp_mul_impl.inc:94:45
	sub r4, 1, r5
.Ltmp75:
	//DEBUG_VALUE: shift <- $r4
	.loc	4 95 13                         // uPIMulator_frontend/sdk/syslib/fp_mul_impl.inc:95:13
	jgeu r4, 64, .LBB0_40
.Ltmp76:
// %bb.21:
	//DEBUG_VALUE: __mulXf3__:productExponent <- $r5
	//DEBUG_VALUE: shift <- $r4
	//DEBUG_VALUE: wideRightShiftWithSticky:hi <- undef
	//DEBUG_VALUE: wideRightShiftWithSticky:lo <- undef
	//DEBUG_VALUE: wideRightShiftWithSticky:count <- $r4
	.loc	2 267 47                        // uPIMulator_frontend/sdk/syslib/fp_lib.h:267:47
	add r5, r5, 63
.Ltmp77:
	.loc	2 267 33 is_stmt 0              // uPIMulator_frontend/sdk/syslib/fp_lib.h:267:33
	lslx r6, r3, r5, sh32, .LBB0_34
.Ltmp78:
// %bb.22:
	//DEBUG_VALUE: wideRightShiftWithSticky:count <- $r4
	//DEBUG_VALUE: shift <- $r4
	lsl r7, r2, r5
	or r6, r7, r6
	lsl r7, r3, r5
	move.s d10, 0
.Ltmp79:
	//DEBUG_VALUE: sticky <- [DW_OP_LLVM_convert 1 7, DW_OP_LLVM_convert 8 7, DW_OP_stack_value] undef
	.loc	2 268 19 is_stmt 1              // uPIMulator_frontend/sdk/syslib/fp_lib.h:268:19
	lslx r8, r1, r5, sh32, .LBB0_23
	jump .LBB0_35
.Ltmp80:
.LBB0_23:
	//DEBUG_VALUE: wideRightShiftWithSticky:count <- $r4
	//DEBUG_VALUE: shift <- $r4
	lsl r8, r1, r5
	move r9, 0
	.loc	2 0 0 is_stmt 0                 // uPIMulator_frontend/sdk/syslib/fp_lib.h:0:0
	sub zero, r7, r11
	subc r5, r6, r10, xnz
.Ltmp81:
	//DEBUG_VALUE: sticky <- [DW_OP_LLVM_convert 1 7, DW_OP_LLVM_convert 8 7, DW_OP_stack_value] $r5
	.loc	2 268 48                        // uPIMulator_frontend/sdk/syslib/fp_lib.h:268:48
	lsrx r6, r2, r4, sh32, .LBB0_24
	jump .LBB0_36
.Ltmp82:
.LBB0_24:
	//DEBUG_VALUE: sticky <- [DW_OP_LLVM_convert 1 7, DW_OP_LLVM_convert 8 7, DW_OP_stack_value] $r5
	//DEBUG_VALUE: wideRightShiftWithSticky:count <- $r4
	//DEBUG_VALUE: shift <- $r4
	lsr.u d6, r2, r4
	.loc	2 268 42                        // uPIMulator_frontend/sdk/syslib/fp_lib.h:268:42
	or r3, r9, r7
	or r2, r8, r6
	.loc	2 268 59                        // uPIMulator_frontend/sdk/syslib/fp_lib.h:268:59
	move.u d6, r5
	.loc	2 268 57                        // uPIMulator_frontend/sdk/syslib/fp_lib.h:268:57
	or r3, r3, r7
	or r2, r2, r6
	.loc	2 269 19 is_stmt 1              // uPIMulator_frontend/sdk/syslib/fp_lib.h:269:19
	lsrx r5, r0, r4, sh32, .LBB0_25
	jump .LBB0_37
.Ltmp83:
.LBB0_25:
	//DEBUG_VALUE: sticky <- [DW_OP_LLVM_convert 1 7, DW_OP_LLVM_convert 8 7, DW_OP_stack_value] $r5
	//DEBUG_VALUE: wideRightShiftWithSticky:count <- $r4
	//DEBUG_VALUE: shift <- $r4
	lsr.u d6, r0, r4
	jump .LBB0_7
.Ltmp84:
.LBB0_26:
	//DEBUG_VALUE: __mulXf3__:bExponent <- $r11
	//DEBUG_VALUE: __mulXf3__:aExponent <- $r10
	//DEBUG_VALUE: __mulXf3__:productSign <- $d12
	//DEBUG_VALUE: aAbs <- $d6
	//DEBUG_VALUE: bAbs <- $d4
	//DEBUG_VALUE: __mulXf3__:bSignificand <- [DW_OP_constu 4503599627370495, DW_OP_and, DW_OP_stack_value] $d2
	//DEBUG_VALUE: __mulXf3__:b <- $d2
	//DEBUG_VALUE: __muldf3:b <- $d2
	//DEBUG_VALUE: __mulXf3__:aSignificand <- [DW_OP_constu 4503599627370495, DW_OP_and, DW_OP_stack_value] $d0
	//DEBUG_VALUE: __mulXf3__:a <- $d0
	//DEBUG_VALUE: __muldf3:a <- $d0
	//DEBUG_VALUE: __mulXf3__:scale <- 0
	.loc	4 44 13                         // uPIMulator_frontend/sdk/syslib/fp_mul_impl.inc:44:13
	jneq r5, r9, .LBB0_29
.Ltmp85:
// %bb.63:
	jneq r4, r8, .LBB0_29
// %bb.64:
// %bb.27:
.Ltmp86:
	//DEBUG_VALUE: __mulXf3__:bExponent <- $r11
	//DEBUG_VALUE: __mulXf3__:aExponent <- $r10
	//DEBUG_VALUE: __mulXf3__:productSign <- $d12
	//DEBUG_VALUE: aAbs <- $d6
	//DEBUG_VALUE: bAbs <- $d4
	//DEBUG_VALUE: __mulXf3__:bSignificand <- [DW_OP_constu 4503599627370495, DW_OP_and, DW_OP_stack_value] $d2
	//DEBUG_VALUE: __mulXf3__:b <- $d2
	//DEBUG_VALUE: __muldf3:b <- $d2
	//DEBUG_VALUE: __mulXf3__:aSignificand <- [DW_OP_constu 4503599627370495, DW_OP_and, DW_OP_stack_value] $d0
	//DEBUG_VALUE: __mulXf3__:a <- $d0
	//DEBUG_VALUE: __muldf3:a <- $d0
	//DEBUG_VALUE: __mulXf3__:scale <- 0
	.loc	4 0 13 is_stmt 0                // uPIMulator_frontend/sdk/syslib/fp_mul_impl.inc:0:13
	move.s d0, 0
.Ltmp87:
	.loc	4 46 17 is_stmt 1               // uPIMulator_frontend/sdk/syslib/fp_mul_impl.inc:46:17
	jneq r7, r1, .LBB0_17
.Ltmp88:
// %bb.65:
	jneq r6, r0, .LBB0_17
.Ltmp89:
// %bb.66:
.LBB0_39:
	//DEBUG_VALUE: __mulXf3__:bExponent <- $r11
	//DEBUG_VALUE: __mulXf3__:aExponent <- $r10
	//DEBUG_VALUE: __mulXf3__:productSign <- $d12
	//DEBUG_VALUE: aAbs <- $d6
	//DEBUG_VALUE: bAbs <- $d4
	//DEBUG_VALUE: __mulXf3__:bSignificand <- [DW_OP_constu 4503599627370495, DW_OP_and, DW_OP_stack_value] $d2
	//DEBUG_VALUE: __mulXf3__:b <- $d2
	//DEBUG_VALUE: __muldf3:b <- $d2
	//DEBUG_VALUE: __mulXf3__:scale <- 0
	.loc	4 0 17 is_stmt 0                // uPIMulator_frontend/sdk/syslib/fp_mul_impl.inc:0:17
	move r13, 0
.Ltmp90:
	move r12, 2146959360
	jump .LBB0_40
.Ltmp91:
.LBB0_29:
	//DEBUG_VALUE: __mulXf3__:bExponent <- $r11
	//DEBUG_VALUE: __mulXf3__:aExponent <- $r10
	//DEBUG_VALUE: __mulXf3__:productSign <- $d12
	//DEBUG_VALUE: aAbs <- $d6
	//DEBUG_VALUE: bAbs <- $d4
	//DEBUG_VALUE: __mulXf3__:bSignificand <- [DW_OP_constu 4503599627370495, DW_OP_and, DW_OP_stack_value] $d2
	//DEBUG_VALUE: __mulXf3__:b <- $d2
	//DEBUG_VALUE: __muldf3:b <- $d2
	//DEBUG_VALUE: __mulXf3__:aSignificand <- [DW_OP_constu 4503599627370495, DW_OP_and, DW_OP_stack_value] $d0
	//DEBUG_VALUE: __mulXf3__:a <- $d0
	//DEBUG_VALUE: __muldf3:a <- $d0
	//DEBUG_VALUE: __mulXf3__:scale <- 0
	move.s d8, 0
	.loc	4 52 13 is_stmt 1               // uPIMulator_frontend/sdk/syslib/fp_mul_impl.inc:52:13
	jneq r7, r9, .LBB0_68
.Ltmp92:
// %bb.67:
	jeq r6, r8, .LBB0_40
.LBB0_68:
// %bb.30:
.Ltmp93:
	//DEBUG_VALUE: __mulXf3__:bExponent <- $r11
	//DEBUG_VALUE: __mulXf3__:aExponent <- $r10
	//DEBUG_VALUE: __mulXf3__:productSign <- $d12
	//DEBUG_VALUE: aAbs <- $d6
	//DEBUG_VALUE: bAbs <- $d4
	//DEBUG_VALUE: __mulXf3__:bSignificand <- [DW_OP_constu 4503599627370495, DW_OP_and, DW_OP_stack_value] $d2
	//DEBUG_VALUE: __mulXf3__:b <- $d2
	//DEBUG_VALUE: __muldf3:b <- $d2
	//DEBUG_VALUE: __mulXf3__:aSignificand <- [DW_OP_constu 4503599627370495, DW_OP_and, DW_OP_stack_value] $d0
	//DEBUG_VALUE: __mulXf3__:a <- $d0
	//DEBUG_VALUE: __muldf3:a <- $d0
	//DEBUG_VALUE: __mulXf3__:scale <- 0
	.loc	4 54 13                         // uPIMulator_frontend/sdk/syslib/fp_mul_impl.inc:54:13
	jneq r5, r9, .LBB0_70
.Ltmp94:
// %bb.69:
	jeq r4, r8, .LBB0_40
.LBB0_70:
// %bb.31:
.Ltmp95:
	//DEBUG_VALUE: __mulXf3__:bExponent <- $r11
	//DEBUG_VALUE: __mulXf3__:aExponent <- $r10
	//DEBUG_VALUE: __mulXf3__:productSign <- $d12
	//DEBUG_VALUE: aAbs <- $d6
	//DEBUG_VALUE: bAbs <- $d4
	//DEBUG_VALUE: __mulXf3__:bSignificand <- [DW_OP_constu 4503599627370495, DW_OP_and, DW_OP_stack_value] $d2
	//DEBUG_VALUE: __mulXf3__:b <- $d2
	//DEBUG_VALUE: __muldf3:b <- $d2
	//DEBUG_VALUE: __mulXf3__:aSignificand <- [DW_OP_constu 4503599627370495, DW_OP_and, DW_OP_stack_value] $d0
	//DEBUG_VALUE: __mulXf3__:a <- $d0
	//DEBUG_VALUE: __muldf3:a <- $d0
	//DEBUG_VALUE: __mulXf3__:scale <- 0
	.loc	4 59 13                         // uPIMulator_frontend/sdk/syslib/fp_mul_impl.inc:59:13
	lsr.u d8, r6, 20
	move.s d6, 0
.Ltmp96:
	.loc	4 0 13 is_stmt 0                // uPIMulator_frontend/sdk/syslib/fp_mul_impl.inc:0:13
	move r16, 0
	sd r22, -32, d12
	.loc	4 59 13                         // uPIMulator_frontend/sdk/syslib/fp_mul_impl.inc:59:13
	jneq r9, r7, .LBB0_46
.Ltmp97:
// %bb.71:
	jneq r8, r6, .LBB0_46
// %bb.72:
// %bb.32:
.Ltmp98:
	//DEBUG_VALUE: __mulXf3__:bExponent <- $r11
	//DEBUG_VALUE: __mulXf3__:aExponent <- $r10
	//DEBUG_VALUE: __mulXf3__:productSign <- $d12
	//DEBUG_VALUE: bAbs <- $d4
	//DEBUG_VALUE: __mulXf3__:bSignificand <- [DW_OP_constu 4503599627370495, DW_OP_and, DW_OP_stack_value] $d2
	//DEBUG_VALUE: __mulXf3__:b <- $d2
	//DEBUG_VALUE: __muldf3:b <- $d2
	//DEBUG_VALUE: __mulXf3__:aSignificand <- [DW_OP_constu 4503599627370495, DW_OP_and, DW_OP_stack_value] $d0
	//DEBUG_VALUE: __mulXf3__:a <- $d0
	//DEBUG_VALUE: __muldf3:a <- $d0
	//DEBUG_VALUE: __mulXf3__:scale <- 0
	//DEBUG_VALUE: normalize:significand <- undef
	//DEBUG_VALUE: rep_clz:a <- [DW_OP_constu 4503599627370495, DW_OP_and, DW_OP_stack_value] $d0
	.loc	2 80 9 is_stmt 1                // uPIMulator_frontend/sdk/syslib/fp_lib.h:80:9
	move.u d8, r20
	jneq r9, r7, .LBB0_41
.Ltmp99:
// %bb.73:
	jneq r8, r6, .LBB0_41
.Ltmp100:
// %bb.74:
// %bb.33:
	//DEBUG_VALUE: __mulXf3__:bExponent <- $r11
	//DEBUG_VALUE: __mulXf3__:aExponent <- $r10
	//DEBUG_VALUE: __mulXf3__:productSign <- $d12
	//DEBUG_VALUE: bAbs <- $d4
	//DEBUG_VALUE: __mulXf3__:bSignificand <- [DW_OP_constu 4503599627370495, DW_OP_and, DW_OP_stack_value] $d2
	//DEBUG_VALUE: __mulXf3__:b <- $d2
	//DEBUG_VALUE: __muldf3:b <- $d2
	//DEBUG_VALUE: rep_clz:a <- [DW_OP_constu 4503599627370495, DW_OP_and, DW_OP_stack_value] $d0
	//DEBUG_VALUE: __mulXf3__:aSignificand <- [DW_OP_constu 4503599627370495, DW_OP_and, DW_OP_stack_value] $d0
	//DEBUG_VALUE: __mulXf3__:a <- $d0
	//DEBUG_VALUE: __muldf3:a <- $d0
	//DEBUG_VALUE: __mulXf3__:scale <- 0
	.loc	2 0 9 is_stmt 0                 // uPIMulator_frontend/sdk/syslib/fp_lib.h:0:9
	clz r0, r1
.Ltmp101:
	or r0, r0, 32, true, .LBB0_42
.Ltmp102:
.LBB0_34:
	//DEBUG_VALUE: wideRightShiftWithSticky:count <- $r4
	//DEBUG_VALUE: shift <- $r4
	.loc	2 267 33 is_stmt 1              // uPIMulator_frontend/sdk/syslib/fp_lib.h:267:33
	lsl r6, r3, r5
	move r7, 0
	move.s d10, 0
.Ltmp103:
	//DEBUG_VALUE: sticky <- [DW_OP_LLVM_convert 1 7, DW_OP_LLVM_convert 8 7, DW_OP_stack_value] undef
	.loc	2 268 19                        // uPIMulator_frontend/sdk/syslib/fp_lib.h:268:19
	lslx r8, r1, r5, sh32, .LBB0_23
.Ltmp104:
.LBB0_35:
	//DEBUG_VALUE: wideRightShiftWithSticky:count <- $r4
	//DEBUG_VALUE: shift <- $r4
	lsl r9, r0, r5
	or r8, r9, r8
	lsl r9, r1, r5
	.loc	2 0 0 is_stmt 0                 // uPIMulator_frontend/sdk/syslib/fp_lib.h:0:0
	sub zero, r7, r11
	subc r5, r6, r10, xnz
.Ltmp105:
	//DEBUG_VALUE: sticky <- [DW_OP_LLVM_convert 1 7, DW_OP_LLVM_convert 8 7, DW_OP_stack_value] $r5
	.loc	2 268 48                        // uPIMulator_frontend/sdk/syslib/fp_lib.h:268:48
	lsrx r6, r2, r4, sh32, .LBB0_24
.Ltmp106:
.LBB0_36:
	//DEBUG_VALUE: sticky <- [DW_OP_LLVM_convert 1 7, DW_OP_LLVM_convert 8 7, DW_OP_stack_value] $r5
	//DEBUG_VALUE: wideRightShiftWithSticky:count <- $r4
	//DEBUG_VALUE: shift <- $r4
	lsr r7, r3, r4
	or r7, r6, r7
	lsr r6, r2, r4
	.loc	2 268 42                        // uPIMulator_frontend/sdk/syslib/fp_lib.h:268:42
	or r3, r9, r7
	or r2, r8, r6
	.loc	2 268 59                        // uPIMulator_frontend/sdk/syslib/fp_lib.h:268:59
	move.u d6, r5
	.loc	2 268 57                        // uPIMulator_frontend/sdk/syslib/fp_lib.h:268:57
	or r3, r3, r7
	or r2, r2, r6
	.loc	2 269 19 is_stmt 1              // uPIMulator_frontend/sdk/syslib/fp_lib.h:269:19
	lsrx r5, r0, r4, sh32, .LBB0_25
.Ltmp107:
.LBB0_37:
	//DEBUG_VALUE: sticky <- [DW_OP_LLVM_convert 1 7, DW_OP_LLVM_convert 8 7, DW_OP_stack_value] $r5
	//DEBUG_VALUE: wideRightShiftWithSticky:count <- $r4
	//DEBUG_VALUE: shift <- $r4
	lsr r6, r1, r4
	or r7, r5, r6
	lsr r6, r0, r4, true, .LBB0_7
.Ltmp108:
.LBB0_41:
	//DEBUG_VALUE: __mulXf3__:bExponent <- $r11
	//DEBUG_VALUE: __mulXf3__:aExponent <- $r10
	//DEBUG_VALUE: __mulXf3__:productSign <- $d12
	//DEBUG_VALUE: bAbs <- $d4
	//DEBUG_VALUE: __mulXf3__:bSignificand <- [DW_OP_constu 4503599627370495, DW_OP_and, DW_OP_stack_value] $d2
	//DEBUG_VALUE: __mulXf3__:b <- $d2
	//DEBUG_VALUE: __muldf3:b <- $d2
	//DEBUG_VALUE: rep_clz:a <- [DW_OP_constu 4503599627370495, DW_OP_and, DW_OP_stack_value] $d0
	//DEBUG_VALUE: __mulXf3__:aSignificand <- [DW_OP_constu 4503599627370495, DW_OP_and, DW_OP_stack_value] $d0
	//DEBUG_VALUE: __mulXf3__:a <- $d0
	//DEBUG_VALUE: __muldf3:a <- $d0
	//DEBUG_VALUE: __mulXf3__:scale <- 0
	.loc	2 0 19 is_stmt 0                // uPIMulator_frontend/sdk/syslib/fp_lib.h:0:19
	clz r0, r20
.Ltmp109:
.LBB0_42:
	//DEBUG_VALUE: __mulXf3__:bExponent <- $r11
	//DEBUG_VALUE: __mulXf3__:aExponent <- $r10
	//DEBUG_VALUE: __mulXf3__:productSign <- $d12
	//DEBUG_VALUE: bAbs <- $d4
	//DEBUG_VALUE: __mulXf3__:bSignificand <- [DW_OP_constu 4503599627370495, DW_OP_and, DW_OP_stack_value] $d2
	//DEBUG_VALUE: __mulXf3__:b <- $d2
	//DEBUG_VALUE: __muldf3:b <- $d2
	//DEBUG_VALUE: __mulXf3__:scale <- 0
	//DEBUG_VALUE: rep_clz:a <- 4503599627370496
	.loc	2 251 45 is_stmt 1              // uPIMulator_frontend/sdk/syslib/fp_lib.h:251:45
	add r1, r0, -11
.Ltmp110:
	//DEBUG_VALUE: normalize:shift <- $r1
	.loc	2 252 18                        // uPIMulator_frontend/sdk/syslib/fp_lib.h:252:18
	lslx r8, r21, r1, sh32, .LBB0_44
.Ltmp111:
// %bb.43:
	//DEBUG_VALUE: __mulXf3__:bExponent <- $r11
	//DEBUG_VALUE: __mulXf3__:aExponent <- $r10
	//DEBUG_VALUE: normalize:shift <- $r1
	//DEBUG_VALUE: __mulXf3__:productSign <- $d12
	//DEBUG_VALUE: bAbs <- $d4
	//DEBUG_VALUE: __mulXf3__:bSignificand <- [DW_OP_constu 4503599627370495, DW_OP_and, DW_OP_stack_value] $d2
	//DEBUG_VALUE: __mulXf3__:b <- $d2
	//DEBUG_VALUE: __muldf3:b <- $d2
	//DEBUG_VALUE: __mulXf3__:scale <- 0
	lsl r9, r20, r1
	or r20, r9, r8
	lsl r21, r21, r1, true, .LBB0_45
.Ltmp112:
.LBB0_44:
	//DEBUG_VALUE: __mulXf3__:bExponent <- $r11
	//DEBUG_VALUE: __mulXf3__:aExponent <- $r10
	//DEBUG_VALUE: normalize:shift <- $r1
	//DEBUG_VALUE: __mulXf3__:productSign <- $d12
	//DEBUG_VALUE: bAbs <- $d4
	//DEBUG_VALUE: __mulXf3__:bSignificand <- [DW_OP_constu 4503599627370495, DW_OP_and, DW_OP_stack_value] $d2
	//DEBUG_VALUE: __mulXf3__:b <- $d2
	//DEBUG_VALUE: __muldf3:b <- $d2
	//DEBUG_VALUE: __mulXf3__:scale <- 0
	lsl r20, r21, r1
	move r21, 0
.Ltmp113:
.LBB0_45:
	//DEBUG_VALUE: __mulXf3__:bExponent <- $r11
	//DEBUG_VALUE: __mulXf3__:aExponent <- $r10
	//DEBUG_VALUE: normalize:shift <- $r1
	//DEBUG_VALUE: __mulXf3__:productSign <- $d12
	//DEBUG_VALUE: bAbs <- $d4
	//DEBUG_VALUE: __mulXf3__:bSignificand <- [DW_OP_constu 4503599627370495, DW_OP_and, DW_OP_stack_value] $d2
	//DEBUG_VALUE: __mulXf3__:b <- $d2
	//DEBUG_VALUE: __muldf3:b <- $d2
	//DEBUG_VALUE: __mulXf3__:scale <- 0
	.loc	2 253 14                        // uPIMulator_frontend/sdk/syslib/fp_lib.h:253:14
	sub r16, 12, r0
.Ltmp114:
	//DEBUG_VALUE: __mulXf3__:scale <- $r16
.LBB0_46:
	//DEBUG_VALUE: __mulXf3__:bExponent <- $r11
	//DEBUG_VALUE: __mulXf3__:aExponent <- $r10
	//DEBUG_VALUE: __mulXf3__:productSign <- $d12
	//DEBUG_VALUE: bAbs <- $d4
	//DEBUG_VALUE: __mulXf3__:bSignificand <- [DW_OP_constu 4503599627370495, DW_OP_and, DW_OP_stack_value] $d2
	//DEBUG_VALUE: __mulXf3__:b <- $d2
	//DEBUG_VALUE: __muldf3:b <- $d2
	//DEBUG_VALUE: __mulXf3__:scale <- $r16
	.loc	4 60 13                         // uPIMulator_frontend/sdk/syslib/fp_mul_impl.inc:60:13
	lsr.u d0, r4, 20
	sw r22, -24, r10
	sw r22, -20, r11
	jneq r1, r7, .LBB0_49
.Ltmp115:
// %bb.75:
	jneq r0, r6, .LBB0_49
// %bb.76:
// %bb.47:
.Ltmp116:
	//DEBUG_VALUE: __mulXf3__:scale <- $r16
	//DEBUG_VALUE: __mulXf3__:bExponent <- $r11
	//DEBUG_VALUE: __mulXf3__:aExponent <- $r10
	//DEBUG_VALUE: __mulXf3__:productSign <- $d12
	//DEBUG_VALUE: bAbs <- $d4
	//DEBUG_VALUE: __mulXf3__:bSignificand <- [DW_OP_constu 4503599627370495, DW_OP_and, DW_OP_stack_value] $d2
	//DEBUG_VALUE: __mulXf3__:b <- $d2
	//DEBUG_VALUE: __muldf3:b <- $d2
	//DEBUG_VALUE: normalize:significand <- undef
	//DEBUG_VALUE: rep_clz:a <- [DW_OP_constu 4503599627370495, DW_OP_and, DW_OP_stack_value] $d2
	.loc	2 80 9                          // uPIMulator_frontend/sdk/syslib/fp_lib.h:80:9
	move.u d0, r14
	move.s d4, 0
.Ltmp117:
	jneq r1, r5, .LBB0_50
.Ltmp118:
// %bb.77:
	jneq r0, r4, .LBB0_50
.Ltmp119:
// %bb.78:
// %bb.48:
	//DEBUG_VALUE: __mulXf3__:scale <- $r16
	//DEBUG_VALUE: __mulXf3__:bExponent <- $r11
	//DEBUG_VALUE: __mulXf3__:aExponent <- $r10
	//DEBUG_VALUE: __mulXf3__:productSign <- $d12
	//DEBUG_VALUE: rep_clz:a <- [DW_OP_constu 4503599627370495, DW_OP_and, DW_OP_stack_value] $d2
	//DEBUG_VALUE: __mulXf3__:bSignificand <- [DW_OP_constu 4503599627370495, DW_OP_and, DW_OP_stack_value] $d2
	//DEBUG_VALUE: __mulXf3__:b <- $d2
	//DEBUG_VALUE: __muldf3:b <- $d2
	.loc	2 0 9 is_stmt 0                 // uPIMulator_frontend/sdk/syslib/fp_lib.h:0:9
	clz r0, r3
	or r0, r0, 32, true, .LBB0_51
.Ltmp120:
.LBB0_49:
	//DEBUG_VALUE: __mulXf3__:scale <- $r16
	//DEBUG_VALUE: __mulXf3__:bExponent <- $r11
	//DEBUG_VALUE: __mulXf3__:aExponent <- $r10
	//DEBUG_VALUE: __mulXf3__:productSign <- $d12
	//DEBUG_VALUE: bAbs <- $d4
	//DEBUG_VALUE: __mulXf3__:bSignificand <- [DW_OP_constu 4503599627370495, DW_OP_and, DW_OP_stack_value] $d2
	//DEBUG_VALUE: __mulXf3__:b <- $d2
	//DEBUG_VALUE: __muldf3:b <- $d2
	sw r22, -16, r16
	jump .LBB0_3
.Ltmp121:
.LBB0_50:
	//DEBUG_VALUE: __mulXf3__:scale <- $r16
	//DEBUG_VALUE: __mulXf3__:bExponent <- $r11
	//DEBUG_VALUE: __mulXf3__:aExponent <- $r10
	//DEBUG_VALUE: __mulXf3__:productSign <- $d12
	//DEBUG_VALUE: rep_clz:a <- [DW_OP_constu 4503599627370495, DW_OP_and, DW_OP_stack_value] $d2
	//DEBUG_VALUE: __mulXf3__:bSignificand <- [DW_OP_constu 4503599627370495, DW_OP_and, DW_OP_stack_value] $d2
	//DEBUG_VALUE: __mulXf3__:b <- $d2
	//DEBUG_VALUE: __muldf3:b <- $d2
	clz r0, r14
.Ltmp122:
.LBB0_51:
	//DEBUG_VALUE: __mulXf3__:scale <- $r16
	//DEBUG_VALUE: __mulXf3__:bExponent <- $r11
	//DEBUG_VALUE: __mulXf3__:aExponent <- $r10
	//DEBUG_VALUE: __mulXf3__:productSign <- $d12
	//DEBUG_VALUE: __mulXf3__:bSignificand <- [DW_OP_constu 4503599627370495, DW_OP_and, DW_OP_stack_value] $d2
	//DEBUG_VALUE: __mulXf3__:b <- $d2
	//DEBUG_VALUE: __muldf3:b <- $d2
	//DEBUG_VALUE: rep_clz:a <- 4503599627370496
	.loc	2 251 45 is_stmt 1              // uPIMulator_frontend/sdk/syslib/fp_lib.h:251:45
	add r1, r0, -11
.Ltmp123:
	//DEBUG_VALUE: normalize:shift <- $r1
	.loc	2 252 18                        // uPIMulator_frontend/sdk/syslib/fp_lib.h:252:18
	lslx r2, r15, r1, sh32, .LBB0_53
.Ltmp124:
// %bb.52:
	//DEBUG_VALUE: __mulXf3__:scale <- $r16
	//DEBUG_VALUE: __mulXf3__:bExponent <- $r11
	//DEBUG_VALUE: __mulXf3__:aExponent <- $r10
	//DEBUG_VALUE: normalize:shift <- $r1
	//DEBUG_VALUE: __mulXf3__:productSign <- $d12
	lsl r3, r14, r1
	or r14, r3, r2
	lsl r15, r15, r1, true, .LBB0_54
.Ltmp125:
.LBB0_53:
	//DEBUG_VALUE: __mulXf3__:scale <- $r16
	//DEBUG_VALUE: __mulXf3__:bExponent <- $r11
	//DEBUG_VALUE: __mulXf3__:aExponent <- $r10
	//DEBUG_VALUE: normalize:shift <- $r1
	//DEBUG_VALUE: __mulXf3__:productSign <- $d12
	lsl r14, r15, r1
	move r15, 0
.Ltmp126:
.LBB0_54:
	//DEBUG_VALUE: __mulXf3__:scale <- $r16
	//DEBUG_VALUE: __mulXf3__:bExponent <- $r11
	//DEBUG_VALUE: __mulXf3__:aExponent <- $r10
	//DEBUG_VALUE: __mulXf3__:productSign <- $d12
	.loc	4 60 39                         // uPIMulator_frontend/sdk/syslib/fp_mul_impl.inc:60:39
	sub r0, r16, r0
	add r0, r0, 12
.Ltmp127:
	//DEBUG_VALUE: __mulXf3__:scale <- $r0
	sw r22, -16, r0
.Ltmp128:
	//DEBUG_VALUE: __mulXf3__:scale <- [DW_OP_constu 16, DW_OP_minus] [$r22+0]
	.loc	4 0 39 is_stmt 0                // uPIMulator_frontend/sdk/syslib/fp_mul_impl.inc:0:39
	jump .LBB0_3
.Ltmp129:
.Lfunc_end0:
	.size	__muldf3, .Lfunc_end0-__muldf3
	.cfi_endproc
	.section	.stack_sizes,"o",@progbits,.text.__muldf3
	.long	.Lfunc_begin0
	.byte	72
	.section	.text.__muldf3,"ax",@progbits
                                        // -- End function