	.text
	.file	"muldc3.c"
	.section	.text.__muldc3,"ax",@progbits
	.globl	__muldc3                        // -- Begin function __muldc3
	.type	__muldc3,@function
__muldc3:                               // @__muldc3
.Lfunc_begin0:
	.file	1 "/root" "uPIMulator_frontend/sdk/syslib/muldc3.c"
	.loc	1 22 0                          // uPIMulator_frontend/sdk/syslib/muldc3.c:22:0
	.cfi_sections .debug_frame
	.cfi_startproc
// %bb.0:
	//DEBUG_VALUE: __muldc3:__a <- $d2
	//DEBUG_VALUE: __muldc3:__b <- $d4
	//DEBUG_VALUE: __muldc3:__c <- $d6
	.cfi_def_cfa_offset -136
	.cfi_offset 23, -8
	.cfi_offset 22, -4
	sd r22, 128, d22
	add r22, r22, 136
	.cfi_offset 15, -112
	.cfi_offset 14, -108
	sd r22, -112, d14
	.cfi_offset 17, -120
	.cfi_offset 16, -116
	sd r22, -120, d16
	.cfi_offset 19, -128
	.cfi_offset 18, -124
	sd r22, -128, d18
	.cfi_offset 21, -136
	.cfi_offset 20, -132
	sd r22, -136, d20
	ld d16, r22, -152
	movd d14, d6
	movd d20, d4
	movd d18, d2
	sw r22, -88, r0
.Ltmp0:
	//DEBUG_VALUE: __muldc3:__d <- [DW_OP_constu 152, DW_OP_minus] [$r22+0]
	//DEBUG_VALUE: __muldc3:__c <- $d14
	//DEBUG_VALUE: __muldc3:__b <- $d20
	//DEBUG_VALUE: __muldc3:__a <- $d18
	.loc	1 23 23 prologue_end            // uPIMulator_frontend/sdk/syslib/muldc3.c:23:23
	movd d0, d18
	movd d2, d14
	call r23, __muldf3
.Ltmp1:
	sd r22, -64, d0
.Ltmp2:
	//DEBUG_VALUE: __muldc3:__ac <- undef
	.loc	1 24 23                         // uPIMulator_frontend/sdk/syslib/muldc3.c:24:23
	movd d0, d20
	movd d2, d16
	call r23, __muldf3
.Ltmp3:
	sd r22, -56, d0
.Ltmp4:
	//DEBUG_VALUE: __muldc3:__bd <- undef
	sd r22, -72, d18
.Ltmp5:
	//DEBUG_VALUE: __muldc3:__a <- [DW_OP_constu 72, DW_OP_minus] [$r22+0]
	.loc	1 25 23                         // uPIMulator_frontend/sdk/syslib/muldc3.c:25:23
	movd d0, d18
	sd r22, -80, d16
	movd d2, d16
	call r23, __muldf3
.Ltmp6:
	movd d18, d0
.Ltmp7:
	//DEBUG_VALUE: __muldc3:__ad <- undef
	sd r22, -104, d20
.Ltmp8:
	//DEBUG_VALUE: __muldc3:__b <- [DW_OP_constu 104, DW_OP_minus] [$r22+0]
	.loc	1 26 23                         // uPIMulator_frontend/sdk/syslib/muldc3.c:26:23
	movd d0, d20
	sd r22, -96, d14
.Ltmp9:
	//DEBUG_VALUE: __muldc3:__c <- [DW_OP_constu 96, DW_OP_minus] [$r22+0]
	movd d2, d14
	call r23, __muldf3
.Ltmp10:
	movd d20, d0
.Ltmp11:
	//DEBUG_VALUE: __muldc3:__bc <- undef
	.loc	1 0 23 is_stmt 0                // uPIMulator_frontend/sdk/syslib/muldc3.c:0:23
	ld d0, r22, -64
	ld d2, r22, -56
	.loc	1 28 28 is_stmt 1               // uPIMulator_frontend/sdk/syslib/muldc3.c:28:28
	call r23, __subdf3
.Ltmp12:
	movd d14, d0
.Ltmp13:
	//DEBUG_VALUE: __muldc3:z <- [DW_OP_LLVM_fragment 0 64] undef
	sd r22, -40, d20
	.loc	1 29 33                         // uPIMulator_frontend/sdk/syslib/muldc3.c:29:33
	movd d0, d20
	sd r22, -32, d18
	movd d2, d18
	call r23, __adddf3
.Ltmp14:
	movd d16, d0
.Ltmp15:
	//DEBUG_VALUE: __muldc3:z <- [DW_OP_LLVM_fragment 64 64] undef
	.loc	1 30 9                          // uPIMulator_frontend/sdk/syslib/muldc3.c:30:9
	movd d0, d14
	movd d2, d14
	call r23, __unorddf2
.Ltmp16:
	.loc	1 30 36 is_stmt 0               // uPIMulator_frontend/sdk/syslib/muldc3.c:30:36
	jeq r0, 0, .LBB0_40
.Ltmp17:
// %bb.1:
	//DEBUG_VALUE: __muldc3:__c <- [DW_OP_constu 96, DW_OP_minus] [$r22+0]
	//DEBUG_VALUE: __muldc3:__b <- [DW_OP_constu 104, DW_OP_minus] [$r22+0]
	//DEBUG_VALUE: __muldc3:__a <- [DW_OP_constu 72, DW_OP_minus] [$r22+0]
	//DEBUG_VALUE: __muldc3:__d <- [DW_OP_constu 152, DW_OP_minus] [$r22+0]
	movd d0, d16
	sd r22, -48, d16
	movd d2, d16
	call r23, __unorddf2
.Ltmp18:
	jeq r0, 0, .LBB0_2
.Ltmp19:
// %bb.3:
	//DEBUG_VALUE: __muldc3:__c <- [DW_OP_constu 96, DW_OP_minus] [$r22+0]
	//DEBUG_VALUE: __muldc3:__b <- [DW_OP_constu 104, DW_OP_minus] [$r22+0]
	//DEBUG_VALUE: __muldc3:__a <- [DW_OP_constu 72, DW_OP_minus] [$r22+0]
	//DEBUG_VALUE: __muldc3:__d <- [DW_OP_constu 152, DW_OP_minus] [$r22+0]
	//DEBUG_VALUE: __recalc <- 0
	sd r22, -24, d14
	ld d0, r22, -80
	ld d0, r22, -96
	lw r0, r22, -88
.Ltmp20:
	.loc	1 32 13 is_stmt 1               // uPIMulator_frontend/sdk/syslib/muldc3.c:32:13
	ld d0, r22, -72
	and r15, r1, 4294967295
	and r14, r0, 2147483647
	move r17, 0
	move r16, 2146435072
	movd d0, d14
	movd d2, d16
	call r23, __eqdf2
.Ltmp21:
	.loc	1 0 13 is_stmt 0                // uPIMulator_frontend/sdk/syslib/muldc3.c:0:13
	move r18, 0
	.loc	1 32 13                         // uPIMulator_frontend/sdk/syslib/muldc3.c:32:13
	sub r19, r0, r18, eq
	ld d20, r22, -104
	and r21, r21, 4294967295
	and r20, r20, 2147483647
	movd d0, d20
	movd d2, d16
	call r23, __eqdf2
.Ltmp22:
	.loc	1 0 13                          // uPIMulator_frontend/sdk/syslib/muldc3.c:0:13
	sub r0, r0, r18, eq
	.loc	1 32 28                         // uPIMulator_frontend/sdk/syslib/muldc3.c:32:28
	or r0, r19, r0
	sw r22, -16, r0
	jneq r0, 1, .LBB0_13
.Ltmp23:
// %bb.4:
	//DEBUG_VALUE: __muldc3:__c <- [DW_OP_constu 96, DW_OP_minus] [$r22+0]
	//DEBUG_VALUE: __muldc3:__b <- [DW_OP_constu 104, DW_OP_minus] [$r22+0]
	//DEBUG_VALUE: __muldc3:__a <- [DW_OP_constu 72, DW_OP_minus] [$r22+0]
	//DEBUG_VALUE: __muldc3:__d <- [DW_OP_constu 152, DW_OP_minus] [$r22+0]
	//DEBUG_VALUE: __recalc <- 0
	.loc	1 0 28                          // uPIMulator_frontend/sdk/syslib/muldc3.c:0:28
	move r17, 0
	move r16, 2146435072
	movd d0, d20
	movd d2, d16
	call r23, __eqdf2
.Ltmp24:
	sub r19, r0, r18, eq
	.loc	1 32 13                         // uPIMulator_frontend/sdk/syslib/muldc3.c:32:13
	movd d0, d14
	movd d2, d16
	call r23, __eqdf2
.Ltmp25:
	sub r2, r0, r18, eq
	move.s d14, 0
	move r1, 0
	move r0, 1072693248
.Ltmp26:
	.loc	1 33 19 is_stmt 1               // uPIMulator_frontend/sdk/syslib/muldc3.c:33:19
	movd d16, d14
	jneq r2, 0, .LBB0_5
.Ltmp27:
// %bb.6:
	//DEBUG_VALUE: __muldc3:__c <- [DW_OP_constu 96, DW_OP_minus] [$r22+0]
	//DEBUG_VALUE: __muldc3:__b <- [DW_OP_constu 104, DW_OP_minus] [$r22+0]
	//DEBUG_VALUE: __muldc3:__a <- [DW_OP_constu 72, DW_OP_minus] [$r22+0]
	//DEBUG_VALUE: __muldc3:__d <- [DW_OP_constu 152, DW_OP_minus] [$r22+0]
	//DEBUG_VALUE: __recalc <- 0
	//DEBUG_VALUE: __muldc3:__a <- undef
	.loc	1 0 19 is_stmt 0                // uPIMulator_frontend/sdk/syslib/muldc3.c:0:19
	ld d20, r22, -104
	.loc	1 34 19 is_stmt 1               // uPIMulator_frontend/sdk/syslib/muldc3.c:34:19
	jneq r19, 0, .LBB0_7
.Ltmp28:
.LBB0_8:
	//DEBUG_VALUE: __muldc3:__c <- [DW_OP_constu 96, DW_OP_minus] [$r22+0]
	//DEBUG_VALUE: __muldc3:__b <- [DW_OP_constu 104, DW_OP_minus] [$r22+0]
	//DEBUG_VALUE: __muldc3:__d <- [DW_OP_constu 152, DW_OP_minus] [$r22+0]
	//DEBUG_VALUE: __recalc <- 0
	//DEBUG_VALUE: __muldc3:__b <- undef
	.loc	1 0 19 is_stmt 0                // uPIMulator_frontend/sdk/syslib/muldc3.c:0:19
	ld d0, r22, -96
.Ltmp29:
	.loc	1 35 17 is_stmt 1               // uPIMulator_frontend/sdk/syslib/muldc3.c:35:17
	movd d2, d0
	call r23, __unorddf2
.Ltmp30:
	.loc	1 35 17 is_stmt 0               // uPIMulator_frontend/sdk/syslib/muldc3.c:35:17
	jneq r0, 0, .LBB0_9
.Ltmp31:
.LBB0_10:
	//DEBUG_VALUE: __muldc3:__c <- [DW_OP_constu 96, DW_OP_minus] [$r22+0]
	//DEBUG_VALUE: __muldc3:__d <- [DW_OP_constu 152, DW_OP_minus] [$r22+0]
	//DEBUG_VALUE: __recalc <- 0
	.loc	1 0 0                           // uPIMulator_frontend/sdk/syslib/muldc3.c:0:0
	ld d0, r22, -72
	and r19, r1, 0
	and r18, r0, 2147483648
	and r21, r21, 0
	and r20, r20, 2147483648
	//DEBUG_VALUE: __muldc3:__c <- [DW_OP_constu 96, DW_OP_minus] [$r22+0]
	ld d0, r22, -80
.Ltmp32:
	.loc	1 37 17 is_stmt 1               // uPIMulator_frontend/sdk/syslib/muldc3.c:37:17
	movd d2, d0
	call r23, __unorddf2
.Ltmp33:
	.loc	1 37 17 is_stmt 0               // uPIMulator_frontend/sdk/syslib/muldc3.c:37:17
	jneq r0, 0, .LBB0_11
.Ltmp34:
.LBB0_12:
	//DEBUG_VALUE: __muldc3:__c <- [DW_OP_constu 96, DW_OP_minus] [$r22+0]
	//DEBUG_VALUE: __muldc3:__d <- [DW_OP_constu 152, DW_OP_minus] [$r22+0]
	//DEBUG_VALUE: __recalc <- 0
	.loc	1 0 17                          // uPIMulator_frontend/sdk/syslib/muldc3.c:0:17
	or r1, r17, r19
	or r0, r16, r18
	sd r22, -72, d0
	or r1, r15, r21
	or r0, r14, r20
	sd r22, -104, d0
.Ltmp35:
.LBB0_13:
	//DEBUG_VALUE: __muldc3:__c <- [DW_OP_constu 96, DW_OP_minus] [$r22+0]
	//DEBUG_VALUE: __muldc3:__d <- [DW_OP_constu 152, DW_OP_minus] [$r22+0]
	//DEBUG_VALUE: __recalc <- 0
	//DEBUG_VALUE: __muldc3:__a <- [DW_OP_constu 72, DW_OP_minus] [$r22+0]
	//DEBUG_VALUE: __muldc3:__b <- [DW_OP_constu 104, DW_OP_minus] [$r22+0]
	//DEBUG_VALUE: __muldc3:__c <- [DW_OP_constu 96, DW_OP_minus] [$r22+0]
	//DEBUG_VALUE: __muldc3:__d <- [DW_OP_constu 80, DW_OP_minus] [$r22+0]
	//DEBUG_VALUE: __recalc <- undef
	ld d16, r22, -96
.Ltmp36:
	.loc	1 41 13 is_stmt 1               // uPIMulator_frontend/sdk/syslib/muldc3.c:41:13
	and r19, r17, 4294967295
	and r18, r16, 2147483647
	ld d0, r22, -80
.Ltmp37:
	//DEBUG_VALUE: __muldc3:__d <- $d0
	.loc	1 0 13 is_stmt 0                // uPIMulator_frontend/sdk/syslib/muldc3.c:0:13
	and r21, r1, 4294967295
	and r20, r0, 2147483647
.Ltmp38:
	//DEBUG_VALUE: __muldc3:__d <- [DW_OP_constu 80, DW_OP_minus] [$r22+0]
	move r3, 0
	move r2, 2146435072
	movd d0, d20
	call r23, __eqdf2
.Ltmp39:
	ld d14, r22, -24
	.loc	1 41 28                         // uPIMulator_frontend/sdk/syslib/muldc3.c:41:28
	jeq r0, 0, .LBB0_15
.Ltmp40:
// %bb.14:
	//DEBUG_VALUE: __muldc3:__d <- [DW_OP_constu 80, DW_OP_minus] [$r22+0]
	//DEBUG_VALUE: __muldc3:__c <- [DW_OP_constu 96, DW_OP_minus] [$r22+0]
	//DEBUG_VALUE: __muldc3:__b <- [DW_OP_constu 104, DW_OP_minus] [$r22+0]
	//DEBUG_VALUE: __muldc3:__a <- [DW_OP_constu 72, DW_OP_minus] [$r22+0]
	.loc	1 0 28                          // uPIMulator_frontend/sdk/syslib/muldc3.c:0:28
	move r3, 0
	move r2, 2146435072
	.loc	1 41 28                         // uPIMulator_frontend/sdk/syslib/muldc3.c:41:28
	movd d0, d18
	call r23, __nedf2
.Ltmp41:
	jeq r0, 0, .LBB0_15
.Ltmp42:
// %bb.24:
	//DEBUG_VALUE: __muldc3:__d <- [DW_OP_constu 80, DW_OP_minus] [$r22+0]
	//DEBUG_VALUE: __muldc3:__c <- [DW_OP_constu 96, DW_OP_minus] [$r22+0]
	//DEBUG_VALUE: __muldc3:__b <- [DW_OP_constu 104, DW_OP_minus] [$r22+0]
	//DEBUG_VALUE: __muldc3:__a <- [DW_OP_constu 72, DW_OP_minus] [$r22+0]
	//DEBUG_VALUE: __muldc3:__a <- [DW_OP_constu 72, DW_OP_minus] [$r22+0]
	//DEBUG_VALUE: __muldc3:__b <- [DW_OP_constu 104, DW_OP_minus] [$r22+0]
	//DEBUG_VALUE: __muldc3:__c <- $d16
	//DEBUG_VALUE: __muldc3:__d <- [DW_OP_constu 80, DW_OP_minus] [$r22+0]
	//DEBUG_VALUE: __recalc <- undef
	.loc	1 0 28                          // uPIMulator_frontend/sdk/syslib/muldc3.c:0:28
	movd d20, d16
.Ltmp43:
	//DEBUG_VALUE: __muldc3:__c <- $d20
	.loc	1 50 23 is_stmt 1               // uPIMulator_frontend/sdk/syslib/muldc3.c:50:23
	lw r0, r22, -16
	and r0, r0, 1
	lw r18, r22, -88
	jz r0, .LBB0_26
.Ltmp44:
// %bb.25:
	//DEBUG_VALUE: __muldc3:__d <- [DW_OP_constu 80, DW_OP_minus] [$r22+0]
	//DEBUG_VALUE: __muldc3:__b <- [DW_OP_constu 104, DW_OP_minus] [$r22+0]
	//DEBUG_VALUE: __muldc3:__a <- [DW_OP_constu 72, DW_OP_minus] [$r22+0]
	//DEBUG_VALUE: __muldc3:__c <- $d20
	.loc	1 0 23 is_stmt 0                // uPIMulator_frontend/sdk/syslib/muldc3.c:0:23
	ld d0, r22, -104
	sd r22, -104, d0
	ld d16, r22, -80
	jump .LBB0_39
.Ltmp45:
.LBB0_2:
	//DEBUG_VALUE: __muldc3:__c <- [DW_OP_constu 96, DW_OP_minus] [$r22+0]
	//DEBUG_VALUE: __muldc3:__b <- [DW_OP_constu 104, DW_OP_minus] [$r22+0]
	//DEBUG_VALUE: __muldc3:__a <- [DW_OP_constu 72, DW_OP_minus] [$r22+0]
	//DEBUG_VALUE: __muldc3:__d <- [DW_OP_constu 152, DW_OP_minus] [$r22+0]
	lw r18, r22, -88
	ld d16, r22, -48
	jump .LBB0_41
.Ltmp46:
.LBB0_15:
	//DEBUG_VALUE: __muldc3:__d <- [DW_OP_constu 80, DW_OP_minus] [$r22+0]
	//DEBUG_VALUE: __muldc3:__c <- [DW_OP_constu 96, DW_OP_minus] [$r22+0]
	//DEBUG_VALUE: __muldc3:__b <- [DW_OP_constu 104, DW_OP_minus] [$r22+0]
	//DEBUG_VALUE: __muldc3:__a <- [DW_OP_constu 72, DW_OP_minus] [$r22+0]
	move r1, 0
	move r0, 1072693248
	sd r22, -56, d0
	move r17, 0
	move r16, 2146435072
	movd d0, d20
	movd d2, d16
	call r23, __eqdf2
.Ltmp47:
	move r21, 0
	sub r20, r0, r21, eq
.Ltmp48:
	.loc	1 41 13 is_stmt 1               // uPIMulator_frontend/sdk/syslib/muldc3.c:41:13
	movd d0, d18
	movd d2, d16
	call r23, __eqdf2
.Ltmp49:
	sub r0, r0, r21, eq
	move.s d14, 0
.Ltmp50:
	.loc	1 42 19                         // uPIMulator_frontend/sdk/syslib/muldc3.c:42:19
	movd d2, d14
	jneq r0, 0, .LBB0_16
.Ltmp51:
// %bb.17:
	//DEBUG_VALUE: __muldc3:__d <- [DW_OP_constu 80, DW_OP_minus] [$r22+0]
	//DEBUG_VALUE: __muldc3:__c <- [DW_OP_constu 96, DW_OP_minus] [$r22+0]
	//DEBUG_VALUE: __muldc3:__b <- [DW_OP_constu 104, DW_OP_minus] [$r22+0]
	//DEBUG_VALUE: __muldc3:__a <- [DW_OP_constu 72, DW_OP_minus] [$r22+0]
	//DEBUG_VALUE: __muldc3:__c <- undef
	sd r22, -64, d2
	.loc	1 43 19                         // uPIMulator_frontend/sdk/syslib/muldc3.c:43:19
	jneq r20, 0, .LBB0_18
.Ltmp52:
.LBB0_19:
	//DEBUG_VALUE: __muldc3:__d <- [DW_OP_constu 80, DW_OP_minus] [$r22+0]
	//DEBUG_VALUE: __muldc3:__b <- [DW_OP_constu 104, DW_OP_minus] [$r22+0]
	//DEBUG_VALUE: __muldc3:__a <- [DW_OP_constu 72, DW_OP_minus] [$r22+0]
	//DEBUG_VALUE: __muldc3:__d <- undef
	.loc	1 0 19 is_stmt 0                // uPIMulator_frontend/sdk/syslib/muldc3.c:0:19
	ld d0, r22, -72
.Ltmp53:
	.loc	1 44 17 is_stmt 1               // uPIMulator_frontend/sdk/syslib/muldc3.c:44:17
	movd d2, d0
	call r23, __unorddf2
.Ltmp54:
	.loc	1 44 17 is_stmt 0               // uPIMulator_frontend/sdk/syslib/muldc3.c:44:17
	jneq r0, 0, .LBB0_20
.Ltmp55:
.LBB0_21:
	//DEBUG_VALUE: __muldc3:__b <- [DW_OP_constu 104, DW_OP_minus] [$r22+0]
	//DEBUG_VALUE: __muldc3:__a <- [DW_OP_constu 72, DW_OP_minus] [$r22+0]
	.loc	1 0 0                           // uPIMulator_frontend/sdk/syslib/muldc3.c:0:0
	ld d0, r22, -96
	and r19, r1, 0
	and r18, r0, 2147483648
	ld d0, r22, -80
	and r17, r1, 0
	and r16, r0, 2147483648
	//DEBUG_VALUE: __muldc3:__a <- [DW_OP_constu 72, DW_OP_minus] [$r22+0]
	ld d0, r22, -104
.Ltmp56:
	.loc	1 46 17 is_stmt 1               // uPIMulator_frontend/sdk/syslib/muldc3.c:46:17
	movd d2, d0
	call r23, __unorddf2
.Ltmp57:
	.loc	1 46 17 is_stmt 0               // uPIMulator_frontend/sdk/syslib/muldc3.c:46:17
	jneq r0, 0, .LBB0_22
.Ltmp58:
.LBB0_23:
	//DEBUG_VALUE: __muldc3:__b <- [DW_OP_constu 104, DW_OP_minus] [$r22+0]
	//DEBUG_VALUE: __muldc3:__a <- [DW_OP_constu 72, DW_OP_minus] [$r22+0]
	.loc	1 0 17                          // uPIMulator_frontend/sdk/syslib/muldc3.c:0:17
	ld d0, r22, -64
	or r21, r1, r19
	or r20, r0, r18
	or r17, r15, r17
	or r16, r14, r16
.Ltmp59:
	//DEBUG_VALUE: __recalc <- undef
	//DEBUG_VALUE: __muldc3:__d <- $d16
	//DEBUG_VALUE: __muldc3:__c <- $d20
	//DEBUG_VALUE: __muldc3:__b <- [DW_OP_constu 104, DW_OP_minus] [$r22+0]
	//DEBUG_VALUE: __muldc3:__a <- [DW_OP_constu 72, DW_OP_minus] [$r22+0]
	lw r0, r22, -88
	ld d0, r22, -104
.Ltmp60:
	//DEBUG_VALUE: __muldc3:__b <- $d0
	sd r22, -104, d0
.Ltmp61:
	//DEBUG_VALUE: __muldc3:__b <- [DW_OP_constu 104, DW_OP_minus] [$r22+0]
.LBB0_39:
	//DEBUG_VALUE: __muldc3:__a <- [DW_OP_constu 72, DW_OP_minus] [$r22+0]
	//DEBUG_VALUE: __muldc3:__a <- undef
	//DEBUG_VALUE: __muldc3:__b <- undef
	//DEBUG_VALUE: __muldc3:__c <- undef
	//DEBUG_VALUE: __muldc3:__d <- undef
	//DEBUG_VALUE: __recalc <- undef
	sd r22, -96, d20
	.loc	1 62 51 is_stmt 1               // uPIMulator_frontend/sdk/syslib/muldc3.c:62:51
	movd d0, d20
	ld d18, r22, -72
	movd d2, d18
	call r23, __muldf3
.Ltmp62:
	movd d14, d0
	.loc	1 62 63 is_stmt 0               // uPIMulator_frontend/sdk/syslib/muldc3.c:62:63
	movd d0, d16
	ld d20, r22, -104
	movd d2, d20
	call r23, __muldf3
.Ltmp63:
	movd d2, d0
	.loc	1 62 57                         // uPIMulator_frontend/sdk/syslib/muldc3.c:62:57
	movd d0, d14
	call r23, __subdf3
.Ltmp64:
	.loc	1 0 57                          // uPIMulator_frontend/sdk/syslib/muldc3.c:0:57
	move r3, 0
	move r2, 2146435072
	sd r22, -80, d2
	.loc	1 62 44                         // uPIMulator_frontend/sdk/syslib/muldc3.c:62:44
	call r23, __muldf3
.Ltmp65:
	movd d14, d0
.Ltmp66:
	//DEBUG_VALUE: __muldc3:z <- [DW_OP_LLVM_fragment 0 64] undef
	.loc	1 63 56 is_stmt 1               // uPIMulator_frontend/sdk/syslib/muldc3.c:63:56
	movd d0, d16
	movd d2, d18
	call r23, __muldf3
.Ltmp67:
	movd d16, d0
	.loc	1 63 68 is_stmt 0               // uPIMulator_frontend/sdk/syslib/muldc3.c:63:68
	ld d0, r22, -96
	movd d2, d20
	call r23, __muldf3
.Ltmp68:
	.loc	1 63 62                         // uPIMulator_frontend/sdk/syslib/muldc3.c:63:62
	movd d2, d16
	call r23, __adddf3
.Ltmp69:
	.loc	1 63 49                         // uPIMulator_frontend/sdk/syslib/muldc3.c:63:49
	ld d2, r22, -80
	call r23, __muldf3
.Ltmp70:
	movd d16, d0
.Ltmp71:
	//DEBUG_VALUE: __muldc3:z <- [DW_OP_LLVM_fragment 64 64] undef
.LBB0_40:
	.loc	1 0 49                          // uPIMulator_frontend/sdk/syslib/muldc3.c:0:49
	lw r18, r22, -88
.LBB0_41:
.Ltmp72:
	//DEBUG_VALUE: __muldc3:z <- [DW_OP_LLVM_fragment 0 64] $d14
	//DEBUG_VALUE: __muldc3:z <- [DW_OP_LLVM_fragment 64 64] $d16
	.loc	1 66 5 is_stmt 1                // uPIMulator_frontend/sdk/syslib/muldc3.c:66:5
	sd r18, 0, d14
	.loc	1 67 1                          // uPIMulator_frontend/sdk/syslib/muldc3.c:67:1
	sd r18, 8, d16
	ld d20, r22, -136
	ld d18, r22, -128
	ld d16, r22, -120
.Ltmp73:
	ld d14, r22, -112
.Ltmp74:
	ld d22, r22, -8
	jump r23
.LBB0_5:
.Ltmp75:
	//DEBUG_VALUE: __muldc3:__c <- [DW_OP_constu 96, DW_OP_minus] [$r22+0]
	//DEBUG_VALUE: __muldc3:__b <- [DW_OP_constu 104, DW_OP_minus] [$r22+0]
	//DEBUG_VALUE: __muldc3:__a <- [DW_OP_constu 72, DW_OP_minus] [$r22+0]
	//DEBUG_VALUE: __muldc3:__d <- [DW_OP_constu 152, DW_OP_minus] [$r22+0]
	//DEBUG_VALUE: __recalc <- 0
	.loc	1 33 19                         // uPIMulator_frontend/sdk/syslib/muldc3.c:33:19
	movd d16, d0
.Ltmp76:
	//DEBUG_VALUE: __muldc3:__a <- undef
	.loc	1 0 19 is_stmt 0                // uPIMulator_frontend/sdk/syslib/muldc3.c:0:19
	ld d20, r22, -104
	.loc	1 34 19 is_stmt 1               // uPIMulator_frontend/sdk/syslib/muldc3.c:34:19
	jeq r19, 0, .LBB0_8
.Ltmp77:
.LBB0_7:
	//DEBUG_VALUE: __muldc3:__c <- [DW_OP_constu 96, DW_OP_minus] [$r22+0]
	//DEBUG_VALUE: __muldc3:__b <- [DW_OP_constu 104, DW_OP_minus] [$r22+0]
	//DEBUG_VALUE: __muldc3:__d <- [DW_OP_constu 152, DW_OP_minus] [$r22+0]
	//DEBUG_VALUE: __recalc <- 0
	movd d14, d0
.Ltmp78:
	//DEBUG_VALUE: __muldc3:__b <- undef
	.loc	1 0 19 is_stmt 0                // uPIMulator_frontend/sdk/syslib/muldc3.c:0:19
	ld d0, r22, -96
.Ltmp79:
	.loc	1 35 17 is_stmt 1               // uPIMulator_frontend/sdk/syslib/muldc3.c:35:17
	movd d2, d0
	call r23, __unorddf2
.Ltmp80:
	.loc	1 35 17 is_stmt 0               // uPIMulator_frontend/sdk/syslib/muldc3.c:35:17
	jeq r0, 0, .LBB0_10
.Ltmp81:
.LBB0_9:
	//DEBUG_VALUE: __muldc3:__c <- [DW_OP_constu 96, DW_OP_minus] [$r22+0]
	//DEBUG_VALUE: __muldc3:__d <- [DW_OP_constu 152, DW_OP_minus] [$r22+0]
	//DEBUG_VALUE: __recalc <- 0
	.loc	1 0 17                          // uPIMulator_frontend/sdk/syslib/muldc3.c:0:17
	ld d0, r22, -96
	and r1, r1, 0
	and r0, r0, 2147483648
	sd r22, -96, d0
	jump .LBB0_10
.Ltmp82:
.LBB0_26:
	//DEBUG_VALUE: __muldc3:__d <- [DW_OP_constu 80, DW_OP_minus] [$r22+0]
	//DEBUG_VALUE: __muldc3:__b <- [DW_OP_constu 104, DW_OP_minus] [$r22+0]
	//DEBUG_VALUE: __muldc3:__a <- [DW_OP_constu 72, DW_OP_minus] [$r22+0]
	//DEBUG_VALUE: __muldc3:__c <- $d20
	ld d0, r22, -40
	and r1, r1, 4294967295
	and r0, r0, 2147483647
	move r3, 0
	move r2, 2146435072
	call r23, __eqdf2
.Ltmp83:
	ld d16, r22, -48
.Ltmp84:
	.loc	1 50 43 is_stmt 1               // uPIMulator_frontend/sdk/syslib/muldc3.c:50:43
	jeq r0, 0, .LBB0_30
.Ltmp85:
// %bb.27:
	//DEBUG_VALUE: __muldc3:__d <- [DW_OP_constu 80, DW_OP_minus] [$r22+0]
	//DEBUG_VALUE: __muldc3:__b <- [DW_OP_constu 104, DW_OP_minus] [$r22+0]
	//DEBUG_VALUE: __muldc3:__a <- [DW_OP_constu 72, DW_OP_minus] [$r22+0]
	//DEBUG_VALUE: __muldc3:__c <- $d20
	ld d0, r22, -32
	and r1, r1, 4294967295
	and r0, r0, 2147483647
	move r3, 0
	move r2, 2146435072
	call r23, __eqdf2
.Ltmp86:
	jeq r0, 0, .LBB0_30
.Ltmp87:
// %bb.28:
	//DEBUG_VALUE: __muldc3:__d <- [DW_OP_constu 80, DW_OP_minus] [$r22+0]
	//DEBUG_VALUE: __muldc3:__b <- [DW_OP_constu 104, DW_OP_minus] [$r22+0]
	//DEBUG_VALUE: __muldc3:__a <- [DW_OP_constu 72, DW_OP_minus] [$r22+0]
	//DEBUG_VALUE: __muldc3:__c <- $d20
	ld d0, r22, -64
	and r1, r1, 4294967295
	and r0, r0, 2147483647
	move r3, 0
	move r2, 2146435072
	call r23, __eqdf2
.Ltmp88:
	jeq r0, 0, .LBB0_30
.Ltmp89:
// %bb.29:
	//DEBUG_VALUE: __muldc3:__d <- [DW_OP_constu 80, DW_OP_minus] [$r22+0]
	//DEBUG_VALUE: __muldc3:__b <- [DW_OP_constu 104, DW_OP_minus] [$r22+0]
	//DEBUG_VALUE: __muldc3:__a <- [DW_OP_constu 72, DW_OP_minus] [$r22+0]
	//DEBUG_VALUE: __muldc3:__c <- $d20
	ld d0, r22, -56
	and r1, r1, 4294967295
	and r0, r0, 2147483647
	move r3, 0
	move r2, 2146435072
	call r23, __nedf2
.Ltmp90:
	jneq r0, 0, .LBB0_41
.Ltmp91:
.LBB0_30:
	//DEBUG_VALUE: __muldc3:__d <- [DW_OP_constu 80, DW_OP_minus] [$r22+0]
	//DEBUG_VALUE: __muldc3:__b <- [DW_OP_constu 104, DW_OP_minus] [$r22+0]
	//DEBUG_VALUE: __muldc3:__a <- [DW_OP_constu 72, DW_OP_minus] [$r22+0]
	//DEBUG_VALUE: __muldc3:__c <- $d20
	.loc	1 0 43 is_stmt 0                // uPIMulator_frontend/sdk/syslib/muldc3.c:0:43
	ld d0, r22, -72
.Ltmp92:
	.loc	1 51 17 is_stmt 1               // uPIMulator_frontend/sdk/syslib/muldc3.c:51:17
	movd d2, d0
	call r23, __unorddf2
.Ltmp93:
	.loc	1 0 17 is_stmt 0                // uPIMulator_frontend/sdk/syslib/muldc3.c:0:17
	ld d14, r22, -104
.Ltmp94:
	.loc	1 51 17                         // uPIMulator_frontend/sdk/syslib/muldc3.c:51:17
	jneq r0, 0, .LBB0_31
.Ltmp95:
.LBB0_32:
	//DEBUG_VALUE: __muldc3:__d <- [DW_OP_constu 80, DW_OP_minus] [$r22+0]
	//DEBUG_VALUE: __muldc3:__b <- [DW_OP_constu 104, DW_OP_minus] [$r22+0]
	//DEBUG_VALUE: __muldc3:__a <- [DW_OP_constu 72, DW_OP_minus] [$r22+0]
	//DEBUG_VALUE: __muldc3:__c <- $d20
	.loc	1 0 17                          // uPIMulator_frontend/sdk/syslib/muldc3.c:0:17
	movd d16, d20
	//DEBUG_VALUE: __muldc3:__a <- [DW_OP_constu 72, DW_OP_minus] [$r22+0]
.Ltmp96:
	.loc	1 53 17 is_stmt 1               // uPIMulator_frontend/sdk/syslib/muldc3.c:53:17
	movd d0, d14
	movd d2, d14
	call r23, __unorddf2
.Ltmp97:
	.loc	1 53 17 is_stmt 0               // uPIMulator_frontend/sdk/syslib/muldc3.c:53:17
	jneq r0, 0, .LBB0_33
.Ltmp98:
// %bb.34:
	//DEBUG_VALUE: __muldc3:__d <- [DW_OP_constu 80, DW_OP_minus] [$r22+0]
	//DEBUG_VALUE: __muldc3:__b <- [DW_OP_constu 104, DW_OP_minus] [$r22+0]
	//DEBUG_VALUE: __muldc3:__a <- [DW_OP_constu 72, DW_OP_minus] [$r22+0]
	//DEBUG_VALUE: __muldc3:__c <- $d20
	//DEBUG_VALUE: __muldc3:__b <- $d14
	.loc	1 55 17 is_stmt 1               // uPIMulator_frontend/sdk/syslib/muldc3.c:55:17
	movd d0, d16
	movd d2, d16
	call r23, __unorddf2
.Ltmp99:
	.loc	1 55 17 is_stmt 0               // uPIMulator_frontend/sdk/syslib/muldc3.c:55:17
	jneq r0, 0, .LBB0_35
.Ltmp100:
.LBB0_36:
	//DEBUG_VALUE: __muldc3:__d <- [DW_OP_constu 80, DW_OP_minus] [$r22+0]
	//DEBUG_VALUE: __muldc3:__a <- [DW_OP_constu 72, DW_OP_minus] [$r22+0]
	//DEBUG_VALUE: __muldc3:__c <- $d20
	//DEBUG_VALUE: __muldc3:__b <- $d14
	//DEBUG_VALUE: __muldc3:__c <- $d16
	.loc	1 0 17                          // uPIMulator_frontend/sdk/syslib/muldc3.c:0:17
	ld d0, r22, -80
.Ltmp101:
	.loc	1 57 17 is_stmt 1               // uPIMulator_frontend/sdk/syslib/muldc3.c:57:17
	movd d2, d0
	call r23, __unorddf2
.Ltmp102:
	.loc	1 0 17 is_stmt 0                // uPIMulator_frontend/sdk/syslib/muldc3.c:0:17
	movd d20, d16
.Ltmp103:
	.loc	1 57 17                         // uPIMulator_frontend/sdk/syslib/muldc3.c:57:17
	jneq r0, 0, .LBB0_37
.Ltmp104:
.LBB0_38:
	//DEBUG_VALUE: __muldc3:__d <- [DW_OP_constu 80, DW_OP_minus] [$r22+0]
	//DEBUG_VALUE: __muldc3:__a <- [DW_OP_constu 72, DW_OP_minus] [$r22+0]
	//DEBUG_VALUE: __muldc3:__c <- $d16
	//DEBUG_VALUE: __muldc3:__b <- $d14
	.loc	1 0 17                          // uPIMulator_frontend/sdk/syslib/muldc3.c:0:17
	ld d16, r22, -80
.Ltmp105:
	sd r22, -104, d14
	jump .LBB0_39
.Ltmp106:
.LBB0_16:
	//DEBUG_VALUE: __muldc3:__d <- [DW_OP_constu 80, DW_OP_minus] [$r22+0]
	//DEBUG_VALUE: __muldc3:__c <- [DW_OP_constu 96, DW_OP_minus] [$r22+0]
	//DEBUG_VALUE: __muldc3:__b <- [DW_OP_constu 104, DW_OP_minus] [$r22+0]
	//DEBUG_VALUE: __muldc3:__a <- [DW_OP_constu 72, DW_OP_minus] [$r22+0]
	.loc	1 42 19 is_stmt 1               // uPIMulator_frontend/sdk/syslib/muldc3.c:42:19
	ld d2, r22, -56
.Ltmp107:
	//DEBUG_VALUE: __muldc3:__c <- undef
	sd r22, -64, d2
	.loc	1 43 19                         // uPIMulator_frontend/sdk/syslib/muldc3.c:43:19
	jeq r20, 0, .LBB0_19
.Ltmp108:
.LBB0_18:
	//DEBUG_VALUE: __muldc3:__d <- [DW_OP_constu 80, DW_OP_minus] [$r22+0]
	//DEBUG_VALUE: __muldc3:__b <- [DW_OP_constu 104, DW_OP_minus] [$r22+0]
	//DEBUG_VALUE: __muldc3:__a <- [DW_OP_constu 72, DW_OP_minus] [$r22+0]
	ld d14, r22, -56
.Ltmp109:
	//DEBUG_VALUE: __muldc3:__d <- undef
	.loc	1 0 19 is_stmt 0                // uPIMulator_frontend/sdk/syslib/muldc3.c:0:19
	ld d0, r22, -72
.Ltmp110:
	.loc	1 44 17 is_stmt 1               // uPIMulator_frontend/sdk/syslib/muldc3.c:44:17
	movd d2, d0
	call r23, __unorddf2
.Ltmp111:
	.loc	1 44 17 is_stmt 0               // uPIMulator_frontend/sdk/syslib/muldc3.c:44:17
	jeq r0, 0, .LBB0_21
.Ltmp112:
.LBB0_20:
	//DEBUG_VALUE: __muldc3:__b <- [DW_OP_constu 104, DW_OP_minus] [$r22+0]
	//DEBUG_VALUE: __muldc3:__a <- [DW_OP_constu 72, DW_OP_minus] [$r22+0]
	.loc	1 0 17                          // uPIMulator_frontend/sdk/syslib/muldc3.c:0:17
	ld d0, r22, -72
	and r1, r1, 0
	and r0, r0, 2147483648
	sd r22, -72, d0
	jump .LBB0_21
.Ltmp113:
.LBB0_11:
	//DEBUG_VALUE: __muldc3:__c <- [DW_OP_constu 96, DW_OP_minus] [$r22+0]
	//DEBUG_VALUE: __muldc3:__d <- [DW_OP_constu 152, DW_OP_minus] [$r22+0]
	//DEBUG_VALUE: __recalc <- 0
	ld d0, r22, -80
	and r1, r1, 0
	and r0, r0, 2147483648
	sd r22, -80, d0
	jump .LBB0_12
.Ltmp114:
.LBB0_22:
	//DEBUG_VALUE: __muldc3:__b <- [DW_OP_constu 104, DW_OP_minus] [$r22+0]
	//DEBUG_VALUE: __muldc3:__a <- [DW_OP_constu 72, DW_OP_minus] [$r22+0]
	ld d0, r22, -104
	and r1, r1, 0
	and r0, r0, 2147483648
	sd r22, -104, d0
	jump .LBB0_23
.Ltmp115:
.LBB0_31:
	//DEBUG_VALUE: __muldc3:__d <- [DW_OP_constu 80, DW_OP_minus] [$r22+0]
	//DEBUG_VALUE: __muldc3:__b <- [DW_OP_constu 104, DW_OP_minus] [$r22+0]
	//DEBUG_VALUE: __muldc3:__a <- [DW_OP_constu 72, DW_OP_minus] [$r22+0]
	//DEBUG_VALUE: __muldc3:__c <- $d20
	ld d0, r22, -72
	and r1, r1, 0
	and r0, r0, 2147483648
	sd r22, -72, d0
	jump .LBB0_32
.Ltmp116:
.LBB0_33:
	//DEBUG_VALUE: __muldc3:__d <- [DW_OP_constu 80, DW_OP_minus] [$r22+0]
	//DEBUG_VALUE: __muldc3:__b <- [DW_OP_constu 104, DW_OP_minus] [$r22+0]
	//DEBUG_VALUE: __muldc3:__a <- [DW_OP_constu 72, DW_OP_minus] [$r22+0]
	//DEBUG_VALUE: __muldc3:__c <- $d20
	and r15, r15, 0
	and r14, r14, 2147483648
.Ltmp117:
	//DEBUG_VALUE: __muldc3:__b <- $d14
	.loc	1 55 17 is_stmt 1               // uPIMulator_frontend/sdk/syslib/muldc3.c:55:17
	movd d0, d16
	movd d2, d16
	call r23, __unorddf2
.Ltmp118:
	.loc	1 55 17 is_stmt 0               // uPIMulator_frontend/sdk/syslib/muldc3.c:55:17
	jeq r0, 0, .LBB0_36
.Ltmp119:
.LBB0_35:
	//DEBUG_VALUE: __muldc3:__d <- [DW_OP_constu 80, DW_OP_minus] [$r22+0]
	//DEBUG_VALUE: __muldc3:__a <- [DW_OP_constu 72, DW_OP_minus] [$r22+0]
	//DEBUG_VALUE: __muldc3:__c <- $d20
	//DEBUG_VALUE: __muldc3:__b <- $d14
	.loc	1 0 17                          // uPIMulator_frontend/sdk/syslib/muldc3.c:0:17
	and r17, r17, 0
	and r16, r16, 2147483648
	jump .LBB0_36
.Ltmp120:
.LBB0_37:
	//DEBUG_VALUE: __muldc3:__d <- [DW_OP_constu 80, DW_OP_minus] [$r22+0]
	//DEBUG_VALUE: __muldc3:__a <- [DW_OP_constu 72, DW_OP_minus] [$r22+0]
	//DEBUG_VALUE: __muldc3:__c <- $d16
	//DEBUG_VALUE: __muldc3:__b <- $d14
	ld d0, r22, -80
	and r1, r1, 0
	and r0, r0, 2147483648
	sd r22, -80, d0
	jump .LBB0_38
.Lfunc_end0:
	.size	__muldc3, .Lfunc_end0-__muldc3
	.cfi_endproc
	.section	.stack_sizes,"o",@progbits,.text.__muldc3
	.long	.Lfunc_begin0
	.ascii	"\210\001"
	.section	.text.__muldc3,"ax",@progbits
                                        // -- End function
	.file	2 "/root" "uPIMulator_frontend/sdk/syslib/int_types.h"