	.text
	.file	"mulosi4.c"
	.file	1 "/root" "uPIMulator_frontend/sdk/syslib/int_types.h"
	.section	.text.__mulosi4,"ax",@progbits
	.globl	__mulosi4                       // -- Begin function __mulosi4
	.type	__mulosi4,@function
__mulosi4:                              // @__mulosi4
.Lfunc_begin0:
	.file	2 "/root" "uPIMulator_frontend/sdk/syslib/mulosi4.c"
	.loc	2 23 0                          // uPIMulator_frontend/sdk/syslib/mulosi4.c:23:0
	.cfi_sections .debug_frame
	.cfi_startproc
// %bb.0:
	//DEBUG_VALUE: __mulosi4:a <- $r0
	//DEBUG_VALUE: __mulosi4:b <- $r1
	//DEBUG_VALUE: __mulosi4:overflow <- $r2
	.cfi_def_cfa_offset -24
	.cfi_offset 23, -8
	.cfi_offset 22, -4
	sd r22, 16, d22
	add r22, r22, 24
	.cfi_offset 15, -16
	.cfi_offset 14, -12
	sd r22, -16, d14
	.cfi_offset 17, -24
	.cfi_offset 16, -20
	sd r22, -24, d16
	move r16, r2
	move r15, r1
	move r14, r0
	move r0, -2147483648
.Ltmp0:
	//DEBUG_VALUE: __mulosi4:result <- undef
	//DEBUG_VALUE: __mulosi4:MAX <- 2147483647
	//DEBUG_VALUE: __mulosi4:MIN <- -2147483648
	//DEBUG_VALUE: __mulosi4:N <- 32
	//DEBUG_VALUE: __mulosi4:overflow <- $r16
	//DEBUG_VALUE: __mulosi4:b <- $r15
	//DEBUG_VALUE: __mulosi4:a <- $r14
	.loc	2 27 15 prologue_end            // uPIMulator_frontend/sdk/syslib/mulosi4.c:27:15
	sw r16, 0, 0
	.loc	2 29 9                          // uPIMulator_frontend/sdk/syslib/mulosi4.c:29:9
	jneq r14, r0, .LBB0_2
.Ltmp1:
// %bb.1:
	//DEBUG_VALUE: __mulosi4:overflow <- $r16
	//DEBUG_VALUE: __mulosi4:b <- $r15
	//DEBUG_VALUE: __mulosi4:a <- $r14
	//DEBUG_VALUE: __mulosi4:N <- 32
	//DEBUG_VALUE: __mulosi4:MIN <- -2147483648
	//DEBUG_VALUE: __mulosi4:MAX <- 2147483647
	.loc	2 30 20                         // uPIMulator_frontend/sdk/syslib/mulosi4.c:30:20
	jgeu r15, 2, .LBB0_9
	jump .LBB0_10
.Ltmp2:
.LBB0_2:
	//DEBUG_VALUE: __mulosi4:overflow <- $r16
	//DEBUG_VALUE: __mulosi4:b <- $r15
	//DEBUG_VALUE: __mulosi4:a <- $r14
	//DEBUG_VALUE: __mulosi4:N <- 32
	//DEBUG_VALUE: __mulosi4:MIN <- -2147483648
	//DEBUG_VALUE: __mulosi4:MAX <- 2147483647
	.loc	2 34 9                          // uPIMulator_frontend/sdk/syslib/mulosi4.c:34:9
	jneq r15, r0, .LBB0_4
.Ltmp3:
// %bb.3:
	//DEBUG_VALUE: __mulosi4:overflow <- $r16
	//DEBUG_VALUE: __mulosi4:b <- $r15
	//DEBUG_VALUE: __mulosi4:a <- $r14
	//DEBUG_VALUE: __mulosi4:N <- 32
	//DEBUG_VALUE: __mulosi4:MIN <- -2147483648
	//DEBUG_VALUE: __mulosi4:MAX <- 2147483647
	.loc	2 35 20                         // uPIMulator_frontend/sdk/syslib/mulosi4.c:35:20
	jgeu r14, 2, .LBB0_9
	jump .LBB0_10
.Ltmp4:
.LBB0_4:
	//DEBUG_VALUE: __mulosi4:overflow <- $r16
	//DEBUG_VALUE: __mulosi4:b <- $r15
	//DEBUG_VALUE: __mulosi4:a <- $r14
	//DEBUG_VALUE: __mulosi4:N <- 32
	//DEBUG_VALUE: __mulosi4:MIN <- -2147483648
	//DEBUG_VALUE: __mulosi4:MAX <- 2147483647
	.loc	2 39 19                         // uPIMulator_frontend/sdk/syslib/mulosi4.c:39:19
	asr r0, r14, 31
.Ltmp5:
	//DEBUG_VALUE: __mulosi4:sa <- $r0
	.loc	2 40 23                         // uPIMulator_frontend/sdk/syslib/mulosi4.c:40:23
	xor r1, r0, r14
	.loc	2 40 29 is_stmt 0               // uPIMulator_frontend/sdk/syslib/mulosi4.c:40:29
	sub r17, r1, r0
.Ltmp6:
	//DEBUG_VALUE: __mulosi4:abs_b <- undef
	//DEBUG_VALUE: __mulosi4:sb <- undef
	//DEBUG_VALUE: __mulosi4:abs_a <- $r17
	.loc	2 43 19 is_stmt 1               // uPIMulator_frontend/sdk/syslib/mulosi4.c:43:19
	jlts r17, 2, .LBB0_10
.Ltmp7:
// %bb.5:
	//DEBUG_VALUE: __mulosi4:abs_a <- $r17
	//DEBUG_VALUE: __mulosi4:overflow <- $r16
	//DEBUG_VALUE: __mulosi4:b <- $r15
	//DEBUG_VALUE: __mulosi4:a <- $r14
	//DEBUG_VALUE: __mulosi4:sa <- $r0
	//DEBUG_VALUE: __mulosi4:N <- 32
	//DEBUG_VALUE: __mulosi4:MIN <- -2147483648
	//DEBUG_VALUE: __mulosi4:MAX <- 2147483647
	.loc	2 0 0 is_stmt 0                 // uPIMulator_frontend/sdk/syslib/mulosi4.c:0:0
	asr r2, r15, 31
.Ltmp8:
	//DEBUG_VALUE: __mulosi4:sb <- $r2
	xor r1, r2, r15
	sub r1, r1, r2
.Ltmp9:
	//DEBUG_VALUE: __mulosi4:abs_b <- $r1
	.loc	2 43 19                         // uPIMulator_frontend/sdk/syslib/mulosi4.c:43:19
	jlts r1, 2, .LBB0_10
.Ltmp10:
// %bb.6:
	//DEBUG_VALUE: __mulosi4:abs_a <- $r17
	//DEBUG_VALUE: __mulosi4:overflow <- $r16
	//DEBUG_VALUE: __mulosi4:b <- $r15
	//DEBUG_VALUE: __mulosi4:a <- $r14
	//DEBUG_VALUE: __mulosi4:sb <- $r2
	//DEBUG_VALUE: __mulosi4:abs_b <- $r1
	//DEBUG_VALUE: __mulosi4:sa <- $r0
	//DEBUG_VALUE: __mulosi4:N <- 32
	//DEBUG_VALUE: __mulosi4:MIN <- -2147483648
	//DEBUG_VALUE: __mulosi4:MAX <- 2147483647
	.loc	2 45 9 is_stmt 1                // uPIMulator_frontend/sdk/syslib/mulosi4.c:45:9
	jneq r0, r2, .LBB0_8
.Ltmp11:
// %bb.7:
	//DEBUG_VALUE: __mulosi4:abs_a <- $r17
	//DEBUG_VALUE: __mulosi4:overflow <- $r16
	//DEBUG_VALUE: __mulosi4:b <- $r15
	//DEBUG_VALUE: __mulosi4:a <- $r14
	//DEBUG_VALUE: __mulosi4:sb <- $r2
	//DEBUG_VALUE: __mulosi4:abs_b <- $r1
	//DEBUG_VALUE: __mulosi4:sa <- $r0
	//DEBUG_VALUE: __mulosi4:N <- 32
	//DEBUG_VALUE: __mulosi4:MIN <- -2147483648
	//DEBUG_VALUE: __mulosi4:MAX <- 2147483647
	.loc	2 0 9 is_stmt 0                 // uPIMulator_frontend/sdk/syslib/mulosi4.c:0:9
	move r0, 2147483647
.Ltmp12:
	.loc	2 46 25 is_stmt 1               // uPIMulator_frontend/sdk/syslib/mulosi4.c:46:25
	call r23, __udiv32
.Ltmp13:
	.loc	2 46 13 is_stmt 0               // uPIMulator_frontend/sdk/syslib/mulosi4.c:46:13
	jgts r17, r0, .LBB0_9
	jump .LBB0_10
.Ltmp14:
.LBB0_8:
	//DEBUG_VALUE: __mulosi4:abs_a <- $r17
	//DEBUG_VALUE: __mulosi4:overflow <- $r16
	//DEBUG_VALUE: __mulosi4:b <- $r15
	//DEBUG_VALUE: __mulosi4:a <- $r14
	//DEBUG_VALUE: __mulosi4:sb <- $r2
	//DEBUG_VALUE: __mulosi4:abs_b <- $r1
	//DEBUG_VALUE: __mulosi4:sa <- $r0
	//DEBUG_VALUE: __mulosi4:N <- 32
	//DEBUG_VALUE: __mulosi4:MIN <- -2147483648
	//DEBUG_VALUE: __mulosi4:MAX <- 2147483647
	.loc	2 49 27 is_stmt 1               // uPIMulator_frontend/sdk/syslib/mulosi4.c:49:27
	neg r1, r1
.Ltmp15:
	.loc	2 0 27 is_stmt 0                // uPIMulator_frontend/sdk/syslib/mulosi4.c:0:27
	move r0, -2147483648
.Ltmp16:
	.loc	2 49 25                         // uPIMulator_frontend/sdk/syslib/mulosi4.c:49:25
	call r23, __div32
.Ltmp17:
	.loc	2 49 13                         // uPIMulator_frontend/sdk/syslib/mulosi4.c:49:13
	jles r17, r0, .LBB0_10
.Ltmp18:
.LBB0_9:
	//DEBUG_VALUE: __mulosi4:overflow <- $r16
	//DEBUG_VALUE: __mulosi4:b <- $r15
	//DEBUG_VALUE: __mulosi4:a <- $r14
	//DEBUG_VALUE: __mulosi4:N <- 32
	//DEBUG_VALUE: __mulosi4:MIN <- -2147483648
	//DEBUG_VALUE: __mulosi4:MAX <- 2147483647
	.loc	2 0 0                           // uPIMulator_frontend/sdk/syslib/mulosi4.c:0:0
	sw r16, 0, 1
.Ltmp19:
.LBB0_10:
	//DEBUG_VALUE: __mulosi4:overflow <- $r16
	//DEBUG_VALUE: __mulosi4:b <- $r15
	//DEBUG_VALUE: __mulosi4:a <- $r14
	//DEBUG_VALUE: __mulosi4:N <- 32
	//DEBUG_VALUE: __mulosi4:MIN <- -2147483648
	//DEBUG_VALUE: __mulosi4:MAX <- 2147483647
	.loc	2 28 23 is_stmt 1               // uPIMulator_frontend/sdk/syslib/mulosi4.c:28:23
	move r0, r15
	move r1, r14
	call r23, __mulsi3
.Ltmp20:
	//DEBUG_VALUE: __mulosi4:result <- $r0
	.loc	2 53 1                          // uPIMulator_frontend/sdk/syslib/mulosi4.c:53:1
	ld d16, r22, -24
.Ltmp21:
	ld d14, r22, -16
.Ltmp22:
	ld d22, r22, -8
	jump r23
.Ltmp23:
.Lfunc_end0:
	.size	__mulosi4, .Lfunc_end0-__mulosi4
	.cfi_endproc
	.section	.stack_sizes,"o",@progbits,.text.__mulosi4
	.long	.Lfunc_begin0
	.byte	24
	.section	.text.__mulosi4,"ax",@progbits
                                        // -- End function