	.text
	.file	"mulsf3.c"
	.file	1 "/root" "uPIMulator_frontend/sdk/stdlib/stdint.h"
	.file	2 "/root" "uPIMulator_frontend/sdk/syslib/fp_lib.h"
	.section	.text.__mulsf3,"ax",@progbits
	.globl	__mulsf3                        // -- Begin function __mulsf3
	.type	__mulsf3,@function
__mulsf3:                               // @__mulsf3
.Lfunc_begin0:
	.file	3 "/root" "uPIMulator_frontend/sdk/syslib/mulsf3.c"
	.loc	3 20 0                          // uPIMulator_frontend/sdk/syslib/mulsf3.c:20:0
	.cfi_sections .debug_frame
	.cfi_startproc
// %bb.0:
	//DEBUG_VALUE: __mulsf3:a <- $r0
	//DEBUG_VALUE: __mulsf3:a <- $r0
	//DEBUG_VALUE: __mulsf3:b <- $r1
	//DEBUG_VALUE: __mulsf3:b <- $r1
	//DEBUG_VALUE: __mulXf3__:a <- $r0
	//DEBUG_VALUE: __mulXf3__:a <- $r0
	//DEBUG_VALUE: __mulXf3__:b <- $r1
	//DEBUG_VALUE: __mulXf3__:b <- $r1
	//DEBUG_VALUE: toRep:x <- $r0
	//DEBUG_VALUE: toRep:x <- $r0
	.cfi_def_cfa_offset -24
	.cfi_offset 23, -8
	.cfi_offset 22, -4
	sd r22, 16, d22
	add r22, r22, 24
	.cfi_offset 15, -16
	.cfi_offset 14, -12
.Ltmp0:
	sd r22, -16, d14
	.cfi_offset 17, -24
	.cfi_offset 16, -20
	sd r22, -24, d16
	//DEBUG_VALUE: toRep:rep <- $r0
	//DEBUG_VALUE: toRep:rep <- $r0
.Ltmp1:
	.file	4 "/root" "uPIMulator_frontend/sdk/syslib/fp_mul_impl.inc"
	.loc	4 18 45 prologue_end            // uPIMulator_frontend/sdk/syslib/fp_mul_impl.inc:18:45
	lsr r2, r0, 23
	.loc	4 18 64 is_stmt 0               // uPIMulator_frontend/sdk/syslib/fp_mul_impl.inc:18:64
	and r15, r2, 255
.Ltmp2:
	//DEBUG_VALUE: toRep:rep <- undef
	//DEBUG_VALUE: toRep:x <- undef
	//DEBUG_VALUE: __mulXf3__:aExponent <- $r15
	.loc	4 19 45 is_stmt 1               // uPIMulator_frontend/sdk/syslib/fp_mul_impl.inc:19:45
	lsr r2, r1, 23
	.loc	4 19 64 is_stmt 0               // uPIMulator_frontend/sdk/syslib/fp_mul_impl.inc:19:64
	and r16, r2, 255
.Ltmp3:
	//DEBUG_VALUE: toRep:rep <- undef
	//DEBUG_VALUE: toRep:x <- undef
	//DEBUG_VALUE: toRep:rep <- undef
	//DEBUG_VALUE: toRep:x <- undef
	//DEBUG_VALUE: __mulXf3__:bExponent <- $r16
	.loc	4 20 41 is_stmt 1               // uPIMulator_frontend/sdk/syslib/fp_mul_impl.inc:20:41
	xor r2, r1, r0
	.loc	4 20 53 is_stmt 0               // uPIMulator_frontend/sdk/syslib/fp_mul_impl.inc:20:53
	and r14, r2, -2147483648
.Ltmp4:
	//DEBUG_VALUE: toRep:rep <- undef
	//DEBUG_VALUE: toRep:x <- undef
	//DEBUG_VALUE: __mulXf3__:productSign <- $r14
	.loc	4 22 35 is_stmt 1               // uPIMulator_frontend/sdk/syslib/fp_mul_impl.inc:22:35
	and r2, r0, 8388607
.Ltmp5:
	//DEBUG_VALUE: toRep:rep <- undef
	//DEBUG_VALUE: toRep:x <- undef
	//DEBUG_VALUE: __mulXf3__:aSignificand <- $r2
	.loc	4 23 35                         // uPIMulator_frontend/sdk/syslib/fp_mul_impl.inc:23:35
	and r3, r1, 8388607
.Ltmp6:
	//DEBUG_VALUE: __mulXf3__:scale <- 0
	//DEBUG_VALUE: __mulXf3__:bSignificand <- $r3
	.loc	4 27 18                         // uPIMulator_frontend/sdk/syslib/fp_mul_impl.inc:27:18
	add r4, r15, -1
	.loc	4 27 40 is_stmt 0               // uPIMulator_frontend/sdk/syslib/fp_mul_impl.inc:27:40
	jgtu r4, 253, .LBB0_7
.Ltmp7:
// %bb.1:
	//DEBUG_VALUE: __mulXf3__:bExponent <- $r16
	//DEBUG_VALUE: __mulXf3__:aExponent <- $r15
	//DEBUG_VALUE: __mulXf3__:productSign <- $r14
	//DEBUG_VALUE: __mulXf3__:bSignificand <- $r3
	//DEBUG_VALUE: __mulXf3__:aSignificand <- $r2
	//DEBUG_VALUE: __mulXf3__:b <- $r1
	//DEBUG_VALUE: __mulsf3:b <- $r1
	//DEBUG_VALUE: __mulXf3__:a <- $r0
	//DEBUG_VALUE: __mulsf3:a <- $r0
	//DEBUG_VALUE: __mulXf3__:scale <- 0
	.loc	4 0 40                          // uPIMulator_frontend/sdk/syslib/fp_mul_impl.inc:0:40
	move r17, 0
	add r4, r16, -1
	.loc	4 27 40                         // uPIMulator_frontend/sdk/syslib/fp_mul_impl.inc:27:40
	jgeu r4, 254, .LBB0_7
.Ltmp8:
.LBB0_2:
	//DEBUG_VALUE: __mulXf3__:bExponent <- $r16
	//DEBUG_VALUE: __mulXf3__:aExponent <- $r15
	//DEBUG_VALUE: __mulXf3__:productSign <- $r14
	//DEBUG_VALUE: __mulXf3__:aSignificand <- $r2
	//DEBUG_VALUE: __mulXf3__:scale <- $r17
	.loc	4 66 18 is_stmt 1               // uPIMulator_frontend/sdk/syslib/fp_mul_impl.inc:66:18
	or r0, r2, 8388608
.Ltmp9:
	//DEBUG_VALUE: __mulXf3__:bSignificand <- [DW_OP_constu 8388608, DW_OP_or, DW_OP_stack_value] $r3
	//DEBUG_VALUE: __mulXf3__:aSignificand <- $r0
	.loc	4 75 45                         // uPIMulator_frontend/sdk/syslib/fp_mul_impl.inc:75:45
	lsl r1, r3, 8
	or r1, r1, -2147483648
.Ltmp10:
	//DEBUG_VALUE: wideMultiply:lo <- undef
	//DEBUG_VALUE: wideMultiply:hi <- undef
	//DEBUG_VALUE: wideMultiply:a <- $r0
	//DEBUG_VALUE: wideMultiply:b <- $r1
	.loc	2 59 30                         // uPIMulator_frontend/sdk/syslib/fp_lib.h:59:30
	move.u d2, r0
.Ltmp11:
	.loc	2 59 44 is_stmt 0               // uPIMulator_frontend/sdk/syslib/fp_lib.h:59:44
	move.u d0, r1
.Ltmp12:
	.loc	2 59 42                         // uPIMulator_frontend/sdk/syslib/fp_lib.h:59:42
	call r23, __muldi3
.Ltmp13:
	//DEBUG_VALUE: wideMultiply:product <- $d0
	.loc	4 78 37 is_stmt 1               // uPIMulator_frontend/sdk/syslib/fp_mul_impl.inc:78:37
	add r2, r15, r16
	.loc	4 78 49 is_stmt 0               // uPIMulator_frontend/sdk/syslib/fp_mul_impl.inc:78:49
	add r2, r2, r17
	.loc	4 78 64                         // uPIMulator_frontend/sdk/syslib/fp_mul_impl.inc:78:64
	add r2, r2, -127
.Ltmp14:
	//DEBUG_VALUE: __mulXf3__:productHi <- $r0
	//DEBUG_VALUE: __mulXf3__:productExponent <- $r2
	.loc	4 81 19 is_stmt 1               // uPIMulator_frontend/sdk/syslib/fp_mul_impl.inc:81:19
	and r3, r0, 8388608
.Ltmp15:
	.loc	4 81 9 is_stmt 0                // uPIMulator_frontend/sdk/syslib/fp_mul_impl.inc:81:9
	jneq r3, 0, .LBB0_9
.Ltmp16:
// %bb.3:
	//DEBUG_VALUE: __mulXf3__:scale <- $r17
	//DEBUG_VALUE: __mulXf3__:bExponent <- $r16
	//DEBUG_VALUE: __mulXf3__:aExponent <- $r15
	//DEBUG_VALUE: __mulXf3__:productSign <- $r14
	//DEBUG_VALUE: __mulXf3__:productExponent <- $r2
	//DEBUG_VALUE: __mulXf3__:productHi <- $r0
	//DEBUG_VALUE: wideLeftShift:hi <- undef
	//DEBUG_VALUE: wideLeftShift:lo <- undef
	//DEBUG_VALUE: wideLeftShift:count <- 1
	.loc	2 259 24 is_stmt 1              // uPIMulator_frontend/sdk/syslib/fp_lib.h:259:24
	lsr r3, r1, 31
	lsl_add r0, r3, r0, 1
.Ltmp17:
	.loc	2 260 15                        // uPIMulator_frontend/sdk/syslib/fp_lib.h:260:15
	lsl r1, r1, 1
.Ltmp18:
	//DEBUG_VALUE: __mulXf3__:productExponent <- $r2
	.loc	4 85 9                          // uPIMulator_frontend/sdk/syslib/fp_mul_impl.inc:85:9
	jges r2, 255, .LBB0_15
	jump .LBB0_4
.Ltmp19:
.LBB0_7:
	//DEBUG_VALUE: __mulXf3__:bExponent <- $r16
	//DEBUG_VALUE: __mulXf3__:aExponent <- $r15
	//DEBUG_VALUE: __mulXf3__:productSign <- $r14
	//DEBUG_VALUE: __mulXf3__:bSignificand <- $r3
	//DEBUG_VALUE: __mulXf3__:aSignificand <- $r2
	//DEBUG_VALUE: __mulXf3__:b <- $r1
	//DEBUG_VALUE: __mulsf3:b <- $r1
	//DEBUG_VALUE: __mulXf3__:a <- $r0
	//DEBUG_VALUE: __mulsf3:a <- $r0
	//DEBUG_VALUE: __mulXf3__:scale <- 0
	.loc	4 29 37                         // uPIMulator_frontend/sdk/syslib/fp_mul_impl.inc:29:37
	and r4, r0, 2147483647
.Ltmp20:
	//DEBUG_VALUE: bAbs <- undef
	//DEBUG_VALUE: toRep:rep <- undef
	//DEBUG_VALUE: toRep:x <- undef
	//DEBUG_VALUE: aAbs <- $r4
	.loc	4 0 37 is_stmt 0                // uPIMulator_frontend/sdk/syslib/fp_mul_impl.inc:0:37
	move r5, 2139095041
.Ltmp21:
	//DEBUG_VALUE: toRep:rep <- undef
	//DEBUG_VALUE: toRep:x <- undef
	.loc	4 33 13 is_stmt 1               // uPIMulator_frontend/sdk/syslib/fp_mul_impl.inc:33:13
	jltu r4, r5, .LBB0_11
.Ltmp22:
// %bb.8:
	//DEBUG_VALUE: __mulXf3__:bExponent <- $r16
	//DEBUG_VALUE: __mulXf3__:aExponent <- $r15
	//DEBUG_VALUE: __mulXf3__:productSign <- $r14
	//DEBUG_VALUE: aAbs <- $r4
	//DEBUG_VALUE: __mulXf3__:bSignificand <- $r3
	//DEBUG_VALUE: __mulXf3__:aSignificand <- $r2
	//DEBUG_VALUE: __mulXf3__:b <- $r1
	//DEBUG_VALUE: __mulsf3:b <- $r1
	//DEBUG_VALUE: __mulXf3__:a <- $r0
	//DEBUG_VALUE: __mulsf3:a <- $r0
	//DEBUG_VALUE: __mulXf3__:scale <- 0
	.loc	4 33 52 is_stmt 0               // uPIMulator_frontend/sdk/syslib/fp_mul_impl.inc:33:52
	or r14, r0, 4194304
.Ltmp23:
	//DEBUG_VALUE: toRep:rep <- undef
	//DEBUG_VALUE: toRep:x <- undef
	//DEBUG_VALUE: fromRep:rep <- undef
	//DEBUG_VALUE: fromRep:x <- $r14
	.loc	4 0 52                          // uPIMulator_frontend/sdk/syslib/fp_mul_impl.inc:0:52
	jump .LBB0_30
.Ltmp24:
.LBB0_9:
	//DEBUG_VALUE: __mulXf3__:scale <- $r17
	//DEBUG_VALUE: __mulXf3__:bExponent <- $r16
	//DEBUG_VALUE: __mulXf3__:aExponent <- $r15
	//DEBUG_VALUE: __mulXf3__:productSign <- $r14
	//DEBUG_VALUE: __mulXf3__:productExponent <- $r2
	//DEBUG_VALUE: __mulXf3__:productHi <- $r0
	.loc	4 81 49 is_stmt 1               // uPIMulator_frontend/sdk/syslib/fp_mul_impl.inc:81:49
	add r2, r2, 1
.Ltmp25:
	//DEBUG_VALUE: __mulXf3__:productExponent <- $r2
	//DEBUG_VALUE: __mulXf3__:productExponent <- $r2
	.loc	4 85 9                          // uPIMulator_frontend/sdk/syslib/fp_mul_impl.inc:85:9
	jges r2, 255, .LBB0_15
.Ltmp26:
.LBB0_4:
	//DEBUG_VALUE: __mulXf3__:scale <- $r17
	//DEBUG_VALUE: __mulXf3__:bExponent <- $r16
	//DEBUG_VALUE: __mulXf3__:aExponent <- $r15
	//DEBUG_VALUE: __mulXf3__:productSign <- $r14
	//DEBUG_VALUE: __mulXf3__:productExponent <- $r2
	.loc	4 87 9                          // uPIMulator_frontend/sdk/syslib/fp_mul_impl.inc:87:9
	jles r2, 0, .LBB0_16
.Ltmp27:
// %bb.5:
	//DEBUG_VALUE: __mulXf3__:scale <- $r17
	//DEBUG_VALUE: __mulXf3__:bExponent <- $r16
	//DEBUG_VALUE: __mulXf3__:aExponent <- $r15
	//DEBUG_VALUE: __mulXf3__:productSign <- $r14
	//DEBUG_VALUE: __mulXf3__:productExponent <- $r2
	//DEBUG_VALUE: __mulXf3__:productHi <- $r0
	.loc	4 103 19                        // uPIMulator_frontend/sdk/syslib/fp_mul_impl.inc:103:19
	and r3, r0, 8388607
	.loc	4 104 19                        // uPIMulator_frontend/sdk/syslib/fp_mul_impl.inc:104:19
	lsl_add r2, r3, r2, 23
.Ltmp28:
	//DEBUG_VALUE: __mulXf3__:productHi <- $r2
	//DEBUG_VALUE: __mulXf3__:productHi <- $r2
	.loc	4 0 19 is_stmt 0                // uPIMulator_frontend/sdk/syslib/fp_mul_impl.inc:0:19
	move r3, -2147483647
.Ltmp29:
	//DEBUG_VALUE: __mulXf3__:productLo <- $r1
	//DEBUG_VALUE: __mulXf3__:productHi <- undef
	.loc	4 108 15 is_stmt 1              // uPIMulator_frontend/sdk/syslib/fp_mul_impl.inc:108:15
	or r14, r2, r14
.Ltmp30:
	.loc	4 113 9                         // uPIMulator_frontend/sdk/syslib/fp_mul_impl.inc:113:9
	jltu r1, r3, .LBB0_18
.Ltmp31:
.LBB0_6:
	//DEBUG_VALUE: __mulXf3__:scale <- $r17
	//DEBUG_VALUE: __mulXf3__:bExponent <- $r16
	//DEBUG_VALUE: __mulXf3__:aExponent <- $r15
	//DEBUG_VALUE: __mulXf3__:productLo <- $r1
	//DEBUG_VALUE: __mulXf3__:productLo <- undef
	//DEBUG_VALUE: __mulXf3__:productHi <- $r14
	//DEBUG_VALUE: fromRep:x <- $r14
	//DEBUG_VALUE: fromRep:rep <- undef
	.loc	4 113 39 is_stmt 0              // uPIMulator_frontend/sdk/syslib/fp_mul_impl.inc:113:39
	add r14, r14, 1, true, .LBB0_30
.Ltmp32:
.LBB0_11:
	//DEBUG_VALUE: __mulXf3__:bExponent <- $r16
	//DEBUG_VALUE: __mulXf3__:aExponent <- $r15
	//DEBUG_VALUE: __mulXf3__:productSign <- $r14
	//DEBUG_VALUE: aAbs <- $r4
	//DEBUG_VALUE: __mulXf3__:bSignificand <- $r3
	//DEBUG_VALUE: __mulXf3__:aSignificand <- $r2
	//DEBUG_VALUE: __mulXf3__:b <- $r1
	//DEBUG_VALUE: __mulsf3:b <- $r1
	//DEBUG_VALUE: __mulXf3__:a <- $r0
	//DEBUG_VALUE: __mulsf3:a <- $r0
	//DEBUG_VALUE: __mulXf3__:scale <- 0
	.loc	4 0 0                           // uPIMulator_frontend/sdk/syslib/fp_mul_impl.inc:0:0
	and r0, r1, 2147483647
.Ltmp33:
	//DEBUG_VALUE: bAbs <- $r0
	.loc	4 35 13 is_stmt 1               // uPIMulator_frontend/sdk/syslib/fp_mul_impl.inc:35:13
	jltu r0, r5, .LBB0_13
.Ltmp34:
// %bb.12:
	//DEBUG_VALUE: __mulXf3__:bExponent <- $r16
	//DEBUG_VALUE: __mulXf3__:aExponent <- $r15
	//DEBUG_VALUE: __mulXf3__:productSign <- $r14
	//DEBUG_VALUE: aAbs <- $r4
	//DEBUG_VALUE: __mulXf3__:bSignificand <- $r3
	//DEBUG_VALUE: __mulXf3__:aSignificand <- $r2
	//DEBUG_VALUE: __mulXf3__:b <- $r1
	//DEBUG_VALUE: __mulsf3:b <- $r1
	//DEBUG_VALUE: bAbs <- $r0
	//DEBUG_VALUE: __mulXf3__:scale <- 0
	.loc	4 35 52 is_stmt 0               // uPIMulator_frontend/sdk/syslib/fp_mul_impl.inc:35:52
	or r14, r1, 4194304
.Ltmp35:
	//DEBUG_VALUE: toRep:rep <- undef
	//DEBUG_VALUE: toRep:x <- undef
	//DEBUG_VALUE: fromRep:rep <- undef
	//DEBUG_VALUE: fromRep:x <- $r14
	.loc	4 0 52                          // uPIMulator_frontend/sdk/syslib/fp_mul_impl.inc:0:52
	jump .LBB0_30
.Ltmp36:
.LBB0_13:
	//DEBUG_VALUE: __mulXf3__:bExponent <- $r16
	//DEBUG_VALUE: __mulXf3__:aExponent <- $r15
	//DEBUG_VALUE: __mulXf3__:productSign <- $r14
	//DEBUG_VALUE: aAbs <- $r4
	//DEBUG_VALUE: __mulXf3__:bSignificand <- $r3
	//DEBUG_VALUE: __mulXf3__:aSignificand <- $r2
	//DEBUG_VALUE: __mulXf3__:b <- $r1
	//DEBUG_VALUE: __mulsf3:b <- $r1
	//DEBUG_VALUE: bAbs <- $r0
	//DEBUG_VALUE: __mulXf3__:scale <- 0
	move r1, 2139095040
.Ltmp37:
	.loc	4 37 13 is_stmt 1               // uPIMulator_frontend/sdk/syslib/fp_mul_impl.inc:37:13
	jneq r4, r1, .LBB0_20
.Ltmp38:
// %bb.14:
	//DEBUG_VALUE: __mulXf3__:bExponent <- $r16
	//DEBUG_VALUE: __mulXf3__:aExponent <- $r15
	//DEBUG_VALUE: __mulXf3__:productSign <- $r14
	//DEBUG_VALUE: aAbs <- $r4
	//DEBUG_VALUE: __mulXf3__:bSignificand <- $r3
	//DEBUG_VALUE: __mulXf3__:aSignificand <- $r2
	//DEBUG_VALUE: bAbs <- $r0
	//DEBUG_VALUE: __mulXf3__:scale <- 0
	.loc	4 39 17                         // uPIMulator_frontend/sdk/syslib/fp_mul_impl.inc:39:17
	jeq r0, 0, .LBB0_29
.Ltmp39:
.LBB0_15:
	//DEBUG_VALUE: __mulXf3__:bExponent <- $r16
	//DEBUG_VALUE: __mulXf3__:aExponent <- $r15
	//DEBUG_VALUE: __mulXf3__:productSign <- $r14
	.loc	4 0 0 is_stmt 0                 // uPIMulator_frontend/sdk/syslib/fp_mul_impl.inc:0:0
	or r14, r14, 2139095040
.Ltmp40:
	//DEBUG_VALUE: fromRep:rep <- undef
	//DEBUG_VALUE: fromRep:x <- $r14
.LBB0_30:
	.loc	3 21 5 is_stmt 1                // uPIMulator_frontend/sdk/syslib/mulsf3.c:21:5
	move r0, r14
	ld d16, r22, -24
	ld d14, r22, -16
	ld d22, r22, -8
	jump r23
.LBB0_16:
.Ltmp41:
	//DEBUG_VALUE: __mulXf3__:scale <- $r17
	//DEBUG_VALUE: __mulXf3__:bExponent <- $r16
	//DEBUG_VALUE: __mulXf3__:aExponent <- $r15
	//DEBUG_VALUE: __mulXf3__:productSign <- $r14
	//DEBUG_VALUE: __mulXf3__:productExponent <- $r2
	.loc	4 94 45                         // uPIMulator_frontend/sdk/syslib/fp_mul_impl.inc:94:45
	sub r3, 1, r2
.Ltmp42:
	//DEBUG_VALUE: shift <- $r3
	.loc	4 95 13                         // uPIMulator_frontend/sdk/syslib/fp_mul_impl.inc:95:13
	jgeu r3, 32, .LBB0_30
.Ltmp43:
// %bb.17:
	//DEBUG_VALUE: __mulXf3__:scale <- $r17
	//DEBUG_VALUE: __mulXf3__:bExponent <- $r16
	//DEBUG_VALUE: __mulXf3__:aExponent <- $r15
	//DEBUG_VALUE: __mulXf3__:productSign <- $r14
	//DEBUG_VALUE: shift <- $r3
	//DEBUG_VALUE: __mulXf3__:productExponent <- $r2
	//DEBUG_VALUE: wideRightShiftWithSticky:hi <- undef
	//DEBUG_VALUE: wideRightShiftWithSticky:lo <- undef
	//DEBUG_VALUE: wideRightShiftWithSticky:count <- $r3
	.loc	2 267 47                        // uPIMulator_frontend/sdk/syslib/fp_lib.h:267:47
	add r2, r2, 31
.Ltmp44:
	.loc	2 267 33 is_stmt 0              // uPIMulator_frontend/sdk/syslib/fp_lib.h:267:33
	lsl r4, r1, r2
	move r5, 0
	.loc	2 267 29                        // uPIMulator_frontend/sdk/syslib/fp_lib.h:267:29
	sub r4, r4, r5, neq
.Ltmp45:
	//DEBUG_VALUE: sticky <- [DW_OP_LLVM_convert 1 7, DW_OP_LLVM_convert 8 7, DW_OP_stack_value] $r4
	.loc	2 268 19 is_stmt 1              // uPIMulator_frontend/sdk/syslib/fp_lib.h:268:19
	lsl r2, r0, r2
	.loc	2 268 48 is_stmt 0              // uPIMulator_frontend/sdk/syslib/fp_lib.h:268:48
	lsr r5, r1, r3
	.loc	2 268 42                        // uPIMulator_frontend/sdk/syslib/fp_lib.h:268:42
	or r2, r2, r5
	.loc	2 268 57                        // uPIMulator_frontend/sdk/syslib/fp_lib.h:268:57
	or r1, r2, r4
	.loc	2 269 19 is_stmt 1              // uPIMulator_frontend/sdk/syslib/fp_lib.h:269:19
	lsr r2, r0, r3
.Ltmp46:
	//DEBUG_VALUE: __mulXf3__:productHi <- $r2
	.loc	2 0 19 is_stmt 0                // uPIMulator_frontend/sdk/syslib/fp_lib.h:0:19
	move r3, -2147483647
.Ltmp47:
	//DEBUG_VALUE: __mulXf3__:productLo <- $r1
	//DEBUG_VALUE: __mulXf3__:productHi <- undef
	.loc	4 108 15 is_stmt 1              // uPIMulator_frontend/sdk/syslib/fp_mul_impl.inc:108:15
	or r14, r2, r14
.Ltmp48:
	.loc	4 113 9                         // uPIMulator_frontend/sdk/syslib/fp_mul_impl.inc:113:9
	jgeu r1, r3, .LBB0_6
.Ltmp49:
.LBB0_18:
	//DEBUG_VALUE: __mulXf3__:scale <- $r17
	//DEBUG_VALUE: __mulXf3__:bExponent <- $r16
	//DEBUG_VALUE: __mulXf3__:aExponent <- $r15
	//DEBUG_VALUE: __mulXf3__:productLo <- $r1
	//DEBUG_VALUE: __mulXf3__:productLo <- $r1
	.loc	4 0 9 is_stmt 0                 // uPIMulator_frontend/sdk/syslib/fp_mul_impl.inc:0:9
	move r3, -2147483648
	.loc	4 114 9 is_stmt 1               // uPIMulator_frontend/sdk/syslib/fp_mul_impl.inc:114:9
	jneq r1, r3, .LBB0_30
.Ltmp50:
// %bb.19:
	//DEBUG_VALUE: __mulXf3__:scale <- $r17
	//DEBUG_VALUE: __mulXf3__:bExponent <- $r16
	//DEBUG_VALUE: __mulXf3__:aExponent <- $r15
	//DEBUG_VALUE: __mulXf3__:productLo <- $r1
	//DEBUG_VALUE: __mulXf3__:productHi <- undef
	.loc	4 114 54 is_stmt 0              // uPIMulator_frontend/sdk/syslib/fp_mul_impl.inc:114:54
	and r0, r2, 1
.Ltmp51:
	//DEBUG_VALUE: __mulXf3__:productHi <- $r14
	//DEBUG_VALUE: fromRep:x <- $r14
	//DEBUG_VALUE: fromRep:rep <- undef
	.loc	4 114 41                        // uPIMulator_frontend/sdk/syslib/fp_mul_impl.inc:114:41
	add r14, r14, r0, true, .LBB0_30
.Ltmp52:
.LBB0_20:
	//DEBUG_VALUE: __mulXf3__:bExponent <- $r16
	//DEBUG_VALUE: __mulXf3__:aExponent <- $r15
	//DEBUG_VALUE: __mulXf3__:productSign <- $r14
	//DEBUG_VALUE: aAbs <- $r4
	//DEBUG_VALUE: __mulXf3__:bSignificand <- $r3
	//DEBUG_VALUE: __mulXf3__:aSignificand <- $r2
	//DEBUG_VALUE: bAbs <- $r0
	//DEBUG_VALUE: __mulXf3__:scale <- 0
	.loc	4 44 13 is_stmt 1               // uPIMulator_frontend/sdk/syslib/fp_mul_impl.inc:44:13
	jneq r0, r1, .LBB0_23
.Ltmp53:
// %bb.21:
	//DEBUG_VALUE: __mulXf3__:bExponent <- $r16
	//DEBUG_VALUE: __mulXf3__:aExponent <- $r15
	//DEBUG_VALUE: __mulXf3__:productSign <- $r14
	//DEBUG_VALUE: aAbs <- $r4
	//DEBUG_VALUE: __mulXf3__:bSignificand <- $r3
	//DEBUG_VALUE: __mulXf3__:aSignificand <- $r2
	//DEBUG_VALUE: bAbs <- $r0
	//DEBUG_VALUE: __mulXf3__:scale <- 0
	.loc	4 46 17                         // uPIMulator_frontend/sdk/syslib/fp_mul_impl.inc:46:17
	jneq r4, 0, .LBB0_15
.Ltmp54:
.LBB0_29:
	//DEBUG_VALUE: __mulXf3__:bExponent <- $r16
	//DEBUG_VALUE: __mulXf3__:aExponent <- $r15
	//DEBUG_VALUE: __mulXf3__:productSign <- $r14
	//DEBUG_VALUE: aAbs <- $r4
	//DEBUG_VALUE: __mulXf3__:bSignificand <- $r3
	//DEBUG_VALUE: __mulXf3__:aSignificand <- $r2
	//DEBUG_VALUE: bAbs <- $r0
	//DEBUG_VALUE: __mulXf3__:scale <- 0
	.loc	4 0 17 is_stmt 0                // uPIMulator_frontend/sdk/syslib/fp_mul_impl.inc:0:17
	move r14, 2143289344
.Ltmp55:
	jump .LBB0_30
.Ltmp56:
.LBB0_23:
	//DEBUG_VALUE: __mulXf3__:bExponent <- $r16
	//DEBUG_VALUE: __mulXf3__:aExponent <- $r15
	//DEBUG_VALUE: __mulXf3__:productSign <- $r14
	//DEBUG_VALUE: aAbs <- $r4
	//DEBUG_VALUE: __mulXf3__:bSignificand <- $r3
	//DEBUG_VALUE: __mulXf3__:aSignificand <- $r2
	//DEBUG_VALUE: bAbs <- $r0
	//DEBUG_VALUE: __mulXf3__:scale <- 0
	.loc	4 52 13 is_stmt 1               // uPIMulator_frontend/sdk/syslib/fp_mul_impl.inc:52:13
	jeq r4, 0, .LBB0_30
.Ltmp57:
// %bb.24:
	//DEBUG_VALUE: __mulXf3__:bExponent <- $r16
	//DEBUG_VALUE: __mulXf3__:aExponent <- $r15
	//DEBUG_VALUE: __mulXf3__:productSign <- $r14
	//DEBUG_VALUE: aAbs <- $r4
	//DEBUG_VALUE: __mulXf3__:bSignificand <- $r3
	//DEBUG_VALUE: __mulXf3__:aSignificand <- $r2
	//DEBUG_VALUE: bAbs <- $r0
	//DEBUG_VALUE: __mulXf3__:scale <- 0
	.loc	4 54 13                         // uPIMulator_frontend/sdk/syslib/fp_mul_impl.inc:54:13
	jeq r0, 0, .LBB0_30
.Ltmp58:
// %bb.25:
	//DEBUG_VALUE: __mulXf3__:bExponent <- $r16
	//DEBUG_VALUE: __mulXf3__:aExponent <- $r15
	//DEBUG_VALUE: __mulXf3__:productSign <- $r14
	//DEBUG_VALUE: aAbs <- $r4
	//DEBUG_VALUE: __mulXf3__:bSignificand <- $r3
	//DEBUG_VALUE: __mulXf3__:aSignificand <- $r2
	//DEBUG_VALUE: bAbs <- $r0
	//DEBUG_VALUE: __mulXf3__:scale <- 0
	.loc	4 59 13                         // uPIMulator_frontend/sdk/syslib/fp_mul_impl.inc:59:13
	clz r5, r2
	add r1, r5, -8
	lsr r4, r4, 23, nz, .LBB0_31
.Ltmp59:
// %bb.26:
	//DEBUG_VALUE: __mulXf3__:bExponent <- $r16
	//DEBUG_VALUE: __mulXf3__:aExponent <- $r15
	//DEBUG_VALUE: __mulXf3__:productSign <- $r14
	//DEBUG_VALUE: __mulXf3__:bSignificand <- $r3
	//DEBUG_VALUE: __mulXf3__:aSignificand <- $r2
	//DEBUG_VALUE: bAbs <- $r0
	//DEBUG_VALUE: __mulXf3__:scale <- 0
	sub r17, 9, r5
	jneq r4, 0, .LBB0_32
.Ltmp60:
.LBB0_27:
	//DEBUG_VALUE: __mulXf3__:bExponent <- $r16
	//DEBUG_VALUE: __mulXf3__:aExponent <- $r15
	//DEBUG_VALUE: __mulXf3__:productSign <- $r14
	//DEBUG_VALUE: __mulXf3__:bSignificand <- $r3
	//DEBUG_VALUE: __mulXf3__:aSignificand <- $r2
	//DEBUG_VALUE: bAbs <- $r0
	//DEBUG_VALUE: __mulXf3__:scale <- 0
	.loc	4 0 0 is_stmt 0                 // uPIMulator_frontend/sdk/syslib/fp_mul_impl.inc:0:0
	lsl r2, r2, r1
.Ltmp61:
	//DEBUG_VALUE: __mulXf3__:scale <- $r17
	.loc	4 60 13 is_stmt 1               // uPIMulator_frontend/sdk/syslib/fp_mul_impl.inc:60:13
	lsr r0, r0, 23
.Ltmp62:
	jneq r0, 0, .LBB0_2
	jump .LBB0_33
.Ltmp63:
.LBB0_31:
	//DEBUG_VALUE: __mulXf3__:bExponent <- $r16
	//DEBUG_VALUE: __mulXf3__:aExponent <- $r15
	//DEBUG_VALUE: __mulXf3__:productSign <- $r14
	//DEBUG_VALUE: __mulXf3__:bSignificand <- $r3
	//DEBUG_VALUE: __mulXf3__:aSignificand <- $r2
	//DEBUG_VALUE: bAbs <- $r0
	//DEBUG_VALUE: __mulXf3__:scale <- 0
	.loc	4 0 13 is_stmt 0                // uPIMulator_frontend/sdk/syslib/fp_mul_impl.inc:0:13
	move r1, 0
	.loc	4 59 13 is_stmt 1               // uPIMulator_frontend/sdk/syslib/fp_mul_impl.inc:59:13
	sub r17, 9, r5
	jeq r4, 0, .LBB0_27
.Ltmp64:
.LBB0_32:
	//DEBUG_VALUE: __mulXf3__:bExponent <- $r16
	//DEBUG_VALUE: __mulXf3__:aExponent <- $r15
	//DEBUG_VALUE: __mulXf3__:productSign <- $r14
	//DEBUG_VALUE: __mulXf3__:bSignificand <- $r3
	//DEBUG_VALUE: __mulXf3__:aSignificand <- $r2
	//DEBUG_VALUE: bAbs <- $r0
	//DEBUG_VALUE: __mulXf3__:scale <- 0
	.loc	4 0 13 is_stmt 0                // uPIMulator_frontend/sdk/syslib/fp_mul_impl.inc:0:13
	move r17, 0
	lsl r2, r2, r1
.Ltmp65:
	//DEBUG_VALUE: __mulXf3__:scale <- $r17
	.loc	4 60 13 is_stmt 1               // uPIMulator_frontend/sdk/syslib/fp_mul_impl.inc:60:13
	lsr r0, r0, 23, nz, .LBB0_2
.Ltmp66:
.LBB0_33:
	//DEBUG_VALUE: __mulXf3__:scale <- $r17
	//DEBUG_VALUE: __mulXf3__:bExponent <- $r16
	//DEBUG_VALUE: __mulXf3__:aExponent <- $r15
	//DEBUG_VALUE: __mulXf3__:productSign <- $r14
	//DEBUG_VALUE: __mulXf3__:bSignificand <- $r3
	//DEBUG_VALUE: normalize:significand <- undef
	//DEBUG_VALUE: rep_clz:a <- $r3
	.loc	2 52 12                         // uPIMulator_frontend/sdk/syslib/fp_lib.h:52:12
	clz r0, r3
.Ltmp67:
	//DEBUG_VALUE: rep_clz:a <- 8388608
	.loc	2 251 45                        // uPIMulator_frontend/sdk/syslib/fp_lib.h:251:45
	add r1, r0, -8
.Ltmp68:
	//DEBUG_VALUE: normalize:shift <- $r1
	.loc	2 252 18                        // uPIMulator_frontend/sdk/syslib/fp_lib.h:252:18
	lsl r3, r3, r1
.Ltmp69:
	.loc	4 60 39                         // uPIMulator_frontend/sdk/syslib/fp_mul_impl.inc:60:39
	sub r0, r17, r0
	//DEBUG_VALUE: __mulXf3__:scale <- $r17
	add r17, r0, 9, true, .LBB0_2
.Ltmp70:
.Lfunc_end0:
	.size	__mulsf3, .Lfunc_end0-__mulsf3
	.cfi_endproc
	.section	.stack_sizes,"o",@progbits,.text.__mulsf3
	.long	.Lfunc_begin0
	.byte	24
	.section	.text.__mulsf3,"ax",@progbits
                                        // -- End function