	.text
	.file	"mulvsi3.c"
	.file	1 "/root" "uPIMulator_frontend/sdk/syslib/int_types.h"
	.section	.text.__mulvsi3,"ax",@progbits
	.globl	__mulvsi3                       // -- Begin function __mulvsi3
	.type	__mulvsi3,@function
__mulvsi3:                              // @__mulvsi3
.Lfunc_begin0:
	.file	2 "/root" "uPIMulator_frontend/sdk/syslib/mulvsi3.c"
	.loc	2 23 0                          // uPIMulator_frontend/sdk/syslib/mulvsi3.c:23:0
	.cfi_sections .debug_frame
	.cfi_startproc
// %bb.0:
	//DEBUG_VALUE: __mulvsi3:a <- $r0
	//DEBUG_VALUE: __mulvsi3:b <- $r1
	.cfi_def_cfa_offset -24
	.cfi_offset 23, -8
	.cfi_offset 22, -4
	sd r22, 16, d22
	add r22, r22, 24
	.cfi_offset 15, -16
	.cfi_offset 14, -12
	sd r22, -16, d14
	.cfi_offset 17, -24
	.cfi_offset 16, -20
	sd r22, -24, d16
	move r2, -2147483648
	move r15, r1
	move r14, r0
.Ltmp0:
	//DEBUG_VALUE: __mulvsi3:MAX <- 2147483647
	//DEBUG_VALUE: __mulvsi3:MIN <- -2147483648
	//DEBUG_VALUE: __mulvsi3:N <- 32
	//DEBUG_VALUE: __mulvsi3:b <- $r15
	//DEBUG_VALUE: __mulvsi3:a <- $r14
	.loc	2 27 9 prologue_end             // uPIMulator_frontend/sdk/syslib/mulvsi3.c:27:9
	jneq r14, r2, .LBB0_4
.Ltmp1:
// %bb.1:
	//DEBUG_VALUE: __mulvsi3:b <- $r15
	//DEBUG_VALUE: __mulvsi3:a <- $r14
	//DEBUG_VALUE: __mulvsi3:N <- 32
	//DEBUG_VALUE: __mulvsi3:MIN <- -2147483648
	//DEBUG_VALUE: __mulvsi3:MAX <- 2147483647
	.loc	2 28 20                         // uPIMulator_frontend/sdk/syslib/mulvsi3.c:28:20
	jgtu r15, 1, .LBB0_3
.Ltmp2:
// %bb.2:
	//DEBUG_VALUE: __mulvsi3:b <- $r15
	//DEBUG_VALUE: __mulvsi3:a <- $r14
	//DEBUG_VALUE: __mulvsi3:N <- 32
	//DEBUG_VALUE: __mulvsi3:MIN <- -2147483648
	//DEBUG_VALUE: __mulvsi3:MAX <- 2147483647
	.loc	2 29 22                         // uPIMulator_frontend/sdk/syslib/mulvsi3.c:29:22
	lsl r0, r15, 31
.Ltmp3:
	.loc	2 51 1                          // uPIMulator_frontend/sdk/syslib/mulvsi3.c:51:1
	ld d16, r22, -24
	ld d14, r22, -16
.Ltmp4:
	ld d22, r22, -8
	jump r23
.Ltmp5:
.LBB0_4:
	//DEBUG_VALUE: __mulvsi3:b <- $r15
	//DEBUG_VALUE: __mulvsi3:a <- $r14
	//DEBUG_VALUE: __mulvsi3:N <- 32
	//DEBUG_VALUE: __mulvsi3:MIN <- -2147483648
	//DEBUG_VALUE: __mulvsi3:MAX <- 2147483647
	.loc	2 32 9                          // uPIMulator_frontend/sdk/syslib/mulvsi3.c:32:9
	jneq r15, r2, .LBB0_8
.Ltmp6:
// %bb.5:
	//DEBUG_VALUE: __mulvsi3:b <- $r15
	//DEBUG_VALUE: __mulvsi3:a <- $r14
	//DEBUG_VALUE: __mulvsi3:N <- 32
	//DEBUG_VALUE: __mulvsi3:MIN <- -2147483648
	//DEBUG_VALUE: __mulvsi3:MAX <- 2147483647
	.loc	2 33 20                         // uPIMulator_frontend/sdk/syslib/mulvsi3.c:33:20
	jgtu r14, 1, .LBB0_7
.Ltmp7:
// %bb.6:
	//DEBUG_VALUE: __mulvsi3:b <- $r15
	//DEBUG_VALUE: __mulvsi3:a <- $r14
	//DEBUG_VALUE: __mulvsi3:N <- 32
	//DEBUG_VALUE: __mulvsi3:MIN <- -2147483648
	//DEBUG_VALUE: __mulvsi3:MAX <- 2147483647
	.loc	2 34 22                         // uPIMulator_frontend/sdk/syslib/mulvsi3.c:34:22
	lsl r0, r14, 31
.Ltmp8:
	.loc	2 51 1                          // uPIMulator_frontend/sdk/syslib/mulvsi3.c:51:1
	ld d16, r22, -24
	ld d14, r22, -16
.Ltmp9:
	ld d22, r22, -8
	jump r23
.Ltmp10:
.LBB0_8:
	//DEBUG_VALUE: __mulvsi3:b <- $r15
	//DEBUG_VALUE: __mulvsi3:a <- $r14
	//DEBUG_VALUE: __mulvsi3:N <- 32
	//DEBUG_VALUE: __mulvsi3:MIN <- -2147483648
	//DEBUG_VALUE: __mulvsi3:MAX <- 2147483647
	.loc	2 37 19                         // uPIMulator_frontend/sdk/syslib/mulvsi3.c:37:19
	asr r0, r14, 31
.Ltmp11:
	//DEBUG_VALUE: __mulvsi3:sa <- $r0
	.loc	2 38 23                         // uPIMulator_frontend/sdk/syslib/mulvsi3.c:38:23
	xor r1, r0, r14
	.loc	2 38 29 is_stmt 0               // uPIMulator_frontend/sdk/syslib/mulvsi3.c:38:29
	sub r16, r1, r0
.Ltmp12:
	//DEBUG_VALUE: __mulvsi3:abs_b <- undef
	//DEBUG_VALUE: __mulvsi3:sb <- undef
	//DEBUG_VALUE: __mulvsi3:abs_a <- $r16
	.loc	2 41 19 is_stmt 1               // uPIMulator_frontend/sdk/syslib/mulvsi3.c:41:19
	jlts r16, 2, .LBB0_14
.Ltmp13:
// %bb.9:
	//DEBUG_VALUE: __mulvsi3:abs_a <- $r16
	//DEBUG_VALUE: __mulvsi3:b <- $r15
	//DEBUG_VALUE: __mulvsi3:a <- $r14
	//DEBUG_VALUE: __mulvsi3:sa <- $r0
	//DEBUG_VALUE: __mulvsi3:N <- 32
	//DEBUG_VALUE: __mulvsi3:MIN <- -2147483648
	//DEBUG_VALUE: __mulvsi3:MAX <- 2147483647
	.loc	2 0 0 is_stmt 0                 // uPIMulator_frontend/sdk/syslib/mulvsi3.c:0:0
	asr r2, r15, 31
.Ltmp14:
	//DEBUG_VALUE: __mulvsi3:sb <- $r2
	xor r1, r2, r15
	sub r1, r1, r2
.Ltmp15:
	//DEBUG_VALUE: __mulvsi3:abs_b <- $r1
	.loc	2 41 19                         // uPIMulator_frontend/sdk/syslib/mulvsi3.c:41:19
	jlts r1, 2, .LBB0_14
.Ltmp16:
// %bb.10:
	//DEBUG_VALUE: __mulvsi3:abs_a <- $r16
	//DEBUG_VALUE: __mulvsi3:b <- $r15
	//DEBUG_VALUE: __mulvsi3:a <- $r14
	//DEBUG_VALUE: __mulvsi3:sb <- $r2
	//DEBUG_VALUE: __mulvsi3:abs_b <- $r1
	//DEBUG_VALUE: __mulvsi3:sa <- $r0
	//DEBUG_VALUE: __mulvsi3:N <- 32
	//DEBUG_VALUE: __mulvsi3:MIN <- -2147483648
	//DEBUG_VALUE: __mulvsi3:MAX <- 2147483647
	.loc	2 43 9 is_stmt 1                // uPIMulator_frontend/sdk/syslib/mulvsi3.c:43:9
	jneq r0, r2, .LBB0_13
.Ltmp17:
// %bb.11:
	//DEBUG_VALUE: __mulvsi3:abs_a <- $r16
	//DEBUG_VALUE: __mulvsi3:b <- $r15
	//DEBUG_VALUE: __mulvsi3:a <- $r14
	//DEBUG_VALUE: __mulvsi3:sb <- $r2
	//DEBUG_VALUE: __mulvsi3:abs_b <- $r1
	//DEBUG_VALUE: __mulvsi3:sa <- $r0
	//DEBUG_VALUE: __mulvsi3:N <- 32
	//DEBUG_VALUE: __mulvsi3:MIN <- -2147483648
	//DEBUG_VALUE: __mulvsi3:MAX <- 2147483647
	.loc	2 0 9 is_stmt 0                 // uPIMulator_frontend/sdk/syslib/mulvsi3.c:0:9
	move r0, 2147483647
.Ltmp18:
	.loc	2 44 25 is_stmt 1               // uPIMulator_frontend/sdk/syslib/mulvsi3.c:44:25
	call r23, __udiv32
.Ltmp19:
	.loc	2 44 13 is_stmt 0               // uPIMulator_frontend/sdk/syslib/mulvsi3.c:44:13
	jles r16, r0, .LBB0_14
.Ltmp20:
// %bb.12:
	//DEBUG_VALUE: __mulvsi3:abs_a <- $r16
	//DEBUG_VALUE: __mulvsi3:b <- $r15
	//DEBUG_VALUE: __mulvsi3:a <- $r14
	//DEBUG_VALUE: __mulvsi3:sb <- $r2
	//DEBUG_VALUE: __mulvsi3:abs_b <- $r1
	//DEBUG_VALUE: __mulvsi3:N <- 32
	//DEBUG_VALUE: __mulvsi3:MIN <- -2147483648
	//DEBUG_VALUE: __mulvsi3:MAX <- 2147483647
	.loc	2 45 13 is_stmt 1               // uPIMulator_frontend/sdk/syslib/mulvsi3.c:45:13
	move r0, .L.str
	move r2, .L__func__.__mulvsi3
.Ltmp21:
	.loc	2 0 13 is_stmt 0                // uPIMulator_frontend/sdk/syslib/mulvsi3.c:0:13
	move r1, 45
.Ltmp22:
	.loc	2 45 13                         // uPIMulator_frontend/sdk/syslib/mulvsi3.c:45:13
	call r23, compilerrt_abort_impl
.Ltmp23:
.LBB0_13:
	//DEBUG_VALUE: __mulvsi3:abs_a <- $r16
	//DEBUG_VALUE: __mulvsi3:b <- $r15
	//DEBUG_VALUE: __mulvsi3:a <- $r14
	//DEBUG_VALUE: __mulvsi3:sb <- $r2
	//DEBUG_VALUE: __mulvsi3:abs_b <- $r1
	//DEBUG_VALUE: __mulvsi3:sa <- $r0
	//DEBUG_VALUE: __mulvsi3:N <- 32
	//DEBUG_VALUE: __mulvsi3:MIN <- -2147483648
	//DEBUG_VALUE: __mulvsi3:MAX <- 2147483647
	.loc	2 47 27 is_stmt 1               // uPIMulator_frontend/sdk/syslib/mulvsi3.c:47:27
	neg r1, r1
.Ltmp24:
	.loc	2 0 27 is_stmt 0                // uPIMulator_frontend/sdk/syslib/mulvsi3.c:0:27
	move r0, -2147483648
.Ltmp25:
	.loc	2 47 25                         // uPIMulator_frontend/sdk/syslib/mulvsi3.c:47:25
	call r23, __div32
.Ltmp26:
	.loc	2 47 13                         // uPIMulator_frontend/sdk/syslib/mulvsi3.c:47:13
	jgts r16, r0, .LBB0_16
.Ltmp27:
.LBB0_14:
	//DEBUG_VALUE: __mulvsi3:abs_a <- $r16
	//DEBUG_VALUE: __mulvsi3:b <- $r15
	//DEBUG_VALUE: __mulvsi3:a <- $r14
	//DEBUG_VALUE: __mulvsi3:N <- 32
	//DEBUG_VALUE: __mulvsi3:MIN <- -2147483648
	//DEBUG_VALUE: __mulvsi3:MAX <- 2147483647
	.loc	2 0 0                           // uPIMulator_frontend/sdk/syslib/mulvsi3.c:0:0
	move r0, r15
	move r1, r14
	call r23, __mulsi3
.Ltmp28:
	.loc	2 51 1 is_stmt 1                // uPIMulator_frontend/sdk/syslib/mulvsi3.c:51:1
	ld d16, r22, -24
.Ltmp29:
	ld d14, r22, -16
.Ltmp30:
	ld d22, r22, -8
	jump r23
.Ltmp31:
.LBB0_3:
	//DEBUG_VALUE: __mulvsi3:b <- $r15
	//DEBUG_VALUE: __mulvsi3:a <- $r14
	//DEBUG_VALUE: __mulvsi3:N <- 32
	//DEBUG_VALUE: __mulvsi3:MIN <- -2147483648
	//DEBUG_VALUE: __mulvsi3:MAX <- 2147483647
	.loc	2 30 9                          // uPIMulator_frontend/sdk/syslib/mulvsi3.c:30:9
	move r0, .L.str
	move r2, .L__func__.__mulvsi3
	move r1, 30
	call r23, compilerrt_abort_impl
.Ltmp32:
.LBB0_7:
	//DEBUG_VALUE: __mulvsi3:b <- $r15
	//DEBUG_VALUE: __mulvsi3:a <- $r14
	//DEBUG_VALUE: __mulvsi3:N <- 32
	//DEBUG_VALUE: __mulvsi3:MIN <- -2147483648
	//DEBUG_VALUE: __mulvsi3:MAX <- 2147483647
	.loc	2 35 9                          // uPIMulator_frontend/sdk/syslib/mulvsi3.c:35:9
	move r0, .L.str
	move r2, .L__func__.__mulvsi3
	move r1, 35
	call r23, compilerrt_abort_impl
.Ltmp33:
.LBB0_16:
	//DEBUG_VALUE: __mulvsi3:abs_a <- $r16
	//DEBUG_VALUE: __mulvsi3:b <- $r15
	//DEBUG_VALUE: __mulvsi3:a <- $r14
	//DEBUG_VALUE: __mulvsi3:sb <- $r2
	//DEBUG_VALUE: __mulvsi3:N <- 32
	//DEBUG_VALUE: __mulvsi3:MIN <- -2147483648
	//DEBUG_VALUE: __mulvsi3:MAX <- 2147483647
	.loc	2 48 13                         // uPIMulator_frontend/sdk/syslib/mulvsi3.c:48:13
	move r0, .L.str
	move r2, .L__func__.__mulvsi3
.Ltmp34:
	.loc	2 0 13 is_stmt 0                // uPIMulator_frontend/sdk/syslib/mulvsi3.c:0:13
	move r1, 48
	.loc	2 48 13                         // uPIMulator_frontend/sdk/syslib/mulvsi3.c:48:13
	call r23, compilerrt_abort_impl
.Ltmp35:
.Lfunc_end0:
	.size	__mulvsi3, .Lfunc_end0-__mulvsi3
	.cfi_endproc
	.section	.stack_sizes,"o",@progbits,.text.__mulvsi3
	.long	.Lfunc_begin0
	.byte	24
	.section	.text.__mulvsi3,"ax",@progbits
                                        // -- End function
	.type	.L.str,@object                  // @.str
	.section	.rodata.str1.1,"aMS",@progbits,1
.L.str:
	.asciz	"/root/uPIMulator_frontend/sdk/syslib/mulvsi3.c"
	.size	.L.str, 47

	.type	.L__func__.__mulvsi3,@object    // @__func__.__mulvsi3
.L__func__.__mulvsi3:
	.asciz	"__mulvsi3"
	.size	.L__func__.__mulvsi3, 10
