	.text
	.file	"seqread256.c"
	.file	1 "/root" "uPIMulator_frontend/sdk/stdlib/stdint.h"
	.file	2 "/root" "uPIMulator_frontend/sdk/syslib/seqread.h"
	.section	.text.seqread256_alloc,"ax",@progbits
	.globl	seqread256_alloc                // -- Begin function seqread256_alloc
	.type	seqread256_alloc,@function
seqread256_alloc:                       // @seqread256_alloc
.Lfunc_begin0:
	.file	3 "/root" "uPIMulator_frontend/sdk/syslib/seqread.inc"
	.loc	3 26 0                          // uPIMulator_frontend/sdk/syslib/seqread.inc:26:0
	.cfi_sections .debug_frame
	.cfi_startproc
// %bb.0:
	.cfi_def_cfa_offset -16
	.cfi_offset 23, -8
	.cfi_offset 22, -4
	sd r22, 8, d22
	add r22, r22, 16
	.cfi_offset 15, -16
	.cfi_offset 14, -12
.Ltmp0:
	sd r22, -16, d14
	.loc	3 27 5 prologue_end             // uPIMulator_frontend/sdk/syslib/seqread.inc:27:5
	// inline asm
.Ltmp1:
	acquire zero, __atomic_bit___heap_pointer, nz, .Ltmp1
	// inline asm
	.loc	3 29 33                         // uPIMulator_frontend/sdk/syslib/seqread.inc:29:33
	lw r0, zero, __sys_heap_pointer
.Ltmp2:
	//DEBUG_VALUE: seqread256_alloc:heap_pointer <- $r0
	.loc	3 30 69                         // uPIMulator_frontend/sdk/syslib/seqread.inc:30:69
	add r1, r0, 255
	.loc	3 30 86 is_stmt 0               // uPIMulator_frontend/sdk/syslib/seqread.inc:30:86
	and r14, r1, -256
.Ltmp3:
	//DEBUG_VALUE: seqread256_alloc:pointer <- $r14
	.loc	3 31 45 is_stmt 1               // uPIMulator_frontend/sdk/syslib/seqread.inc:31:45
	sub r0, r14, r0
.Ltmp4:
	add r0, r0, 512
.Ltmp5:
	//DEBUG_VALUE: seqread256_alloc:size <- $r0
	.loc	3 34 5                          // uPIMulator_frontend/sdk/syslib/seqread.inc:34:5
	call r23, mem_alloc_nolock
.Ltmp6:
	.loc	3 36 5                          // uPIMulator_frontend/sdk/syslib/seqread.inc:36:5
	// inline asm
.Ltmp7:
	release zero, __atomic_bit___heap_pointer, nz, .Ltmp7+1
	// inline asm
	.loc	3 38 5                          // uPIMulator_frontend/sdk/syslib/seqread.inc:38:5
	move r0, r14
.Ltmp8:
	ld d14, r22, -16
.Ltmp9:
	ld d22, r22, -8
	jump r23
.Ltmp10:
.Lfunc_end0:
	.size	seqread256_alloc, .Lfunc_end0-seqread256_alloc
	.cfi_endproc
	.section	.stack_sizes,"o",@progbits,.text.seqread256_alloc
	.long	.Lfunc_begin0
	.byte	16
	.section	.text.seqread256_alloc,"ax",@progbits
                                        // -- End function
	.section	.text.seqread256_init,"ax",@progbits
	.globl	seqread256_init                 // -- Begin function seqread256_init
	.type	seqread256_init,@function
seqread256_init:                        // @seqread256_init
.Lfunc_begin1:
	.loc	3 43 0                          // uPIMulator_frontend/sdk/syslib/seqread.inc:43:0
	.cfi_startproc
// %bb.0:
	//DEBUG_VALUE: seqread256_init:cache <- $r0
	//DEBUG_VALUE: seqread256_init:cache <- $r0
	//DEBUG_VALUE: seqread256_init:mram_addr <- $r1
	//DEBUG_VALUE: seqread256_init:mram_addr <- $r1
	//DEBUG_VALUE: seqread256_init:reader <- $r2
	//DEBUG_VALUE: seqread256_init:reader <- $r2
	.cfi_def_cfa_offset 0
	.loc	3 44 24 prologue_end            // uPIMulator_frontend/sdk/syslib/seqread.inc:44:24
	sw r2, 0, r0
	move r3, 67108864
	.loc	3 45 23                         // uPIMulator_frontend/sdk/syslib/seqread.inc:45:23
	sw r2, 4, r3
.Ltmp11:
	//DEBUG_VALUE: seqread256_seek:wram_cache <- $r0
	//DEBUG_VALUE: seqread256_seek:current_addr <- 67108864
	//DEBUG_VALUE: seqread256_seek:target_addr <- $r1
	//DEBUG_VALUE: seqread256_seek:reader <- $r2
	//DEBUG_VALUE: seqread256_seek:mram_addr <- $r1
	.loc	3 62 41                         // uPIMulator_frontend/sdk/syslib/seqread.inc:62:41
	add r3, r1, -67108864
.Ltmp12:
	//DEBUG_VALUE: seqread256_seek:mram_offset <- $r3
	.loc	3 63 9                          // uPIMulator_frontend/sdk/syslib/seqread.inc:63:9
	jltu r3, 256, .LBB1_2
.Ltmp13:
// %bb.1:
	//DEBUG_VALUE: seqread256_seek:mram_offset <- $r3
	//DEBUG_VALUE: seqread256_seek:reader <- $r2
	//DEBUG_VALUE: seqread256_init:reader <- $r2
	//DEBUG_VALUE: seqread256_seek:mram_addr <- $r1
	//DEBUG_VALUE: seqread256_seek:target_addr <- $r1
	//DEBUG_VALUE: seqread256_init:mram_addr <- $r1
	//DEBUG_VALUE: seqread256_seek:wram_cache <- $r0
	//DEBUG_VALUE: seqread256_init:cache <- $r0
	//DEBUG_VALUE: seqread256_seek:current_addr <- 67108864
	.loc	3 64 54                         // uPIMulator_frontend/sdk/syslib/seqread.inc:64:54
	and r4, r1, -256
.Ltmp14:
	//DEBUG_VALUE: mram_read:nb_of_bytes <- 512
	//DEBUG_VALUE: mram_read:from <- $r4
	//DEBUG_VALUE: mram_read:to <- $r0
	//DEBUG_VALUE: target_addr_idx_page <- $r4
	.file	4 "/root" "uPIMulator_frontend/sdk/syslib/mram.h"
	.loc	4 35 24                         // uPIMulator_frontend/sdk/syslib/mram.h:35:24
	ldma r0, r4, 63
.Ltmp15:
	.loc	3 66 35                         // uPIMulator_frontend/sdk/syslib/seqread.inc:66:35
	and r3, r1, 255
.Ltmp16:
	//DEBUG_VALUE: seqread256_seek:mram_offset <- $r3
	.loc	3 67 27                         // uPIMulator_frontend/sdk/syslib/seqread.inc:67:27
	sw r2, 4, r4
.Ltmp17:
.LBB1_2:
	//DEBUG_VALUE: seqread256_seek:mram_offset <- $r3
	//DEBUG_VALUE: seqread256_seek:reader <- $r2
	//DEBUG_VALUE: seqread256_init:reader <- $r2
	//DEBUG_VALUE: seqread256_seek:mram_addr <- $r1
	//DEBUG_VALUE: seqread256_seek:target_addr <- $r1
	//DEBUG_VALUE: seqread256_init:mram_addr <- $r1
	//DEBUG_VALUE: seqread256_seek:wram_cache <- $r0
	//DEBUG_VALUE: seqread256_init:cache <- $r0
	//DEBUG_VALUE: seqread256_seek:current_addr <- 67108864
	//DEBUG_VALUE: seqread256_seek:mram_offset <- $r3
	.loc	3 69 33                         // uPIMulator_frontend/sdk/syslib/seqread.inc:69:33
	add r0, r3, r0
.Ltmp18:
	.loc	3 47 5                          // uPIMulator_frontend/sdk/syslib/seqread.inc:47:5
	jump r23
.Ltmp19:
.Lfunc_end1:
	.size	seqread256_init, .Lfunc_end1-seqread256_init
	.cfi_endproc
	.section	.stack_sizes,"o",@progbits,.text.seqread256_init
	.long	.Lfunc_begin1
	.byte	0
	.section	.text.seqread256_init,"ax",@progbits
                                        // -- End function
	.section	.text.seqread256_seek,"ax",@progbits
	.globl	seqread256_seek                 // -- Begin function seqread256_seek
	.type	seqread256_seek,@function
seqread256_seek:                        // @seqread256_seek
.Lfunc_begin2:
	.loc	3 58 0                          // uPIMulator_frontend/sdk/syslib/seqread.inc:58:0
	.cfi_startproc
// %bb.0:
	//DEBUG_VALUE: seqread256_seek:mram_addr <- $r0
	//DEBUG_VALUE: seqread256_seek:reader <- $r1
	//DEBUG_VALUE: seqread256_seek:reader <- $r1
	.cfi_def_cfa_offset 0
	.loc	3 60 49 prologue_end            // uPIMulator_frontend/sdk/syslib/seqread.inc:60:49
	lw r3, r1, 4
.Ltmp20:
	//DEBUG_VALUE: seqread256_seek:current_addr <- $r3
	.loc	3 61 47                         // uPIMulator_frontend/sdk/syslib/seqread.inc:61:47
	lw r2, r1, 0
.Ltmp21:
	//DEBUG_VALUE: seqread256_seek:target_addr <- $r0
	//DEBUG_VALUE: seqread256_seek:wram_cache <- $r2
	//DEBUG_VALUE: seqread256_seek:mram_addr <- $r0
	.loc	3 62 41                         // uPIMulator_frontend/sdk/syslib/seqread.inc:62:41
	sub r3, r0, r3
.Ltmp22:
	//DEBUG_VALUE: seqread256_seek:mram_offset <- $r3
	.loc	3 63 9                          // uPIMulator_frontend/sdk/syslib/seqread.inc:63:9
	jltu r3, 256, .LBB2_2
.Ltmp23:
// %bb.1:
	//DEBUG_VALUE: seqread256_seek:mram_offset <- $r3
	//DEBUG_VALUE: seqread256_seek:wram_cache <- $r2
	//DEBUG_VALUE: seqread256_seek:reader <- $r1
	//DEBUG_VALUE: seqread256_seek:target_addr <- $r0
	//DEBUG_VALUE: seqread256_seek:mram_addr <- $r0
	.loc	3 64 54                         // uPIMulator_frontend/sdk/syslib/seqread.inc:64:54
	and r4, r0, -256
.Ltmp24:
	//DEBUG_VALUE: mram_read:nb_of_bytes <- 512
	//DEBUG_VALUE: mram_read:from <- $r4
	//DEBUG_VALUE: mram_read:to <- $r2
	//DEBUG_VALUE: target_addr_idx_page <- $r4
	.loc	4 35 24                         // uPIMulator_frontend/sdk/syslib/mram.h:35:24
	ldma r2, r4, 63
.Ltmp25:
	.loc	3 66 35                         // uPIMulator_frontend/sdk/syslib/seqread.inc:66:35
	and r3, r0, 255
.Ltmp26:
	//DEBUG_VALUE: seqread256_seek:mram_offset <- $r3
	.loc	3 67 27                         // uPIMulator_frontend/sdk/syslib/seqread.inc:67:27
	sw r1, 4, r4
.Ltmp27:
.LBB2_2:
	//DEBUG_VALUE: seqread256_seek:mram_offset <- $r3
	//DEBUG_VALUE: seqread256_seek:wram_cache <- $r2
	//DEBUG_VALUE: seqread256_seek:reader <- $r1
	//DEBUG_VALUE: seqread256_seek:target_addr <- $r0
	//DEBUG_VALUE: seqread256_seek:mram_addr <- $r0
	//DEBUG_VALUE: seqread256_seek:mram_offset <- $r3
	.loc	3 69 33                         // uPIMulator_frontend/sdk/syslib/seqread.inc:69:33
	add r0, r3, r2
.Ltmp28:
	.loc	3 69 5 is_stmt 0                // uPIMulator_frontend/sdk/syslib/seqread.inc:69:5
	jump r23
.Ltmp29:
.Lfunc_end2:
	.size	seqread256_seek, .Lfunc_end2-seqread256_seek
	.cfi_endproc
	.section	.stack_sizes,"o",@progbits,.text.seqread256_seek
	.long	.Lfunc_begin2
	.byte	0
	.section	.text.seqread256_seek,"ax",@progbits
                                        // -- End function
	.section	.text.seqread256_get,"ax",@progbits
	.globl	seqread256_get                  // -- Begin function seqread256_get
	.type	seqread256_get,@function
seqread256_get:                         // @seqread256_get
.Lfunc_begin3:
	.loc	3 52 0 is_stmt 1                // uPIMulator_frontend/sdk/syslib/seqread.inc:52:0
	.cfi_startproc
// %bb.0:
	//DEBUG_VALUE: seqread256_get:ptr <- $r0
	//DEBUG_VALUE: seqread256_get:ptr <- $r0
	//DEBUG_VALUE: seqread256_get:inc <- $r1
	//DEBUG_VALUE: seqread256_get:inc <- $r1
	//DEBUG_VALUE: seqread256_get:reader <- $r2
	//DEBUG_VALUE: seqread256_get:reader <- $r2
	.cfi_def_cfa_offset 0
	.loc	3 53 20 prologue_end            // uPIMulator_frontend/sdk/syslib/seqread.inc:53:20
	add r0, r0, r1, nc8, .LBB3_2
.Ltmp30:
// %bb.1:
	//DEBUG_VALUE: seqread256_get:reader <- $r2
	//DEBUG_VALUE: seqread256_get:inc <- $r1
	//DEBUG_VALUE: seqread256_get:ptr <- $r0
	lw r1, r2, 4
.Ltmp31:
	add r1, r1, 256
	sw r2, 4, r1
	lw r2, r2, 0
.Ltmp32:
	ldma r2, r1, 63
	add r0, r0, 4294967040
.Ltmp33:
.LBB3_2:
	.loc	3 53 5 is_stmt 0                // uPIMulator_frontend/sdk/syslib/seqread.inc:53:5
	jump r23
.Ltmp34:
.Lfunc_end3:
	.size	seqread256_get, .Lfunc_end3-seqread256_get
	.cfi_endproc
	.section	.stack_sizes,"o",@progbits,.text.seqread256_get
	.long	.Lfunc_begin3
	.byte	0
	.section	.text.seqread256_get,"ax",@progbits
                                        // -- End function
	.section	.text.seqread256_tell,"ax",@progbits
	.globl	seqread256_tell                 // -- Begin function seqread256_tell
	.type	seqread256_tell,@function
seqread256_tell:                        // @seqread256_tell
.Lfunc_begin4:
	.loc	3 74 0 is_stmt 1                // uPIMulator_frontend/sdk/syslib/seqread.inc:74:0
	.cfi_startproc
// %bb.0:
	//DEBUG_VALUE: seqread256_tell:ptr <- $r0
	//DEBUG_VALUE: seqread256_tell:reader <- $r1
	//DEBUG_VALUE: seqread256_tell:reader <- $r1
	.cfi_def_cfa_offset 0
	.loc	3 75 51 prologue_end            // uPIMulator_frontend/sdk/syslib/seqread.inc:75:51
	lw r1, r1, 4
.Ltmp35:
	//DEBUG_VALUE: seqread256_tell:ptr <- $r0
	.loc	3 75 79 is_stmt 0               // uPIMulator_frontend/sdk/syslib/seqread.inc:75:79
	and r0, r0, 255
.Ltmp36:
	.loc	3 75 61                         // uPIMulator_frontend/sdk/syslib/seqread.inc:75:61
	add r0, r1, r0
	.loc	3 75 5                          // uPIMulator_frontend/sdk/syslib/seqread.inc:75:5
	jump r23
.Ltmp37:
.Lfunc_end4:
	.size	seqread256_tell, .Lfunc_end4-seqread256_tell
	.cfi_endproc
	.section	.stack_sizes,"o",@progbits,.text.seqread256_tell
	.long	.Lfunc_begin4
	.byte	0
	.section	.text.seqread256_tell,"ax",@progbits
                                        // -- End function
	.file	5 "/root" "uPIMulator_frontend/sdk/stdlib/stddef.h"