	.text
	.file	"task.c"
                                        // Start of file scope inline assembly
	.section	.data.my_barrier,"aw",@progbits
	.type	my_barrier,@object
	.globl	my_barrier
	.p2align	2
my_barrier:
	.byte	255
	.byte	16
	.byte	16
	.byte	__atomic_bit_barrier_my_barrier
	.size	my_barrier, 4
	.text

                                        // End of file scope inline assembly
	.file	1 "/root/uPIMulator_frontend/benchmark/VA" "dpu/task.c"
	.file	2 "/root" "upmem-2021.3.0-Linux-x86_64/bin/../share/upmem/include/stdlib/stdint.h"
	.file	3 "/root/uPIMulator_frontend/benchmark/VA" "dpu/../support/common.h"
	.section	.text.vector_addition,"ax",@progbits
	.globl	vector_addition                 // -- Begin function vector_addition
	.type	vector_addition,@function
vector_addition:                        // @vector_addition
.Lfunc_begin0:
	.loc	1 18 0                          // dpu/task.c:18:0
	.cfi_sections .debug_frame
	.cfi_startproc
// %bb.0:
	//DEBUG_VALUE: vector_addition:bufferB <- $r0
	//DEBUG_VALUE: vector_addition:bufferB <- $r0
	//DEBUG_VALUE: vector_addition:bufferA <- $r1
	//DEBUG_VALUE: vector_addition:bufferA <- $r1
	//DEBUG_VALUE: vector_addition:l_size <- $r2
	//DEBUG_VALUE: vector_addition:l_size <- $r2
	.cfi_def_cfa_offset 0
	//DEBUG_VALUE: i <- 0
	.loc	1 19 5 prologue_end             // dpu/task.c:19:5
	jeq r2, 0, .LBB0_2
.Ltmp0:
.LBB0_1:                                // =>This Inner Loop Header: Depth=1
	//DEBUG_VALUE: i <- undef
	.loc	1 20 23                         // dpu/task.c:20:23
	lw r3, r1, 0
	.loc	1 20 20 is_stmt 0               // dpu/task.c:20:20
	lw r4, r0, 0
	add r3, r4, r3
	sw r0, 0, r3
.Ltmp1:
	//DEBUG_VALUE: i <- [DW_OP_plus_uconst 1, DW_OP_stack_value] undef
	.loc	1 19 32 is_stmt 1               // dpu/task.c:19:32
	add r0, r0, 4
	add r1, r1, 4
	add r2, r2, -1, nz, .LBB0_1
.Ltmp2:
.LBB0_2:
	.loc	1 22 1                          // dpu/task.c:22:1
	jump r23
.Ltmp3:
.Lfunc_end0:
	.size	vector_addition, .Lfunc_end0-vector_addition
	.cfi_endproc
	.section	.stack_sizes,"o",@progbits,.text.vector_addition
	.long	.Lfunc_begin0
	.byte	0
	.section	.text.vector_addition,"ax",@progbits
                                        // -- End function
	.section	.text.main_kernel1,"ax",@progbits
	.globl	main_kernel1                    // -- Begin function main_kernel1
	.type	main_kernel1,@function
main_kernel1:                           // @main_kernel1
.Lfunc_begin1:
	.loc	1 37 0                          // dpu/task.c:37:0
	.cfi_startproc
// %bb.0:
	.cfi_def_cfa_offset -48
	.cfi_offset 23, -8
	.cfi_offset 22, -4
	sd r22, 40, d22
	add r22, r22, 48
	.cfi_offset 15, -24
	.cfi_offset 14, -20
.Ltmp4:
	sd r22, -24, d14
	.cfi_offset 17, -32
	.cfi_offset 16, -28
	sd r22, -32, d16
	.cfi_offset 19, -40
	.cfi_offset 18, -36
	sd r22, -40, d18
	.cfi_offset 21, -48
	.cfi_offset 20, -44
	sd r22, -48, d20
.Ltmp5:
	//DEBUG_VALUE: main_kernel1:tasklet_id <- $r20
	.file	4 "/root" "upmem-2021.3.0-Linux-x86_64/bin/../share/upmem/include/syslib/defs.h"
	.loc	4 35 12 prologue_end            // upmem-2021.3.0-Linux-x86_64/bin/../share/upmem/include/syslib/defs.h:35:12
	move r20, id, nz, .LBB1_2
.Ltmp6:
// %bb.1:
	.loc	1 43 9                          // dpu/task.c:43:9
	call r23, mem_reset
.Ltmp7:
.LBB1_2:
	.loc	1 46 5                          // dpu/task.c:46:5
	move r0, my_barrier
	call r23, barrier_wait
.Ltmp8:
	.loc	1 48 57                         // dpu/task.c:48:57
	lw r16, zero, DPU_INPUT_ARGUMENTS
.Ltmp9:
	//DEBUG_VALUE: main_kernel1:input_size_dpu_bytes <- $r16
	move r0, DPU_INPUT_ARGUMENTS
	.loc	1 49 66                         // dpu/task.c:49:66
	lw r18, r0, 4
.Ltmp10:
	//DEBUG_VALUE: main_kernel1:input_size_dpu_bytes_transfer <- $r18
	.loc	1 52 40                         // dpu/task.c:52:40
	lsl r17, r20, 10
.Ltmp11:
	//DEBUG_VALUE: main_kernel1:mram_base_addr_B <- undef
	//DEBUG_VALUE: main_kernel1:base_tasklet <- $r17
	.loc	1 0 40 is_stmt 0                // dpu/task.c:0:40
	move r15, 1024
	.loc	1 57 24 is_stmt 1               // dpu/task.c:57:24
	move r0, r15
	call r23, mem_alloc
.Ltmp12:
	move r14, r0
.Ltmp13:
	//DEBUG_VALUE: main_kernel1:cache_A <- $r14
	.loc	1 58 24                         // dpu/task.c:58:24
	move r0, r15
	call r23, mem_alloc
.Ltmp14:
	move r15, r0
.Ltmp15:
	//DEBUG_VALUE: main_kernel1:mram_base_addr_A <- undef
	//DEBUG_VALUE: main_kernel1:cache_B <- $r15
	//DEBUG_VALUE: byte_index <- $r17
	.loc	1 60 5                          // dpu/task.c:60:5
	jleu r16, r17, .LBB1_7
.Ltmp16:
// %bb.3:
	//DEBUG_VALUE: main_kernel1:input_size_dpu_bytes_transfer <- $r18
	//DEBUG_VALUE: byte_index <- $r17
	//DEBUG_VALUE: main_kernel1:base_tasklet <- $r17
	//DEBUG_VALUE: main_kernel1:input_size_dpu_bytes <- $r16
	//DEBUG_VALUE: main_kernel1:cache_B <- $r15
	//DEBUG_VALUE: main_kernel1:cache_A <- $r14
	.loc	1 0 0 is_stmt 0                 // dpu/task.c:0:0
	move r0, __sys_used_mram_end
	add r0, r0, r18
.Ltmp17:
	//DEBUG_VALUE: main_kernel1:mram_base_addr_B <- $r0
	sw r22, -16, r0
.Ltmp18:
	//DEBUG_VALUE: main_kernel1:mram_base_addr_B <- [DW_OP_constu 16, DW_OP_minus] [$r22+0]
	.loc	1 60 5                          // dpu/task.c:60:5
	add r19, r17, 1024
	move r0, 0
	lsl_sub r20, r0, r20, 10, true, .LBB1_4
.Ltmp19:
.LBB1_6:                                //   in Loop: Header=BB1_4 Depth=1
	//DEBUG_VALUE: main_kernel1:mram_base_addr_B <- [DW_OP_constu 16, DW_OP_minus] [$r22+0]
	//DEBUG_VALUE: byte_index <- $r17
	//DEBUG_VALUE: main_kernel1:input_size_dpu_bytes <- $r16
	//DEBUG_VALUE: main_kernel1:cache_B <- $r15
	//DEBUG_VALUE: main_kernel1:cache_A <- $r14
	.loc	1 63 45 is_stmt 1               // dpu/task.c:63:45
	add r0, r0, r20
.Ltmp20:
	//DEBUG_VALUE: l_size_bytes <- undef
	.loc	1 66 61                         // dpu/task.c:66:61
	move r1, __sys_used_mram_end
	add r1, r17, r1
	move r2, -1
.Ltmp21:
	//DEBUG_VALUE: mram_write:nb_of_bytes <- undef
	//DEBUG_VALUE: mram_write:to <- undef
	//DEBUG_VALUE: mram_read:from <- $r1
	.file	5 "/root" "upmem-2021.3.0-Linux-x86_64/bin/../share/upmem/include/syslib/mram.h"
	.loc	5 35 24                         // upmem-2021.3.0-Linux-x86_64/bin/../share/upmem/include/syslib/mram.h:35:24
	lsr_add r2, r2, r0, 3
.Ltmp22:
	//DEBUG_VALUE: mram_read:nb_of_bytes <- undef
	//DEBUG_VALUE: mram_read:to <- $r14
	lsl_add r3, r14, r2, 24
	ldma r3, r1, 0
.Ltmp23:
	.loc	1 67 19                         // dpu/task.c:67:19
	lw r1, r22, -16
.Ltmp24:
	add r21, r1, r17
.Ltmp25:
	.loc	5 35 24                         // upmem-2021.3.0-Linux-x86_64/bin/../share/upmem/include/syslib/mram.h:35:24
	lsl_add r18, r15, r2, 24
.Ltmp26:
	//DEBUG_VALUE: mram_read:nb_of_bytes <- undef
	//DEBUG_VALUE: mram_read:to <- $r15
	//DEBUG_VALUE: mram_read:from <- $r21
	ldma r18, r21, 0
.Ltmp27:
	.loc	1 70 56                         // dpu/task.c:70:56
	lsr r2, r0, 2
	.loc	1 70 9 is_stmt 0                // dpu/task.c:70:9
	move r0, r15
	move r1, r14
	call r23, vector_addition
.Ltmp28:
	//DEBUG_VALUE: mram_write:from <- $r15
	.loc	5 53 24 is_stmt 1               // upmem-2021.3.0-Linux-x86_64/bin/../share/upmem/include/syslib/mram.h:53:24
	sdma r18, r21, 0
.Ltmp29:
	.loc	1 60 95                         // dpu/task.c:60:95
	add r17, r17, 16384
.Ltmp30:
	//DEBUG_VALUE: byte_index <- $r17
	.loc	1 60 60 is_stmt 0               // dpu/task.c:60:60
	add r19, r19, 16384
	add r20, r20, -16384
.Ltmp31:
	.loc	1 60 5                          // dpu/task.c:60:5
	jleu r16, r17, .LBB1_7
.Ltmp32:
.LBB1_4:                                // =>This Inner Loop Header: Depth=1
	//DEBUG_VALUE: main_kernel1:mram_base_addr_B <- [DW_OP_constu 16, DW_OP_minus] [$r22+0]
	//DEBUG_VALUE: byte_index <- $r17
	//DEBUG_VALUE: main_kernel1:input_size_dpu_bytes <- $r16
	//DEBUG_VALUE: main_kernel1:cache_B <- $r15
	//DEBUG_VALUE: main_kernel1:cache_A <- $r14
	//DEBUG_VALUE: byte_index <- $r17
	.loc	1 63 45 is_stmt 1               // dpu/task.c:63:45
	move r0, r16
	jltu r16, r19, .LBB1_6
.Ltmp33:
// %bb.5:                               //   in Loop: Header=BB1_4 Depth=1
	//DEBUG_VALUE: main_kernel1:mram_base_addr_B <- [DW_OP_constu 16, DW_OP_minus] [$r22+0]
	//DEBUG_VALUE: byte_index <- $r17
	//DEBUG_VALUE: main_kernel1:input_size_dpu_bytes <- $r16
	//DEBUG_VALUE: main_kernel1:cache_B <- $r15
	//DEBUG_VALUE: main_kernel1:cache_A <- $r14
	move r0, r19, true, .LBB1_6
.Ltmp34:
.LBB1_7:
	//DEBUG_VALUE: main_kernel1:input_size_dpu_bytes <- $r16
	//DEBUG_VALUE: main_kernel1:cache_B <- $r15
	//DEBUG_VALUE: main_kernel1:cache_A <- $r14
	.loc	1 0 45 is_stmt 0                // dpu/task.c:0:45
	move r0, 0
	.loc	1 77 5 is_stmt 1                // dpu/task.c:77:5
	ld d20, r22, -48
	ld d18, r22, -40
	ld d16, r22, -32
.Ltmp35:
	ld d14, r22, -24
.Ltmp36:
	ld d22, r22, -8
	jump r23
.Ltmp37:
.Lfunc_end1:
	.size	main_kernel1, .Lfunc_end1-main_kernel1
	.cfi_endproc
	.file	6 "/root" "upmem-2021.3.0-Linux-x86_64/bin/../share/upmem/include/syslib/sysdef.h"
	.section	.stack_sizes,"o",@progbits,.text.main_kernel1
	.long	.Lfunc_begin1
	.byte	48
	.section	.text.main_kernel1,"ax",@progbits
                                        // -- End function
	.section	.text.main,"ax",@progbits
	.globl	main                            // -- Begin function main
	.type	main,@function
main:                                   // @main
.Lfunc_begin2:
	.loc	1 31 0                          // dpu/task.c:31:0
	.cfi_startproc
// %bb.0:
	.cfi_def_cfa_offset -8
	.cfi_offset 23, -8
	.cfi_offset 22, -4
	sd r22, 0, d22
	add r22, r22, 8
.Ltmp38:
	.loc	1 33 40 prologue_end            // dpu/task.c:33:40
	move r0, DPU_INPUT_ARGUMENTS
	lw r0, r0, 8
	.loc	1 33 12 is_stmt 0               // dpu/task.c:33:12
	lsl r0, r0, 2
	lw r0, r0, kernels
	call r23, r0
.Ltmp39:
	.loc	1 33 5                          // dpu/task.c:33:5
	ld d22, r22, -8
	jump r23
.Ltmp40:
.Lfunc_end2:
	.size	main, .Lfunc_end2-main
	.cfi_endproc
	.section	.stack_sizes,"o",@progbits,.text.main
	.long	.Lfunc_begin2
	.byte	8
	.section	.text.main,"ax",@progbits
                                        // -- End function
	.type	kernels,@object                 // @kernels
	.section	.data.kernels,"aw",@progbits
	.globl	kernels
	.p2align	2
kernels:
	.long	main_kernel1
	.size	kernels, 4

	.type	DPU_INPUT_ARGUMENTS,@object     // @DPU_INPUT_ARGUMENTS
	.section	.dpu_host,"aw",@progbits
	.globl	DPU_INPUT_ARGUMENTS
	.p2align	3
DPU_INPUT_ARGUMENTS:
	.zero	12
	.size	DPU_INPUT_ARGUMENTS, 12

	.type	__atomic_bit_barrier_my_barrier,@object // @__atomic_bit_barrier_my_barrier
	.section	.atomic,"aw",@progbits
	.globl	__atomic_bit_barrier_my_barrier
__atomic_bit_barrier_my_barrier:
	.byte	0                               // 0x0
	.size	__atomic_bit_barrier_my_barrier, 1
